Archive member included because of file (symbol)

/opt/devkitpro/libnds/lib/libnds9.a(system.o)
                              strpcm.o (systemMsgHandler)
/opt/devkitpro/libnds/lib/libnds9.a(video.o)
                              glglobal.o (vramSetMainBanks)
/opt/devkitpro/libnds/lib/libnds9.a(dldi.o)
                              disc_io.o (dldiGetInternal)
/opt/devkitpro/libnds/lib/libnds9.a(initSystem.o)
                              /opt/devkitpro/devkitARM/lib/gcc/arm-none-eabi/4.7.1/../../../../arm-none-eabi/lib/ds_arm9_crt0.o (initSystem)
/opt/devkitpro/libnds/lib/libnds9.a(fifosystem.o)
                              strpcm.o (fifoSendAddress)
/opt/devkitpro/libnds/lib/libnds9.a(interrupts.o)
                              strpcm.o (irqSet)
/opt/devkitpro/libnds/lib/libnds9.a(libnds_exit.arm.o)
                              /opt/devkitpro/devkitARM/lib/gcc/arm-none-eabi/4.7.1/../../../../arm-none-eabi/lib/ds_arm9_crt0.o (__libnds_exit)
/opt/devkitpro/libnds/lib/libnds9.a(dcache.o)
                              plug_ndsrom.o (DC_FlushAll)
/opt/devkitpro/libnds/lib/libnds9.a(icache.o)
                              OverlayManager.o (IC_InvalidateAll)
/opt/devkitpro/libnds/lib/libnds9.a(dldi_stub.o)
                              plug_ndsrom.o (_io_dldi_stub)
/opt/devkitpro/libnds/lib/libnds9.a(mpu_setup.o)
                              /opt/devkitpro/devkitARM/lib/gcc/arm-none-eabi/4.7.1/../../../../arm-none-eabi/lib/ds_arm9_crt0.o (__libnds_mpu_setup)
/opt/devkitpro/libnds/lib/libnds9.a(biosCalls.o)
                              /opt/devkitpro/libnds/lib/libnds9.a(system.o) (swiDelay)
/opt/devkitpro/libnds/lib/libnds9.a(debugprint.o)
                              _console.o (nocashMessage)
/opt/devkitpro/libnds/lib/libnds9.a(interruptDispatcher.o)
                              /opt/devkitpro/libnds/lib/libnds9.a(interrupts.o) (IntrMain)
/opt/devkitpro/libnds/lib/libnds9.a(swiSoftReset.o)
                              /opt/devkitpro/libnds/lib/libnds9.a(fifosystem.o) (swiSoftReset)
/opt/devkitpro/devkitARM/lib/gcc/arm-none-eabi/4.7.1/../../../../arm-none-eabi/lib/libstdc++.a(del_op.o)
                              cstream.o (operator delete(void*))
/opt/devkitpro/devkitARM/lib/gcc/arm-none-eabi/4.7.1/../../../../arm-none-eabi/lib/libstdc++.a(new_op.o)
                              skin.o (operator new(unsigned int))
/opt/devkitpro/devkitARM/lib/gcc/arm-none-eabi/4.7.1/../../../../arm-none-eabi/lib/libstdc++.a(pure.o)
                              Classic_Emu.o (__cxa_pure_virtual)
/opt/devkitpro/devkitARM/lib/gcc/arm-none-eabi/4.7.1/../../../../arm-none-eabi/lib/libstdc++.a(bad_alloc.o)
                              /opt/devkitpro/devkitARM/lib/gcc/arm-none-eabi/4.7.1/../../../../arm-none-eabi/lib/libstdc++.a(new_op.o) (std::bad_alloc::~bad_alloc())
/opt/devkitpro/devkitARM/lib/gcc/arm-none-eabi/4.7.1/../../../../arm-none-eabi/lib/libstdc++.a(eh_alloc.o)
                              /opt/devkitpro/devkitARM/lib/gcc/arm-none-eabi/4.7.1/../../../../arm-none-eabi/lib/libstdc++.a(new_op.o) (__cxa_allocate_exception)
/opt/devkitpro/devkitARM/lib/gcc/arm-none-eabi/4.7.1/../../../../arm-none-eabi/lib/libstdc++.a(eh_arm.o)
                              /opt/devkitpro/devkitARM/lib/gcc/arm-none-eabi/4.7.1/../../../../arm-none-eabi/lib/libstdc++.a(new_op.o) (__cxa_end_cleanup)
/opt/devkitpro/devkitARM/lib/gcc/arm-none-eabi/4.7.1/../../../../arm-none-eabi/lib/libstdc++.a(eh_call.o)
                              /opt/devkitpro/devkitARM/lib/gcc/arm-none-eabi/4.7.1/../../../../arm-none-eabi/lib/libstdc++.a(new_op.o) (__cxa_call_unexpected)
/opt/devkitpro/devkitARM/lib/gcc/arm-none-eabi/4.7.1/../../../../arm-none-eabi/lib/libstdc++.a(eh_catch.o)
                              /opt/devkitpro/devkitARM/lib/gcc/arm-none-eabi/4.7.1/../../../../arm-none-eabi/lib/libstdc++.a(eh_call.o) (__cxa_begin_catch)
/opt/devkitpro/devkitARM/lib/gcc/arm-none-eabi/4.7.1/../../../../arm-none-eabi/lib/libstdc++.a(eh_exception.o)
                              /opt/devkitpro/devkitARM/lib/gcc/arm-none-eabi/4.7.1/../../../../arm-none-eabi/lib/libstdc++.a(bad_alloc.o) (std::exception::~exception())
/opt/devkitpro/devkitARM/lib/gcc/arm-none-eabi/4.7.1/../../../../arm-none-eabi/lib/libstdc++.a(eh_globals.o)
                              /opt/devkitpro/devkitARM/lib/gcc/arm-none-eabi/4.7.1/../../../../arm-none-eabi/lib/libstdc++.a(eh_call.o) (__cxa_get_globals_fast)
/opt/devkitpro/devkitARM/lib/gcc/arm-none-eabi/4.7.1/../../../../arm-none-eabi/lib/libstdc++.a(eh_personality.o)
                              /opt/devkitpro/devkitARM/lib/gcc/arm-none-eabi/4.7.1/../../../../arm-none-eabi/lib/libstdc++.a(new_op.o) (__gxx_personality_v0)
/opt/devkitpro/devkitARM/lib/gcc/arm-none-eabi/4.7.1/../../../../arm-none-eabi/lib/libstdc++.a(eh_terminate.o)
                              /opt/devkitpro/devkitARM/lib/gcc/arm-none-eabi/4.7.1/../../../../arm-none-eabi/lib/libstdc++.a(eh_call.o) (__cxxabiv1::__terminate(void (*)()))
/opt/devkitpro/devkitARM/lib/gcc/arm-none-eabi/4.7.1/../../../../arm-none-eabi/lib/libstdc++.a(eh_throw.o)
                              /opt/devkitpro/devkitARM/lib/gcc/arm-none-eabi/4.7.1/../../../../arm-none-eabi/lib/libstdc++.a(new_op.o) (__cxa_throw)
/opt/devkitpro/devkitARM/lib/gcc/arm-none-eabi/4.7.1/../../../../arm-none-eabi/lib/libstdc++.a(eh_unex_handler.o)
                              /opt/devkitpro/devkitARM/lib/gcc/arm-none-eabi/4.7.1/../../../../arm-none-eabi/lib/libstdc++.a(eh_terminate.o) (__cxxabiv1::__unexpected_handler)
/opt/devkitpro/devkitARM/lib/gcc/arm-none-eabi/4.7.1/../../../../arm-none-eabi/lib/libstdc++.a(new_handler.o)
                              /opt/devkitpro/devkitARM/lib/gcc/arm-none-eabi/4.7.1/../../../../arm-none-eabi/lib/libstdc++.a(new_op.o) (__new_handler)
/opt/devkitpro/devkitARM/lib/gcc/arm-none-eabi/4.7.1/../../../../arm-none-eabi/lib/libstdc++.a(si_class_type_info.o)
                              /opt/devkitpro/devkitARM/lib/gcc/arm-none-eabi/4.7.1/../../../../arm-none-eabi/lib/libstdc++.a(bad_alloc.o) (vtable for __cxxabiv1::__si_class_type_info)
/opt/devkitpro/devkitARM/lib/gcc/arm-none-eabi/4.7.1/../../../../arm-none-eabi/lib/libstdc++.a(tinfo.o)
                              /opt/devkitpro/devkitARM/lib/gcc/arm-none-eabi/4.7.1/../../../../arm-none-eabi/lib/libstdc++.a(si_class_type_info.o) (std::type_info::__is_pointer_p() const)
/opt/devkitpro/devkitARM/lib/gcc/arm-none-eabi/4.7.1/../../../../arm-none-eabi/lib/libstdc++.a(class_type_info.o)
                              /opt/devkitpro/devkitARM/lib/gcc/arm-none-eabi/4.7.1/../../../../arm-none-eabi/lib/libstdc++.a(si_class_type_info.o) (__cxxabiv1::__class_type_info::__do_upcast(__cxxabiv1::__class_type_info const*, void**) const)
/opt/devkitpro/devkitARM/lib/gcc/arm-none-eabi/4.7.1/../../../../arm-none-eabi/lib/libstdc++.a(eh_term_handler.o)
                              /opt/devkitpro/devkitARM/lib/gcc/arm-none-eabi/4.7.1/../../../../arm-none-eabi/lib/libstdc++.a(eh_terminate.o) (__cxxabiv1::__terminate_handler)
/opt/devkitpro/devkitARM/lib/gcc/arm-none-eabi/4.7.1/../../../../arm-none-eabi/lib/libstdc++.a(vterminate.o)
                              /opt/devkitpro/devkitARM/lib/gcc/arm-none-eabi/4.7.1/../../../../arm-none-eabi/lib/libstdc++.a(eh_term_handler.o) (__gnu_cxx::__verbose_terminate_handler())
/opt/devkitpro/devkitARM/lib/gcc/arm-none-eabi/4.7.1/../../../../arm-none-eabi/lib/libstdc++.a(cp-demangle.o)
                              /opt/devkitpro/devkitARM/lib/gcc/arm-none-eabi/4.7.1/../../../../arm-none-eabi/lib/libstdc++.a(vterminate.o) (__cxa_demangle)
/opt/devkitpro/devkitARM/lib/gcc/arm-none-eabi/4.7.1/../../../../arm-none-eabi/lib/libstdc++.a(eh_type.o)
                              /opt/devkitpro/devkitARM/lib/gcc/arm-none-eabi/4.7.1/../../../../arm-none-eabi/lib/libstdc++.a(vterminate.o) (__cxa_current_exception_type)
/opt/devkitpro/devkitARM/lib/gcc/arm-none-eabi/4.7.1/../../../../arm-none-eabi/lib/libm.a(lib_a-s_cos.o)
                              particle.o (cos)
/opt/devkitpro/devkitARM/lib/gcc/arm-none-eabi/4.7.1/../../../../arm-none-eabi/lib/libm.a(lib_a-s_fabs.o)
                              dll.o (fabs)
/opt/devkitpro/devkitARM/lib/gcc/arm-none-eabi/4.7.1/../../../../arm-none-eabi/lib/libm.a(lib_a-s_floor.o)
                              Blip_Buffer.o (floor)
/opt/devkitpro/devkitARM/lib/gcc/arm-none-eabi/4.7.1/../../../../arm-none-eabi/lib/libm.a(lib_a-s_sin.o)
                              particle.o (sin)
/opt/devkitpro/devkitARM/lib/gcc/arm-none-eabi/4.7.1/../../../../arm-none-eabi/lib/libm.a(lib_a-sf_fabs.o)
                              dll.o (fabsf)
/opt/devkitpro/devkitARM/lib/gcc/arm-none-eabi/4.7.1/../../../../arm-none-eabi/lib/libm.a(lib_a-w_fmod.o)
                              Fir_Resampler.o (fmod)
/opt/devkitpro/devkitARM/lib/gcc/arm-none-eabi/4.7.1/../../../../arm-none-eabi/lib/libm.a(lib_a-w_log10.o)
                              Ym2612_Emu.o (log10)
/opt/devkitpro/devkitARM/lib/gcc/arm-none-eabi/4.7.1/../../../../arm-none-eabi/lib/libm.a(lib_a-w_pow.o)
                              Blip_Buffer.o (pow)
/opt/devkitpro/devkitARM/lib/gcc/arm-none-eabi/4.7.1/../../../../arm-none-eabi/lib/libm.a(lib_a-e_fmod.o)
                              /opt/devkitpro/devkitARM/lib/gcc/arm-none-eabi/4.7.1/../../../../arm-none-eabi/lib/libm.a(lib_a-w_fmod.o) (__ieee754_fmod)
/opt/devkitpro/devkitARM/lib/gcc/arm-none-eabi/4.7.1/../../../../arm-none-eabi/lib/libm.a(lib_a-e_log10.o)
                              /opt/devkitpro/devkitARM/lib/gcc/arm-none-eabi/4.7.1/../../../../arm-none-eabi/lib/libm.a(lib_a-w_log10.o) (__ieee754_log10)
/opt/devkitpro/devkitARM/lib/gcc/arm-none-eabi/4.7.1/../../../../arm-none-eabi/lib/libm.a(lib_a-e_pow.o)
                              /opt/devkitpro/devkitARM/lib/gcc/arm-none-eabi/4.7.1/../../../../arm-none-eabi/lib/libm.a(lib_a-w_pow.o) (__ieee754_pow)
/opt/devkitpro/devkitARM/lib/gcc/arm-none-eabi/4.7.1/../../../../arm-none-eabi/lib/libm.a(lib_a-e_rem_pio2.o)
                              /opt/devkitpro/devkitARM/lib/gcc/arm-none-eabi/4.7.1/../../../../arm-none-eabi/lib/libm.a(lib_a-s_cos.o) (__ieee754_rem_pio2)
/opt/devkitpro/devkitARM/lib/gcc/arm-none-eabi/4.7.1/../../../../arm-none-eabi/lib/libm.a(lib_a-e_sqrt.o)
                              /opt/devkitpro/devkitARM/lib/gcc/arm-none-eabi/4.7.1/../../../../arm-none-eabi/lib/libm.a(lib_a-e_pow.o) (__ieee754_sqrt)
/opt/devkitpro/devkitARM/lib/gcc/arm-none-eabi/4.7.1/../../../../arm-none-eabi/lib/libm.a(lib_a-k_cos.o)
                              /opt/devkitpro/devkitARM/lib/gcc/arm-none-eabi/4.7.1/../../../../arm-none-eabi/lib/libm.a(lib_a-s_cos.o) (__kernel_cos)
/opt/devkitpro/devkitARM/lib/gcc/arm-none-eabi/4.7.1/../../../../arm-none-eabi/lib/libm.a(lib_a-k_rem_pio2.o)
                              /opt/devkitpro/devkitARM/lib/gcc/arm-none-eabi/4.7.1/../../../../arm-none-eabi/lib/libm.a(lib_a-e_rem_pio2.o) (__kernel_rem_pio2)
/opt/devkitpro/devkitARM/lib/gcc/arm-none-eabi/4.7.1/../../../../arm-none-eabi/lib/libm.a(lib_a-k_sin.o)
                              /opt/devkitpro/devkitARM/lib/gcc/arm-none-eabi/4.7.1/../../../../arm-none-eabi/lib/libm.a(lib_a-s_cos.o) (__kernel_sin)
/opt/devkitpro/devkitARM/lib/gcc/arm-none-eabi/4.7.1/../../../../arm-none-eabi/lib/libm.a(lib_a-s_finite.o)
                              /opt/devkitpro/devkitARM/lib/gcc/arm-none-eabi/4.7.1/../../../../arm-none-eabi/lib/libm.a(lib_a-w_pow.o) (finite)
/opt/devkitpro/devkitARM/lib/gcc/arm-none-eabi/4.7.1/../../../../arm-none-eabi/lib/libm.a(lib_a-s_fpclassify.o)
                              /opt/devkitpro/devkitARM/lib/gcc/arm-none-eabi/4.7.1/../../../../arm-none-eabi/lib/libm.a(lib_a-w_fmod.o) (__fpclassifyd)
/opt/devkitpro/devkitARM/lib/gcc/arm-none-eabi/4.7.1/../../../../arm-none-eabi/lib/libm.a(lib_a-s_lib_ver.o)
                              /opt/devkitpro/devkitARM/lib/gcc/arm-none-eabi/4.7.1/../../../../arm-none-eabi/lib/libm.a(lib_a-w_fmod.o) (__fdlib_version)
/opt/devkitpro/devkitARM/lib/gcc/arm-none-eabi/4.7.1/../../../../arm-none-eabi/lib/libm.a(lib_a-s_matherr.o)
                              /opt/devkitpro/devkitARM/lib/gcc/arm-none-eabi/4.7.1/../../../../arm-none-eabi/lib/libm.a(lib_a-w_fmod.o) (matherr)
/opt/devkitpro/devkitARM/lib/gcc/arm-none-eabi/4.7.1/../../../../arm-none-eabi/lib/libm.a(lib_a-s_nan.o)
                              /opt/devkitpro/devkitARM/lib/gcc/arm-none-eabi/4.7.1/../../../../arm-none-eabi/lib/libm.a(lib_a-w_log10.o) (nan)
/opt/devkitpro/devkitARM/lib/gcc/arm-none-eabi/4.7.1/../../../../arm-none-eabi/lib/libm.a(lib_a-s_rint.o)
                              /opt/devkitpro/devkitARM/lib/gcc/arm-none-eabi/4.7.1/../../../../arm-none-eabi/lib/libm.a(lib_a-w_pow.o) (rint)
/opt/devkitpro/devkitARM/lib/gcc/arm-none-eabi/4.7.1/../../../../arm-none-eabi/lib/libm.a(lib_a-s_scalbn.o)
                              /opt/devkitpro/devkitARM/lib/gcc/arm-none-eabi/4.7.1/../../../../arm-none-eabi/lib/libm.a(lib_a-e_pow.o) (scalbn)
/opt/devkitpro/devkitARM/lib/gcc/arm-none-eabi/4.7.1/../../../../arm-none-eabi/lib/libm.a(lib_a-e_log.o)
                              /opt/devkitpro/devkitARM/lib/gcc/arm-none-eabi/4.7.1/../../../../arm-none-eabi/lib/libm.a(lib_a-e_log10.o) (__ieee754_log)
/opt/devkitpro/devkitARM/lib/gcc/arm-none-eabi/4.7.1/../../../../arm-none-eabi/lib/libm.a(lib_a-s_copysign.o)
                              /opt/devkitpro/devkitARM/lib/gcc/arm-none-eabi/4.7.1/../../../../arm-none-eabi/lib/libm.a(lib_a-s_scalbn.o) (copysign)
/opt/devkitpro/devkitARM/lib/gcc/arm-none-eabi/4.7.1/libgcc.a(_udivsi3.o)
                              dllsound.o (__aeabi_uidiv)
/opt/devkitpro/devkitARM/lib/gcc/arm-none-eabi/4.7.1/libgcc.a(_divsi3.o)
                              particle.o (__aeabi_idiv)
/opt/devkitpro/devkitARM/lib/gcc/arm-none-eabi/4.7.1/libgcc.a(_dvmd_tls.o)
                              /opt/devkitpro/devkitARM/lib/gcc/arm-none-eabi/4.7.1/libgcc.a(_udivsi3.o) (__aeabi_idiv0)
/opt/devkitpro/devkitARM/lib/gcc/arm-none-eabi/4.7.1/libgcc.a(_arm_addsubdf3.o)
                              Blip_Buffer.o (__aeabi_dsub)
/opt/devkitpro/devkitARM/lib/gcc/arm-none-eabi/4.7.1/libgcc.a(_arm_muldivdf3.o)
                              particle.o (__aeabi_dmul)
/opt/devkitpro/devkitARM/lib/gcc/arm-none-eabi/4.7.1/libgcc.a(_arm_cmpdf2.o)
                              proc_ImageView.o (__aeabi_dcmpeq)
/opt/devkitpro/devkitARM/lib/gcc/arm-none-eabi/4.7.1/libgcc.a(_arm_fixdfsi.o)
                              particle.o (__aeabi_d2iz)
/opt/devkitpro/devkitARM/lib/gcc/arm-none-eabi/4.7.1/libgcc.a(_arm_fixunsdfsi.o)
                              plug_mp2.o (__aeabi_d2uiz)
/opt/devkitpro/devkitARM/lib/gcc/arm-none-eabi/4.7.1/libgcc.a(_arm_truncdfsf2.o)
                              particle.o (__aeabi_d2f)
/opt/devkitpro/devkitARM/lib/gcc/arm-none-eabi/4.7.1/libgcc.a(_arm_addsubsf3.o)
                              particle.o (__aeabi_fsub)
/opt/devkitpro/devkitARM/lib/gcc/arm-none-eabi/4.7.1/libgcc.a(_arm_muldivsf3.o)
                              dllsound.o (__aeabi_fmul)
/opt/devkitpro/devkitARM/lib/gcc/arm-none-eabi/4.7.1/libgcc.a(_arm_cmpsf2.o)
                              plug_gme.o (__aeabi_fcmpeq)
/opt/devkitpro/devkitARM/lib/gcc/arm-none-eabi/4.7.1/libgcc.a(_arm_fixsfsi.o)
                              plug_lyric.o (__aeabi_f2iz)
/opt/devkitpro/devkitARM/lib/gcc/arm-none-eabi/4.7.1/libgcc.a(_arm_fixunssfsi.o)
                              dllsound.o (__aeabi_f2uiz)
/opt/devkitpro/devkitARM/lib/gcc/arm-none-eabi/4.7.1/libgcc.a(_aeabi_ldivmod.o)
                              plug_ogg.o (__aeabi_ldivmod)
/opt/devkitpro/devkitARM/lib/gcc/arm-none-eabi/4.7.1/libgcc.a(_aeabi_uldivmod.o)
                              clibdpg.o (__aeabi_uldivmod)
/opt/devkitpro/devkitARM/lib/gcc/arm-none-eabi/4.7.1/libgcc.a(bpabi.o)
                              /opt/devkitpro/devkitARM/lib/gcc/arm-none-eabi/4.7.1/libgcc.a(_aeabi_ldivmod.o) (__gnu_ldivmod_helper)
/opt/devkitpro/devkitARM/lib/gcc/arm-none-eabi/4.7.1/libgcc.a(unwind-arm.o)
                              /opt/devkitpro/devkitARM/lib/gcc/arm-none-eabi/4.7.1/../../../../arm-none-eabi/lib/libstdc++.a(eh_arm.o) (__aeabi_unwind_cpp_pr0)
/opt/devkitpro/devkitARM/lib/gcc/arm-none-eabi/4.7.1/libgcc.a(libunwind.o)
                              /opt/devkitpro/devkitARM/lib/gcc/arm-none-eabi/4.7.1/libgcc.a(unwind-arm.o) (restore_core_regs)
/opt/devkitpro/devkitARM/lib/gcc/arm-none-eabi/4.7.1/libgcc.a(pr-support.o)
                              /opt/devkitpro/devkitARM/lib/gcc/arm-none-eabi/4.7.1/libgcc.a(unwind-arm.o) (__gnu_unwind_execute)
/opt/devkitpro/devkitARM/lib/gcc/arm-none-eabi/4.7.1/libgcc.a(_divdi3.o)
                              /opt/devkitpro/devkitARM/lib/gcc/arm-none-eabi/4.7.1/libgcc.a(bpabi.o) (__divdi3)
/opt/devkitpro/devkitARM/lib/gcc/arm-none-eabi/4.7.1/libgcc.a(_udivdi3.o)
                              /opt/devkitpro/devkitARM/lib/gcc/arm-none-eabi/4.7.1/libgcc.a(bpabi.o) (__udivdi3)
/opt/devkitpro/devkitARM/lib/gcc/arm-none-eabi/4.7.1/libgcc.a(_clzsi2.o)
                              /opt/devkitpro/devkitARM/lib/gcc/arm-none-eabi/4.7.1/libgcc.a(_divdi3.o) (__clzsi2)
/opt/devkitpro/devkitARM/lib/gcc/arm-none-eabi/4.7.1/../../../../arm-none-eabi/lib/libc.a(lib_a-abort.o)
                              pngerror.o (abort)
/opt/devkitpro/devkitARM/lib/gcc/arm-none-eabi/4.7.1/../../../../arm-none-eabi/lib/libc.a(lib_a-abs.o)
                              dll.o (abs)
/opt/devkitpro/devkitARM/lib/gcc/arm-none-eabi/4.7.1/../../../../arm-none-eabi/lib/libc.a(lib_a-assert.o)
                              Ay_Apu.o (__assert_func)
/opt/devkitpro/devkitARM/lib/gcc/arm-none-eabi/4.7.1/../../../../arm-none-eabi/lib/libc.a(lib_a-atof.o)
                              dll.o (atof)
/opt/devkitpro/devkitARM/lib/gcc/arm-none-eabi/4.7.1/../../../../arm-none-eabi/lib/libc.a(lib_a-atoi.o)
                              dll.o (atoi)
/opt/devkitpro/devkitARM/lib/gcc/arm-none-eabi/4.7.1/../../../../arm-none-eabi/lib/libc.a(lib_a-atol.o)
                              dll.o (atol)
/opt/devkitpro/devkitARM/lib/gcc/arm-none-eabi/4.7.1/../../../../arm-none-eabi/lib/libc.a(lib_a-atoll.o)
                              dll.o (atoll)
/opt/devkitpro/devkitARM/lib/gcc/arm-none-eabi/4.7.1/../../../../arm-none-eabi/lib/libc.a(lib_a-calloc.o)
                              layer3.o (calloc)
/opt/devkitpro/devkitARM/lib/gcc/arm-none-eabi/4.7.1/../../../../arm-none-eabi/lib/libc.a(lib_a-callocr.o)
                              /opt/devkitpro/devkitARM/lib/gcc/arm-none-eabi/4.7.1/../../../../arm-none-eabi/lib/libc.a(lib_a-calloc.o) (_calloc_r)
/opt/devkitpro/devkitARM/lib/gcc/arm-none-eabi/4.7.1/../../../../arm-none-eabi/lib/libc.a(lib_a-ctype_.o)
                              info.o (__ctype_ptr__)
/opt/devkitpro/devkitARM/lib/gcc/arm-none-eabi/4.7.1/../../../../arm-none-eabi/lib/libc.a(lib_a-errno.o)
                              /opt/devkitpro/devkitARM/lib/gcc/arm-none-eabi/4.7.1/../../../../arm-none-eabi/lib/libm.a(lib_a-w_fmod.o) (__errno)
/opt/devkitpro/devkitARM/lib/gcc/arm-none-eabi/4.7.1/../../../../arm-none-eabi/lib/libc.a(lib_a-fiprintf.o)
                              /opt/devkitpro/devkitARM/lib/gcc/arm-none-eabi/4.7.1/../../../../arm-none-eabi/lib/libc.a(lib_a-assert.o) (fiprintf)
/opt/devkitpro/devkitARM/lib/gcc/arm-none-eabi/4.7.1/../../../../arm-none-eabi/lib/libc.a(lib_a-fputc.o)
                              /opt/devkitpro/devkitARM/lib/gcc/arm-none-eabi/4.7.1/../../../../arm-none-eabi/lib/libstdc++.a(vterminate.o) (fputc)
/opt/devkitpro/devkitARM/lib/gcc/arm-none-eabi/4.7.1/../../../../arm-none-eabi/lib/libc.a(lib_a-fputs.o)
                              /opt/devkitpro/devkitARM/lib/gcc/arm-none-eabi/4.7.1/../../../../arm-none-eabi/lib/libstdc++.a(vterminate.o) (fputs)
/opt/devkitpro/devkitARM/lib/gcc/arm-none-eabi/4.7.1/../../../../arm-none-eabi/lib/libc.a(lib_a-fvwrite.o)
                              /opt/devkitpro/devkitARM/lib/gcc/arm-none-eabi/4.7.1/../../../../arm-none-eabi/lib/libc.a(lib_a-fputs.o) (__sfvwrite_r)
/opt/devkitpro/devkitARM/lib/gcc/arm-none-eabi/4.7.1/../../../../arm-none-eabi/lib/libc.a(lib_a-fwrite.o)
                              /opt/devkitpro/devkitARM/lib/gcc/arm-none-eabi/4.7.1/../../../../arm-none-eabi/lib/libstdc++.a(vterminate.o) (fwrite)
/opt/devkitpro/devkitARM/lib/gcc/arm-none-eabi/4.7.1/../../../../arm-none-eabi/lib/libc.a(lib_a-impure.o)
                              /opt/devkitpro/devkitARM/lib/gcc/arm-none-eabi/4.7.1/../../../../arm-none-eabi/lib/libstdc++.a(vterminate.o) (_impure_ptr)
/opt/devkitpro/devkitARM/lib/gcc/arm-none-eabi/4.7.1/../../../../arm-none-eabi/lib/libc.a(lib_a-init.o)
                              /opt/devkitpro/devkitARM/lib/gcc/arm-none-eabi/4.7.1/../../../../arm-none-eabi/lib/ds_arm9_crt0.o (__libc_init_array)
/opt/devkitpro/devkitARM/lib/gcc/arm-none-eabi/4.7.1/../../../../arm-none-eabi/lib/libc.a(lib_a-labs.o)
                              dll.o (labs)
/opt/devkitpro/devkitARM/lib/gcc/arm-none-eabi/4.7.1/../../../../arm-none-eabi/lib/libc.a(lib_a-llabs.o)
                              dll.o (llabs)
/opt/devkitpro/devkitARM/lib/gcc/arm-none-eabi/4.7.1/../../../../arm-none-eabi/lib/libc.a(lib_a-malloc.o)
                              splash.o (malloc)
/opt/devkitpro/devkitARM/lib/gcc/arm-none-eabi/4.7.1/../../../../arm-none-eabi/lib/libc.a(lib_a-mallocr.o)
                              /opt/devkitpro/devkitARM/lib/gcc/arm-none-eabi/4.7.1/../../../../arm-none-eabi/lib/libc.a(lib_a-callocr.o) (_malloc_r)
/opt/devkitpro/devkitARM/lib/gcc/arm-none-eabi/4.7.1/../../../../arm-none-eabi/lib/libc.a(lib_a-memchr-stub.o)
                              dll.o (memchr)
/opt/devkitpro/devkitARM/lib/gcc/arm-none-eabi/4.7.1/../../../../arm-none-eabi/lib/libc.a(lib_a-memcmp.o)
                              dll.o (memcmp)
/opt/devkitpro/devkitARM/lib/gcc/arm-none-eabi/4.7.1/../../../../arm-none-eabi/lib/libc.a(lib_a-memcpy-stub.o)
                              cstream.o (memcpy)
/opt/devkitpro/devkitARM/lib/gcc/arm-none-eabi/4.7.1/../../../../arm-none-eabi/lib/libc.a(lib_a-memmove.o)
                              cglstream.o (memmove)
/opt/devkitpro/devkitARM/lib/gcc/arm-none-eabi/4.7.1/../../../../arm-none-eabi/lib/libc.a(lib_a-memset.o)
                              dll.o (memset)
/opt/devkitpro/devkitARM/lib/gcc/arm-none-eabi/4.7.1/../../../../arm-none-eabi/lib/libc.a(lib_a-mlock.o)
                              /opt/devkitpro/devkitARM/lib/gcc/arm-none-eabi/4.7.1/../../../../arm-none-eabi/lib/libc.a(lib_a-mallocr.o) (__malloc_lock)
/opt/devkitpro/devkitARM/lib/gcc/arm-none-eabi/4.7.1/../../../../arm-none-eabi/lib/libc.a(lib_a-putc.o)
                              /opt/devkitpro/devkitARM/lib/gcc/arm-none-eabi/4.7.1/../../../../arm-none-eabi/lib/libc.a(lib_a-fputc.o) (_putc_r)
/opt/devkitpro/devkitARM/lib/gcc/arm-none-eabi/4.7.1/../../../../arm-none-eabi/lib/libc.a(lib_a-rand.o)
                              dll.o (rand)
/opt/devkitpro/devkitARM/lib/gcc/arm-none-eabi/4.7.1/../../../../arm-none-eabi/lib/libc.a(lib_a-realloc.o)
                              framing.o (realloc)
/opt/devkitpro/devkitARM/lib/gcc/arm-none-eabi/4.7.1/../../../../arm-none-eabi/lib/libc.a(lib_a-reallocr.o)
                              /opt/devkitpro/devkitARM/lib/gcc/arm-none-eabi/4.7.1/../../../../arm-none-eabi/lib/libc.a(lib_a-fvwrite.o) (_realloc_r)
/opt/devkitpro/devkitARM/lib/gcc/arm-none-eabi/4.7.1/../../../../arm-none-eabi/lib/libc.a(lib_a-signal.o)
                              /opt/devkitpro/devkitARM/lib/gcc/arm-none-eabi/4.7.1/../../../../arm-none-eabi/lib/libc.a(lib_a-abort.o) (raise)
/opt/devkitpro/devkitARM/lib/gcc/arm-none-eabi/4.7.1/../../../../arm-none-eabi/lib/libc.a(lib_a-snprintf.o)
                              shell_SystemAfter.o (snprintf)
/opt/devkitpro/devkitARM/lib/gcc/arm-none-eabi/4.7.1/../../../../arm-none-eabi/lib/libc.a(lib_a-sprintf.o)
                              dll.o (sprintf)
/opt/devkitpro/devkitARM/lib/gcc/arm-none-eabi/4.7.1/../../../../arm-none-eabi/lib/libc.a(lib_a-sscanf.o)
                              plug_lyric.o (sscanf)
/opt/devkitpro/devkitARM/lib/gcc/arm-none-eabi/4.7.1/../../../../arm-none-eabi/lib/libc.a(lib_a-stdio.o)
                              /opt/devkitpro/devkitARM/lib/gcc/arm-none-eabi/4.7.1/../../../../arm-none-eabi/lib/libc.a(lib_a-sscanf.o) (__seofread)
/opt/devkitpro/devkitARM/lib/gcc/arm-none-eabi/4.7.1/../../../../arm-none-eabi/lib/libc.a(lib_a-stpcpy.o)
                              dll.o (stpcpy)
/opt/devkitpro/devkitARM/lib/gcc/arm-none-eabi/4.7.1/../../../../arm-none-eabi/lib/libc.a(lib_a-strcat.o)
                              dll.o (strcat)
/opt/devkitpro/devkitARM/lib/gcc/arm-none-eabi/4.7.1/../../../../arm-none-eabi/lib/libc.a(lib_a-strchr.o)
                              dll.o (strchr)
/opt/devkitpro/devkitARM/lib/gcc/arm-none-eabi/4.7.1/../../../../arm-none-eabi/lib/libc.a(lib_a-strcmp.o)
                              shell_SystemAfter.o (strcmp)
/opt/devkitpro/devkitARM/lib/gcc/arm-none-eabi/4.7.1/../../../../arm-none-eabi/lib/libc.a(lib_a-strcoll.o)
                              dll.o (strcoll)
/opt/devkitpro/devkitARM/lib/gcc/arm-none-eabi/4.7.1/../../../../arm-none-eabi/lib/libc.a(lib_a-strcpy.o)
                              dll.o (strcpy)
/opt/devkitpro/devkitARM/lib/gcc/arm-none-eabi/4.7.1/../../../../arm-none-eabi/lib/libc.a(lib_a-strcspn.o)
                              dll.o (strcspn)
/opt/devkitpro/devkitARM/lib/gcc/arm-none-eabi/4.7.1/../../../../arm-none-eabi/lib/libc.a(lib_a-strlen.o)
                              dll.o (strlen)
/opt/devkitpro/devkitARM/lib/gcc/arm-none-eabi/4.7.1/../../../../arm-none-eabi/lib/libc.a(lib_a-strncat.o)
                              dll.o (strncat)
/opt/devkitpro/devkitARM/lib/gcc/arm-none-eabi/4.7.1/../../../../arm-none-eabi/lib/libc.a(lib_a-strncmp.o)
                              dll.o (strncmp)
/opt/devkitpro/devkitARM/lib/gcc/arm-none-eabi/4.7.1/../../../../arm-none-eabi/lib/libc.a(lib_a-strncpy.o)
                              dll.o (strncpy)
/opt/devkitpro/devkitARM/lib/gcc/arm-none-eabi/4.7.1/../../../../arm-none-eabi/lib/libc.a(lib_a-strpbrk.o)
                              dll.o (strpbrk)
/opt/devkitpro/devkitARM/lib/gcc/arm-none-eabi/4.7.1/../../../../arm-none-eabi/lib/libc.a(lib_a-strrchr.o)
                              dll.o (strrchr)
/opt/devkitpro/devkitARM/lib/gcc/arm-none-eabi/4.7.1/../../../../arm-none-eabi/lib/libc.a(lib_a-strspn.o)
                              dll.o (strspn)
/opt/devkitpro/devkitARM/lib/gcc/arm-none-eabi/4.7.1/../../../../arm-none-eabi/lib/libc.a(lib_a-strstr.o)
                              dll.o (strstr)
/opt/devkitpro/devkitARM/lib/gcc/arm-none-eabi/4.7.1/../../../../arm-none-eabi/lib/libc.a(lib_a-strtod.o)
                              /opt/devkitpro/devkitARM/lib/gcc/arm-none-eabi/4.7.1/../../../../arm-none-eabi/lib/libc.a(lib_a-atof.o) (strtod)
/opt/devkitpro/devkitARM/lib/gcc/arm-none-eabi/4.7.1/../../../../arm-none-eabi/lib/libc.a(lib_a-strtok.o)
                              dll.o (strtok)
/opt/devkitpro/devkitARM/lib/gcc/arm-none-eabi/4.7.1/../../../../arm-none-eabi/lib/libc.a(lib_a-strtok_r.o)
                              /opt/devkitpro/devkitARM/lib/gcc/arm-none-eabi/4.7.1/../../../../arm-none-eabi/lib/libc.a(lib_a-strtok.o) (__strtok_r)
/opt/devkitpro/devkitARM/lib/gcc/arm-none-eabi/4.7.1/../../../../arm-none-eabi/lib/libc.a(lib_a-strtol.o)
                              /opt/devkitpro/devkitARM/lib/gcc/arm-none-eabi/4.7.1/../../../../arm-none-eabi/lib/libc.a(lib_a-atoi.o) (_strtol_r)
/opt/devkitpro/devkitARM/lib/gcc/arm-none-eabi/4.7.1/../../../../arm-none-eabi/lib/libc.a(lib_a-strtoll.o)
                              /opt/devkitpro/devkitARM/lib/gcc/arm-none-eabi/4.7.1/../../../../arm-none-eabi/lib/libc.a(lib_a-atoll.o) (strtoll)
/opt/devkitpro/devkitARM/lib/gcc/arm-none-eabi/4.7.1/../../../../arm-none-eabi/lib/libc.a(lib_a-strtoll_r.o)
                              /opt/devkitpro/devkitARM/lib/gcc/arm-none-eabi/4.7.1/../../../../arm-none-eabi/lib/libc.a(lib_a-atoll.o) (_strtoll_r)
/opt/devkitpro/devkitARM/lib/gcc/arm-none-eabi/4.7.1/../../../../arm-none-eabi/lib/libc.a(lib_a-strxfrm.o)
                              dll.o (strxfrm)
/opt/devkitpro/devkitARM/lib/gcc/arm-none-eabi/4.7.1/../../../../arm-none-eabi/lib/libc.a(lib_a-svfprintf.o)
                              /opt/devkitpro/devkitARM/lib/gcc/arm-none-eabi/4.7.1/../../../../arm-none-eabi/lib/libc.a(lib_a-snprintf.o) (_svfprintf_r)
/opt/devkitpro/devkitARM/lib/gcc/arm-none-eabi/4.7.1/../../../../arm-none-eabi/lib/libc.a(lib_a-svfscanf.o)
                              /opt/devkitpro/devkitARM/lib/gcc/arm-none-eabi/4.7.1/../../../../arm-none-eabi/lib/libc.a(lib_a-sscanf.o) (__ssvfscanf_r)
/opt/devkitpro/devkitARM/lib/gcc/arm-none-eabi/4.7.1/../../../../arm-none-eabi/lib/libc.a(lib_a-sysclose.o)
                              /opt/devkitpro/libnds/lib/libnds9.a(dldi.o) (close)
/opt/devkitpro/devkitARM/lib/gcc/arm-none-eabi/4.7.1/../../../../arm-none-eabi/lib/libc.a(lib_a-syslseek.o)
                              /opt/devkitpro/libnds/lib/libnds9.a(dldi.o) (lseek)
/opt/devkitpro/devkitARM/lib/gcc/arm-none-eabi/4.7.1/../../../../arm-none-eabi/lib/libc.a(lib_a-sysopen.o)
                              /opt/devkitpro/libnds/lib/libnds9.a(dldi.o) (open)
/opt/devkitpro/devkitARM/lib/gcc/arm-none-eabi/4.7.1/../../../../arm-none-eabi/lib/libc.a(lib_a-sysread.o)
                              /opt/devkitpro/libnds/lib/libnds9.a(dldi.o) (read)
/opt/devkitpro/devkitARM/lib/gcc/arm-none-eabi/4.7.1/../../../../arm-none-eabi/lib/libc.a(lib_a-syswrite.o)
                              /opt/devkitpro/devkitARM/lib/gcc/arm-none-eabi/4.7.1/../../../../arm-none-eabi/lib/libstdc++.a(pure.o) (write)
/opt/devkitpro/devkitARM/lib/gcc/arm-none-eabi/4.7.1/../../../../arm-none-eabi/lib/libc.a(lib_a-toupper.o)
                              gme.o (toupper)
/opt/devkitpro/devkitARM/lib/gcc/arm-none-eabi/4.7.1/../../../../arm-none-eabi/lib/libc.a(lib_a-vfiprintf.o)
                              /opt/devkitpro/devkitARM/lib/gcc/arm-none-eabi/4.7.1/../../../../arm-none-eabi/lib/libc.a(lib_a-fiprintf.o) (_vfiprintf_r)
/opt/devkitpro/devkitARM/lib/gcc/arm-none-eabi/4.7.1/../../../../arm-none-eabi/lib/libc.a(lib_a-vsnprintf.o)
                              _console.o (vsnprintf)
/opt/devkitpro/devkitARM/lib/gcc/arm-none-eabi/4.7.1/../../../../arm-none-eabi/lib/libc.a(lib_a-wbuf.o)
                              /opt/devkitpro/devkitARM/lib/gcc/arm-none-eabi/4.7.1/../../../../arm-none-eabi/lib/libc.a(lib_a-putc.o) (__swbuf_r)
/opt/devkitpro/devkitARM/lib/gcc/arm-none-eabi/4.7.1/../../../../arm-none-eabi/lib/libc.a(lib_a-wcrtomb.o)
                              /opt/devkitpro/devkitARM/lib/gcc/arm-none-eabi/4.7.1/../../../../arm-none-eabi/lib/libc.a(lib_a-svfprintf.o) (_wcrtomb_r)
/opt/devkitpro/devkitARM/lib/gcc/arm-none-eabi/4.7.1/../../../../arm-none-eabi/lib/libc.a(lib_a-wcsrtombs.o)
                              /opt/devkitpro/devkitARM/lib/gcc/arm-none-eabi/4.7.1/../../../../arm-none-eabi/lib/libc.a(lib_a-svfprintf.o) (_wcsrtombs_r)
/opt/devkitpro/devkitARM/lib/gcc/arm-none-eabi/4.7.1/../../../../arm-none-eabi/lib/libc.a(lib_a-wctomb_r.o)
                              /opt/devkitpro/devkitARM/lib/gcc/arm-none-eabi/4.7.1/../../../../arm-none-eabi/lib/libc.a(lib_a-wcrtomb.o) (__wctomb)
/opt/devkitpro/devkitARM/lib/gcc/arm-none-eabi/4.7.1/../../../../arm-none-eabi/lib/libc.a(lib_a-wsetup.o)
                              /opt/devkitpro/devkitARM/lib/gcc/arm-none-eabi/4.7.1/../../../../arm-none-eabi/lib/libc.a(lib_a-fvwrite.o) (__swsetup_r)
/opt/devkitpro/devkitARM/lib/gcc/arm-none-eabi/4.7.1/../../../../arm-none-eabi/lib/libc.a(lib_a-dtoa.o)
                              /opt/devkitpro/devkitARM/lib/gcc/arm-none-eabi/4.7.1/../../../../arm-none-eabi/lib/libc.a(lib_a-svfprintf.o) (_dtoa_r)
/opt/devkitpro/devkitARM/lib/gcc/arm-none-eabi/4.7.1/../../../../arm-none-eabi/lib/libc.a(lib_a-fflush.o)
                              /opt/devkitpro/devkitARM/lib/gcc/arm-none-eabi/4.7.1/../../../../arm-none-eabi/lib/libc.a(lib_a-fvwrite.o) (_fflush_r)
/opt/devkitpro/devkitARM/lib/gcc/arm-none-eabi/4.7.1/../../../../arm-none-eabi/lib/libc.a(lib_a-findfp.o)
                              /opt/devkitpro/devkitARM/lib/gcc/arm-none-eabi/4.7.1/../../../../arm-none-eabi/lib/libc.a(lib_a-fputc.o) (__sinit)
/opt/devkitpro/devkitARM/lib/gcc/arm-none-eabi/4.7.1/../../../../arm-none-eabi/lib/libc.a(lib_a-fputwc.o)
                              /opt/devkitpro/devkitARM/lib/gcc/arm-none-eabi/4.7.1/../../../../arm-none-eabi/lib/libc.a(lib_a-vfiprintf.o) (_fputwc_r)
/opt/devkitpro/devkitARM/lib/gcc/arm-none-eabi/4.7.1/../../../../arm-none-eabi/lib/libc.a(lib_a-freer.o)
                              /opt/devkitpro/devkitARM/lib/gcc/arm-none-eabi/4.7.1/../../../../arm-none-eabi/lib/libc.a(lib_a-fvwrite.o) (_free_r)
/opt/devkitpro/devkitARM/lib/gcc/arm-none-eabi/4.7.1/../../../../arm-none-eabi/lib/libc.a(lib_a-fwalk.o)
                              /opt/devkitpro/devkitARM/lib/gcc/arm-none-eabi/4.7.1/../../../../arm-none-eabi/lib/libc.a(lib_a-findfp.o) (_fwalk)
/opt/devkitpro/devkitARM/lib/gcc/arm-none-eabi/4.7.1/../../../../arm-none-eabi/lib/libc.a(lib_a-gdtoa-gethex.o)
                              /opt/devkitpro/devkitARM/lib/gcc/arm-none-eabi/4.7.1/../../../../arm-none-eabi/lib/libc.a(lib_a-strtod.o) (__gethex)
/opt/devkitpro/devkitARM/lib/gcc/arm-none-eabi/4.7.1/../../../../arm-none-eabi/lib/libc.a(lib_a-gdtoa-hexnan.o)
                              /opt/devkitpro/devkitARM/lib/gcc/arm-none-eabi/4.7.1/../../../../arm-none-eabi/lib/libc.a(lib_a-strtod.o) (__hexnan)
/opt/devkitpro/devkitARM/lib/gcc/arm-none-eabi/4.7.1/../../../../arm-none-eabi/lib/libc.a(lib_a-iswspace.o)
                              /opt/devkitpro/devkitARM/lib/gcc/arm-none-eabi/4.7.1/../../../../arm-none-eabi/lib/libc.a(lib_a-svfscanf.o) (iswspace)
/opt/devkitpro/devkitARM/lib/gcc/arm-none-eabi/4.7.1/../../../../arm-none-eabi/lib/libc.a(lib_a-jp2uc.o)
                              /opt/devkitpro/devkitARM/lib/gcc/arm-none-eabi/4.7.1/../../../../arm-none-eabi/lib/libc.a(lib_a-iswspace.o) (_jp2uc)
/opt/devkitpro/devkitARM/lib/gcc/arm-none-eabi/4.7.1/../../../../arm-none-eabi/lib/libc.a(lib_a-locale.o)
                              /opt/devkitpro/devkitARM/lib/gcc/arm-none-eabi/4.7.1/../../../../arm-none-eabi/lib/libc.a(lib_a-svfprintf.o) (__locale_charset)
/opt/devkitpro/devkitARM/lib/gcc/arm-none-eabi/4.7.1/../../../../arm-none-eabi/lib/libc.a(lib_a-makebuf.o)
                              /opt/devkitpro/devkitARM/lib/gcc/arm-none-eabi/4.7.1/../../../../arm-none-eabi/lib/libc.a(lib_a-wsetup.o) (__smakebuf_r)
/opt/devkitpro/devkitARM/lib/gcc/arm-none-eabi/4.7.1/../../../../arm-none-eabi/lib/libc.a(lib_a-mbrtowc.o)
                              /opt/devkitpro/devkitARM/lib/gcc/arm-none-eabi/4.7.1/../../../../arm-none-eabi/lib/libc.a(lib_a-svfscanf.o) (_mbrtowc_r)
/opt/devkitpro/devkitARM/lib/gcc/arm-none-eabi/4.7.1/../../../../arm-none-eabi/lib/libc.a(lib_a-mbtowc_r.o)
                              /opt/devkitpro/devkitARM/lib/gcc/arm-none-eabi/4.7.1/../../../../arm-none-eabi/lib/libc.a(lib_a-locale.o) (__utf8_mbtowc)
/opt/devkitpro/devkitARM/lib/gcc/arm-none-eabi/4.7.1/../../../../arm-none-eabi/lib/libc.a(lib_a-mprec.o)
                              /opt/devkitpro/devkitARM/lib/gcc/arm-none-eabi/4.7.1/../../../../arm-none-eabi/lib/libc.a(lib_a-strtod.o) (_Balloc)
/opt/devkitpro/devkitARM/lib/gcc/arm-none-eabi/4.7.1/../../../../arm-none-eabi/lib/libc.a(lib_a-sccl.o)
                              /opt/devkitpro/devkitARM/lib/gcc/arm-none-eabi/4.7.1/../../../../arm-none-eabi/lib/libc.a(lib_a-svfscanf.o) (__sccl)
/opt/devkitpro/devkitARM/lib/gcc/arm-none-eabi/4.7.1/../../../../arm-none-eabi/lib/libc.a(lib_a-sf_nan.o)
                              /opt/devkitpro/devkitARM/lib/gcc/arm-none-eabi/4.7.1/../../../../arm-none-eabi/lib/libc.a(lib_a-strtod.o) (nanf)
/opt/devkitpro/devkitARM/lib/gcc/arm-none-eabi/4.7.1/../../../../arm-none-eabi/lib/libc.a(lib_a-strcasecmp.o)
                              /opt/devkitpro/devkitARM/lib/gcc/arm-none-eabi/4.7.1/../../../../arm-none-eabi/lib/libc.a(lib_a-locale.o) (strcasecmp)
/opt/devkitpro/devkitARM/lib/gcc/arm-none-eabi/4.7.1/../../../../arm-none-eabi/lib/libc.a(lib_a-strlcpy.o)
                              /opt/devkitpro/devkitARM/lib/gcc/arm-none-eabi/4.7.1/../../../../arm-none-eabi/lib/libc.a(lib_a-locale.o) (strlcpy)
/opt/devkitpro/devkitARM/lib/gcc/arm-none-eabi/4.7.1/../../../../arm-none-eabi/lib/libc.a(lib_a-strncasecmp.o)
                              /opt/devkitpro/devkitARM/lib/gcc/arm-none-eabi/4.7.1/../../../../arm-none-eabi/lib/libc.a(lib_a-locale.o) (strncasecmp)
/opt/devkitpro/devkitARM/lib/gcc/arm-none-eabi/4.7.1/../../../../arm-none-eabi/lib/libc.a(lib_a-strtoul.o)
                              /opt/devkitpro/devkitARM/lib/gcc/arm-none-eabi/4.7.1/../../../../arm-none-eabi/lib/libc.a(lib_a-svfscanf.o) (_strtoul_r)
/opt/devkitpro/devkitARM/lib/gcc/arm-none-eabi/4.7.1/../../../../arm-none-eabi/lib/libc.a(lib_a-strtoull_r.o)
                              /opt/devkitpro/devkitARM/lib/gcc/arm-none-eabi/4.7.1/../../../../arm-none-eabi/lib/libc.a(lib_a-svfscanf.o) (_strtoull_r)
/opt/devkitpro/devkitARM/lib/gcc/arm-none-eabi/4.7.1/../../../../arm-none-eabi/lib/libc.a(lib_a-svfiprintf.o)
                              /opt/devkitpro/devkitARM/lib/gcc/arm-none-eabi/4.7.1/../../../../arm-none-eabi/lib/libc.a(lib_a-svfprintf.o) (__ssprint_r)
/opt/devkitpro/devkitARM/lib/gcc/arm-none-eabi/4.7.1/../../../../arm-none-eabi/lib/libc.a(lib_a-svfiscanf.o)
                              /opt/devkitpro/devkitARM/lib/gcc/arm-none-eabi/4.7.1/../../../../arm-none-eabi/lib/libc.a(lib_a-svfscanf.o) (_sungetc_r)
/opt/devkitpro/devkitARM/lib/gcc/arm-none-eabi/4.7.1/../../../../arm-none-eabi/lib/libc.a(lib_a-ungetc.o)
                              /opt/devkitpro/devkitARM/lib/gcc/arm-none-eabi/4.7.1/../../../../arm-none-eabi/lib/libc.a(lib_a-svfiscanf.o) (__submore)
/opt/devkitpro/devkitARM/lib/gcc/arm-none-eabi/4.7.1/../../../../arm-none-eabi/lib/libc.a(lib_a-wcsnrtombs.o)
                              /opt/devkitpro/devkitARM/lib/gcc/arm-none-eabi/4.7.1/../../../../arm-none-eabi/lib/libc.a(lib_a-wcsrtombs.o) (_wcsnrtombs_r)
/opt/devkitpro/devkitARM/lib/gcc/arm-none-eabi/4.7.1/../../../../arm-none-eabi/lib/libc.a(lib_a-fclose.o)
                              /opt/devkitpro/devkitARM/lib/gcc/arm-none-eabi/4.7.1/../../../../arm-none-eabi/lib/libc.a(lib_a-findfp.o) (fclose)
/opt/devkitpro/devkitARM/lib/gcc/arm-none-eabi/4.7.1/../../../../arm-none-eabi/lib/libc.a(lib_a-getenv_r.o)
                              /opt/devkitpro/devkitARM/lib/gcc/arm-none-eabi/4.7.1/../../../../arm-none-eabi/lib/libc.a(lib_a-locale.o) (_getenv_r)
/opt/devkitpro/devkitARM/lib/gcc/arm-none-eabi/4.7.1/../../../../arm-none-eabi/lib/libc.a(lib_a-environ.o)
                              /opt/devkitpro/devkitARM/lib/gcc/arm-none-eabi/4.7.1/../../../../arm-none-eabi/lib/libc.a(lib_a-getenv_r.o) (environ)
/opt/devkitpro/devkitARM/lib/gcc/arm-none-eabi/4.7.1/../../../../arm-none-eabi/lib/libc.a(lib_a-envlock.o)
                              /opt/devkitpro/devkitARM/lib/gcc/arm-none-eabi/4.7.1/../../../../arm-none-eabi/lib/libc.a(lib_a-getenv_r.o) (__env_lock)
/opt/devkitpro/devkitARM/lib/gcc/arm-none-eabi/4.7.1/../../../../arm-none-eabi/lib/libsysbase.a(close.o)
                              /opt/devkitpro/devkitARM/lib/gcc/arm-none-eabi/4.7.1/../../../../arm-none-eabi/lib/libc.a(lib_a-stdio.o) (_close_r)
/opt/devkitpro/devkitARM/lib/gcc/arm-none-eabi/4.7.1/../../../../arm-none-eabi/lib/libsysbase.a(fstat.o)
                              /opt/devkitpro/devkitARM/lib/gcc/arm-none-eabi/4.7.1/../../../../arm-none-eabi/lib/libc.a(lib_a-makebuf.o) (_fstat_r)
/opt/devkitpro/devkitARM/lib/gcc/arm-none-eabi/4.7.1/../../../../arm-none-eabi/lib/libsysbase.a(getpid.o)
                              /opt/devkitpro/devkitARM/lib/gcc/arm-none-eabi/4.7.1/../../../../arm-none-eabi/lib/libc.a(lib_a-signal.o) (_getpid_r)
/opt/devkitpro/devkitARM/lib/gcc/arm-none-eabi/4.7.1/../../../../arm-none-eabi/lib/libsysbase.a(isatty.o)
                              /opt/devkitpro/devkitARM/lib/gcc/arm-none-eabi/4.7.1/../../../../arm-none-eabi/lib/libc.a(lib_a-makebuf.o) (_isatty_r)
/opt/devkitpro/devkitARM/lib/gcc/arm-none-eabi/4.7.1/../../../../arm-none-eabi/lib/libsysbase.a(kill.o)
                              /opt/devkitpro/devkitARM/lib/gcc/arm-none-eabi/4.7.1/../../../../arm-none-eabi/lib/libc.a(lib_a-signal.o) (_kill_r)
/opt/devkitpro/devkitARM/lib/gcc/arm-none-eabi/4.7.1/../../../../arm-none-eabi/lib/libsysbase.a(lseek.o)
                              /opt/devkitpro/devkitARM/lib/gcc/arm-none-eabi/4.7.1/../../../../arm-none-eabi/lib/libc.a(lib_a-stdio.o) (_lseek_r)
/opt/devkitpro/devkitARM/lib/gcc/arm-none-eabi/4.7.1/../../../../arm-none-eabi/lib/libsysbase.a(open.o)
                              /opt/devkitpro/devkitARM/lib/gcc/arm-none-eabi/4.7.1/../../../../arm-none-eabi/lib/libc.a(lib_a-sysopen.o) (_open_r)
/opt/devkitpro/devkitARM/lib/gcc/arm-none-eabi/4.7.1/../../../../arm-none-eabi/lib/libsysbase.a(read.o)
                              /opt/devkitpro/devkitARM/lib/gcc/arm-none-eabi/4.7.1/../../../../arm-none-eabi/lib/libc.a(lib_a-stdio.o) (_read_r)
/opt/devkitpro/devkitARM/lib/gcc/arm-none-eabi/4.7.1/../../../../arm-none-eabi/lib/libsysbase.a(sbrk.o)
                              /opt/devkitpro/devkitARM/lib/gcc/arm-none-eabi/4.7.1/../../../../arm-none-eabi/lib/libc.a(lib_a-mallocr.o) (_sbrk_r)
/opt/devkitpro/devkitARM/lib/gcc/arm-none-eabi/4.7.1/../../../../arm-none-eabi/lib/libsysbase.a(times.o)
                              /opt/devkitpro/libnds/lib/libnds9.a(initSystem.o) (punixTime)
/opt/devkitpro/devkitARM/lib/gcc/arm-none-eabi/4.7.1/../../../../arm-none-eabi/lib/libsysbase.a(write.o)
                              /opt/devkitpro/devkitARM/lib/gcc/arm-none-eabi/4.7.1/../../../../arm-none-eabi/lib/libc.a(lib_a-stdio.o) (_write_r)
/opt/devkitpro/devkitARM/lib/gcc/arm-none-eabi/4.7.1/../../../../arm-none-eabi/lib/libsysbase.a(_exit.o)
                              /opt/devkitpro/devkitARM/lib/gcc/arm-none-eabi/4.7.1/../../../../arm-none-eabi/lib/libc.a(lib_a-abort.o) (_exit)
/opt/devkitpro/devkitARM/lib/gcc/arm-none-eabi/4.7.1/../../../../arm-none-eabi/lib/libsysbase.a(malloc_vars.o)
                              /opt/devkitpro/devkitARM/lib/gcc/arm-none-eabi/4.7.1/../../../../arm-none-eabi/lib/ds_arm9_crt0.o (fake_heap_start)
/opt/devkitpro/devkitARM/lib/gcc/arm-none-eabi/4.7.1/../../../../arm-none-eabi/lib/libsysbase.a(build_argv.o)
                              /opt/devkitpro/devkitARM/lib/gcc/arm-none-eabi/4.7.1/../../../../arm-none-eabi/lib/ds_arm9_crt0.o (build_argv)
/opt/devkitpro/devkitARM/lib/gcc/arm-none-eabi/4.7.1/../../../../arm-none-eabi/lib/libsysbase.a(syscall_support.o)
                              /opt/devkitpro/libnds/lib/libnds9.a(initSystem.o) (__syscalls)
/opt/devkitpro/devkitARM/lib/gcc/arm-none-eabi/4.7.1/../../../../arm-none-eabi/lib/libsysbase.a(handle_manager.o)
                              /opt/devkitpro/devkitARM/lib/gcc/arm-none-eabi/4.7.1/../../../../arm-none-eabi/lib/libsysbase.a(close.o) (__release_handle)
/opt/devkitpro/devkitARM/lib/gcc/arm-none-eabi/4.7.1/../../../../arm-none-eabi/lib/libsysbase.a(iosupport.o)
                              /opt/devkitpro/devkitARM/lib/gcc/arm-none-eabi/4.7.1/../../../../arm-none-eabi/lib/libsysbase.a(open.o) (FindDevice)

Allocating common symbols
Common symbol       size              file

fifo_datamsg_func   0x40              /opt/devkitpro/libnds/lib/libnds9.a(fifosystem.o)
fifo_value32_data   0x40              /opt/devkitpro/libnds/lib/libnds9.a(fifosystem.o)
fifo_buffer         0x800             /opt/devkitpro/libnds/lib/libnds9.a(fifosystem.o)
fifo_value32_queue  0x40              /opt/devkitpro/libnds/lib/libnds9.a(fifosystem.o)
fifo_address_queue  0x40              /opt/devkitpro/libnds/lib/libnds9.a(fifosystem.o)
fifo_datamsg_data   0x40              /opt/devkitpro/libnds/lib/libnds9.a(fifosystem.o)
fifo_address_data   0x40              /opt/devkitpro/libnds/lib/libnds9.a(fifosystem.o)
fifo_value32_func   0x40              /opt/devkitpro/libnds/lib/libnds9.a(fifosystem.o)
punixTime           0x4               /opt/devkitpro/devkitARM/lib/gcc/arm-none-eabi/4.7.1/../../../../arm-none-eabi/lib/libsysbase.a(times.o)
__hexdig            0x100             /opt/devkitpro/devkitARM/lib/gcc/arm-none-eabi/4.7.1/../../../../arm-none-eabi/lib/libc.a(lib_a-gdtoa-gethex.o)
fifo_address_func   0x40              /opt/devkitpro/libnds/lib/libnds9.a(fifosystem.o)
fifo_data_queue     0x40              /opt/devkitpro/libnds/lib/libnds9.a(fifosystem.o)
__dsimode           0x1               /opt/devkitpro/libnds/lib/libnds9.a(initSystem.o)

Discarded input sections

 .group         0x00000000        0x8 Ay_Apu.o
 .group         0x00000000        0x8 Ay_Emu.o
 .group         0x00000000        0x8 Ay_Emu.o
 .group         0x00000000        0x8 Ay_Emu.o
 .group         0x00000000        0x8 Ay_Emu.o
 .group         0x00000000        0x8 Ay_Emu.o
 .group         0x00000000        0x8 Ay_Emu.o
 .group         0x00000000        0x8 Ay_Emu.o
 .group         0x00000000        0x8 Ay_Emu.o
 .group         0x00000000        0x8 Ay_Emu.o
 .text._ZNK10Blip_SynthILi12ELi1EE6offsetEiiP11Blip_Buffer
                0x00000000      0x174 Ay_Emu.o
 .group         0x00000000        0x8 Gbs_Emu.o
 .group         0x00000000        0x8 Gbs_Emu.o
 .group         0x00000000        0x8 Gbs_Emu.o
 .group         0x00000000        0x8 Gbs_Emu.o
 .group         0x00000000        0x8 Gbs_Emu.o
 .group         0x00000000        0x8 Gbs_Emu.o
 .group         0x00000000        0x8 Gbs_Emu.o
 .group         0x00000000        0x8 Gbs_Emu.o
 .text._ZN8Gme_File15clear_playlist_Ev
                0x00000000        0x4 Gbs_Emu.o
 .text._ZN9Music_Emu10set_bufferEP12Multi_Buffer
                0x00000000        0x4 Gbs_Emu.o
 .text._ZN11Classic_Emu10set_bufferEP12Multi_Buffer
                0x00000000       0x3c Gbs_Emu.o
 .group         0x00000000        0x8 Gb_Apu.o
 .group         0x00000000        0x8 Gb_Oscs.o
 .group         0x00000000        0x8 Gb_Oscs.o
 .text._ZNK10Blip_SynthILi12ELi1EE6offsetEiiP11Blip_Buffer
                0x00000000      0x174 Gb_Oscs.o
 .text._ZNK10Blip_SynthILi8ELi1EE6offsetEiiP11Blip_Buffer
                0x00000000       0xf8 Gb_Oscs.o
 .group         0x00000000        0x8 Hes_Apu.o
 .text._ZNK10Blip_SynthILi8ELi1EE6offsetEiiP11Blip_Buffer
                0x00000000       0xf8 Hes_Apu.o
 .group         0x00000000        0x8 Hes_Emu.o
 .group         0x00000000        0x8 Hes_Emu.o
 .group         0x00000000        0x8 Hes_Emu.o
 .group         0x00000000        0x8 Hes_Emu.o
 .group         0x00000000        0x8 Hes_Emu.o
 .group         0x00000000        0x8 Hes_Emu.o
 .group         0x00000000        0x8 Hes_Emu.o
 .group         0x00000000        0x8 Hes_Emu.o
 .text._ZN8Gme_File15clear_playlist_Ev
                0x00000000        0x4 Hes_Emu.o
 .text._ZN9Music_Emu10set_bufferEP12Multi_Buffer
                0x00000000        0x4 Hes_Emu.o
 .text._ZN11Classic_Emu10set_bufferEP12Multi_Buffer
                0x00000000       0x3c Hes_Emu.o
 .group         0x00000000        0x8 Kss_Emu.o
 .group         0x00000000        0x8 Kss_Emu.o
 .group         0x00000000        0x8 Kss_Emu.o
 .group         0x00000000        0x8 Kss_Emu.o
 .group         0x00000000        0x8 Kss_Emu.o
 .group         0x00000000        0x8 Kss_Emu.o
 .group         0x00000000        0x8 Kss_Emu.o
 .group         0x00000000        0x8 Kss_Emu.o
 .text._ZN8Gme_File15clear_playlist_Ev
                0x00000000        0x4 Kss_Emu.o
 .text._ZN9Music_Emu10set_bufferEP12Multi_Buffer
                0x00000000        0x4 Kss_Emu.o
 .text._ZN11Classic_Emu10set_bufferEP12Multi_Buffer
                0x00000000       0x3c Kss_Emu.o
 .group         0x00000000        0x8 Kss_Scc_Apu.o
 .text._ZNK10Blip_SynthILi8ELi1EE6offsetEiiP11Blip_Buffer
                0x00000000       0xf8 Kss_Scc_Apu.o
 .group         0x00000000        0x8 Nes_Apu.o
 .group         0x00000000        0x8 Nes_Apu.o
 .text._ZNK10Blip_SynthILi12ELi1EE6offsetEiiP11Blip_Buffer
                0x00000000      0x174 Nes_Apu.o
 .text._ZNK10Blip_SynthILi8ELi1EE6offsetEiiP11Blip_Buffer
                0x00000000       0xf8 Nes_Apu.o
 .group         0x00000000        0x8 Nes_Fme7_Apu.o
 .text._ZNK10Blip_SynthILi12ELi1EE6offsetEiiP11Blip_Buffer
                0x00000000      0x174 Nes_Fme7_Apu.o
 .group         0x00000000        0x8 Nes_Oscs.o
 .group         0x00000000        0x8 Nes_Oscs.o
 .text._ZNK10Blip_SynthILi12ELi1EE6offsetEiiP11Blip_Buffer
                0x00000000      0x174 Nes_Oscs.o
 .text._ZNK10Blip_SynthILi8ELi1EE6offsetEiiP11Blip_Buffer
                0x00000000       0xf8 Nes_Oscs.o
 .group         0x00000000        0x8 Nes_Vrc6_Apu.o
 .group         0x00000000        0x8 Nes_Vrc6_Apu.o
 .text._ZNK10Blip_SynthILi12ELi1EE6offsetEiiP11Blip_Buffer
                0x00000000      0x174 Nes_Vrc6_Apu.o
 .text._ZNK10Blip_SynthILi8ELi1EE6offsetEiiP11Blip_Buffer
                0x00000000       0xf8 Nes_Vrc6_Apu.o
 .group         0x00000000        0x8 Nsf_Emu.o
 .group         0x00000000        0x8 Nsf_Emu.o
 .group         0x00000000        0x8 Nsf_Emu.o
 .group         0x00000000        0x8 Nsf_Emu.o
 .group         0x00000000        0x8 Nsf_Emu.o
 .group         0x00000000        0x8 Nsf_Emu.o
 .group         0x00000000        0x8 Nsf_Emu.o
 .group         0x00000000        0x8 Nsf_Emu.o
 .text._ZN8Gme_File15clear_playlist_Ev
                0x00000000        0x4 Nsf_Emu.o
 .text._ZN9Music_Emu10set_bufferEP12Multi_Buffer
                0x00000000        0x4 Nsf_Emu.o
 .text._ZN11Classic_Emu10set_bufferEP12Multi_Buffer
                0x00000000       0x3c Nsf_Emu.o
 .group         0x00000000        0x8 Sap_Apu.o
 .group         0x00000000        0x8 Sap_Apu.o
 .text._ZNK10Blip_SynthILi12ELi1EE6offsetEiiP11Blip_Buffer
                0x00000000      0x174 Sap_Apu.o
 .group         0x00000000        0x8 Sap_Emu.o
 .group         0x00000000        0x8 Sap_Emu.o
 .group         0x00000000        0x8 Sap_Emu.o
 .group         0x00000000        0x8 Sap_Emu.o
 .group         0x00000000        0x8 Sap_Emu.o
 .group         0x00000000        0x8 Sap_Emu.o
 .group         0x00000000        0x8 Sap_Emu.o
 .group         0x00000000        0x8 Sap_Emu.o
 .text._ZN8Gme_File15clear_playlist_Ev
                0x00000000        0x4 Sap_Emu.o
 .text._ZN9Music_Emu10set_bufferEP12Multi_Buffer
                0x00000000        0x4 Sap_Emu.o
 .text._ZN11Classic_Emu10set_bufferEP12Multi_Buffer
                0x00000000       0x3c Sap_Emu.o
 .group         0x00000000        0x8 Sms_Apu.o
 .group         0x00000000        0x8 Sms_Apu.o
 .text._ZNK10Blip_SynthILi12ELi1EE6offsetEiiP11Blip_Buffer
                0x00000000      0x174 Sms_Apu.o
 .text._ZNK10Blip_SynthILi8ELi1EE6offsetEiiP11Blip_Buffer
                0x00000000       0xf8 Sms_Apu.o
 .group         0x00000000        0x8 Classic_Emu.o
 .group         0x00000000        0x8 Classic_Emu.o
 .text._ZN8Gme_File15clear_playlist_Ev
                0x00000000        0x4 Classic_Emu.o
 .text._ZN11Classic_Emu10set_bufferEP12Multi_Buffer
                0x00000000       0x3c Classic_Emu.o
 .group         0x00000000        0x8 Data_Reader.o
 .group         0x00000000        0x8 Data_Reader.o
 .group         0x00000000        0x8 Data_Reader.o
 .group         0x00000000        0x8 Data_Reader.o
 .group         0x00000000        0x8 Data_Reader.o
 .group         0x00000000        0x8 Data_Reader.o
 .group         0x00000000        0x8 Data_Reader.o
 .group         0x00000000        0x8 Data_Reader.o
 .group         0x00000000        0x8 Data_Reader.o
 .group         0x00000000        0x8 Data_Reader.o
 .group         0x00000000        0x8 Data_Reader.o
 .group         0x00000000        0x8 Data_Reader.o
 .group         0x00000000        0x8 Gme_File.o
 .text._ZN8Gme_File15clear_playlist_Ev
                0x00000000        0x4 Gme_File.o
 .group         0x00000000        0x8 Multi_Buffer.o
 .group         0x00000000        0x8 Multi_Buffer.o
 .group         0x00000000        0x8 Multi_Buffer.o
 .group         0x00000000        0x8 Multi_Buffer.o
 .group         0x00000000        0x8 Multi_Buffer.o
 .group         0x00000000        0x8 Multi_Buffer.o
 .group         0x00000000        0x8 Multi_Buffer.o
 .group         0x00000000        0x8 Multi_Buffer.o
 .group         0x00000000        0x8 Multi_Buffer.o
 .group         0x00000000        0x8 Multi_Buffer.o
 .group         0x00000000        0x8 Multi_Buffer.o
 .group         0x00000000        0x8 Multi_Buffer.o
 .group         0x00000000        0x8 Multi_Buffer.o
 .group         0x00000000        0x8 Multi_Buffer.o
 .group         0x00000000        0x8 Multi_Buffer.o
 .group         0x00000000        0x8 Multi_Buffer.o
 .group         0x00000000        0x8 Multi_Buffer.o
 .group         0x00000000        0x8 Multi_Buffer.o
 .group         0x00000000        0x8 Multi_Buffer.o
 .group         0x00000000        0x8 Multi_Buffer.o
 .group         0x00000000        0x8 Multi_Buffer.o
 .group         0x00000000        0x8 Multi_Buffer.o
 .group         0x00000000        0x8 Music_Emu.o
 .group         0x00000000        0x8 Music_Emu.o
 .group         0x00000000        0x8 Music_Emu.o
 .group         0x00000000        0x8 Music_Emu.o
 .group         0x00000000        0x8 Music_Emu.o
 .text._ZN8Gme_File15clear_playlist_Ev
                0x00000000        0x4 Music_Emu.o
 .text._ZN9Music_Emu10set_bufferEP12Multi_Buffer
                0x00000000        0x4 Music_Emu.o
 .group         0x00000000        0x8 Dual_Resampler.o
 .group         0x00000000        0x8 Gym_Emu.o
 .group         0x00000000        0x8 Gym_Emu.o
 .group         0x00000000        0x8 Gym_Emu.o
 .group         0x00000000        0x8 Gym_Emu.o
 .group         0x00000000        0x8 Gym_Emu.o
 .group         0x00000000        0x8 Gym_Emu.o
 .group         0x00000000        0x8 Gym_Emu.o
 .group         0x00000000        0x8 Gym_Emu.o
 .text._ZN8Gme_File15clear_playlist_Ev
                0x00000000        0x4 Gym_Emu.o
 .text._ZN9Music_Emu10set_bufferEP12Multi_Buffer
                0x00000000        0x4 Gym_Emu.o
 .text._ZN9Music_Emu14set_equalizer_ERK15gme_equalizer_t
                0x00000000        0x4 Gym_Emu.o
 .group         0x00000000        0x8 Nsfe_Emu.o
 .group         0x00000000        0x8 Nsfe_Emu.o
 .group         0x00000000        0x8 Nsfe_Emu.o
 .group         0x00000000        0x8 Nsfe_Emu.o
 .group         0x00000000        0x8 Nsfe_Emu.o
 .group         0x00000000        0x8 Nsfe_Emu.o
 .group         0x00000000        0x8 Nsfe_Emu.o
 .group         0x00000000        0x8 Nsfe_Emu.o
 .text._ZN8Gme_File15clear_playlist_Ev
                0x00000000        0x4 Nsfe_Emu.o
 .text._ZN9Music_Emu10set_bufferEP12Multi_Buffer
                0x00000000        0x4 Nsfe_Emu.o
 .text._ZN11Classic_Emu10set_bufferEP12Multi_Buffer
                0x00000000       0x3c Nsfe_Emu.o
 .group         0x00000000        0x8 Spc_Emu.o
 .group         0x00000000        0x8 Spc_Emu.o
 .group         0x00000000        0x8 Spc_Emu.o
 .group         0x00000000        0x8 Spc_Emu.o
 .group         0x00000000        0x8 Spc_Emu.o
 .group         0x00000000        0x8 Spc_Emu.o
 .group         0x00000000        0x8 Spc_Emu.o
 .group         0x00000000        0x8 Spc_Emu.o
 .group         0x00000000        0x8 Spc_Emu.o
 .text._ZN8Gme_File15clear_playlist_Ev
                0x00000000        0x4 Spc_Emu.o
 .text._ZN9Music_Emu10set_bufferEP12Multi_Buffer
                0x00000000        0x4 Spc_Emu.o
 .text._ZN9Music_Emu14set_equalizer_ERK15gme_equalizer_t
                0x00000000        0x4 Spc_Emu.o
 .group         0x00000000        0x8 Vgm_Emu.o
 .group         0x00000000        0x8 Vgm_Emu.o
 .group         0x00000000        0x8 Vgm_Emu.o
 .group         0x00000000        0x8 Vgm_Emu.o
 .group         0x00000000        0x8 Vgm_Emu.o
 .group         0x00000000        0x8 Vgm_Emu.o
 .group         0x00000000        0x8 Vgm_Emu.o
 .group         0x00000000        0x8 Vgm_Emu.o
 .text._ZN8Gme_File15clear_playlist_Ev
                0x00000000        0x4 Vgm_Emu.o
 .text._ZN9Music_Emu10set_bufferEP12Multi_Buffer
                0x00000000        0x4 Vgm_Emu.o
 .text._ZN11Classic_Emu10set_bufferEP12Multi_Buffer
                0x00000000       0x3c Vgm_Emu.o
 .group         0x00000000        0x8 Vgm_Emu_Impl.o
 .group         0x00000000        0x8 Vgm_Emu_Impl.o
 .group         0x00000000        0xc Vgm_Emu_Impl.o
 .group         0x00000000        0x8 Vgm_Emu_Impl.o
 .text._ZN8Gme_File15clear_playlist_Ev
                0x00000000        0x4 Vgm_Emu_Impl.o
 .text._ZN11Classic_Emu10set_bufferEP12Multi_Buffer
                0x00000000       0x3c Vgm_Emu_Impl.o
 .group         0x00000000        0x8 Ym2612_Emu.o
 .group         0x00000000        0x8 Ym2612_Emu.o
 .group         0x00000000        0x8 Ym2612_Emu.o
 .group         0x00000000        0x8 Ym2612_Emu.o
 .group         0x00000000        0x8 Ym2612_Emu.o
 .group         0x00000000        0x8 Ym2612_Emu.o
 .group         0x00000000        0x8 Ym2612_Emu.o
 .group         0x00000000        0x8 Ym2612_Emu.o

Memory Configuration

Name             Origin             Length             Attributes
rom              0x08000000         0x02000000
ewram            0x02000000         0x003ff000
dtcm             0x0b000000         0x00004000
vectors          0x01ff8000         0x00000100
itcm             0x01ff8100         0x00007f00
*default*        0x00000000         0xffffffff

Linker script and memory map

                0x01ff8000                __vectors_start = ORIGIN (vectors)
                0x01ff8100                __itcm_start = ORIGIN (itcm)
                0x023ff000                __ewram_end = (ORIGIN (ewram) + 0x3ff000)
                0x023ff000                __eheap_end = (ORIGIN (ewram) + 0x3ff000)
                0x0b000000                __dtcm_start = ORIGIN (dtcm)
                0x0b004000                __dtcm_top = (ORIGIN (dtcm) + 0x4000)
                0x0b003ff8                __irq_flags = (__dtcm_top - 0x8)
                0x0b003ffc                __irq_vector = (__dtcm_top - 0x4)
                0x0b003f00                __sp_svc = (__dtcm_top - 0x100)
                0x0b003e00                __sp_irq = (__sp_svc - 0x100)
                0x0b003d00                __sp_usr = (__sp_irq - 0x100)

.EOVR_Header    0x00000000       0x40 load address 0x020783c8
                0x00000000                Image_EOVR_Header_Base = .
 ProgramID.o(.OverlayHeader)
 .OverlayHeader
                0x00000000       0x40 ProgramID.o
                0x00000000                OverlayHeader_ID_CanNotAccess
                0x00000040                . = ALIGN (0x4)

.EOVR_Romeo2NCD
                0x00000000    0x2954c load address 0x02078408
                0x00000000                Image_EOVR_Romeo2NCD_Base = .
 romeo2_ncd.o(.rodata .text)
 .text          0x00000000        0x0 romeo2_ncd.o
 .rodata        0x00000000    0x2954c romeo2_ncd.o
                0x00000000                romeo2_ncd
                0x0002954c                . = ALIGN (0x4)

.EOVR_AfterSystem
                0x023db200    0x19e50 load address 0x020a1954
                0x023db200                Image_EOVR_AfterSystem_Base = .
 *(.OVR_AfterSystem)
 .OVR_AfterSystem
                0x023db200       0x18 shell_SystemAfter.o
                0x023db215                isSwapFilenameUnicode_isEqual
 .OVR_AfterSystem
                0x023db218      0x10c dll.o
                0x023db21c                DLLList
 .OVR_AfterSystem
                0x023db324       0x60 dllsound.o
                0x023db328                ID3Tag
 .OVR_AfterSystem
                0x023db384      0x640 playlist.o
                0x023db5ac                RequestRefreshPlayCursorIndex
 .OVR_AfterSystem
                0x023db9c4        0xc BMPReader.o
 .OVR_AfterSystem
                0x023db9d0        0xc component.o
 .OVR_AfterSystem
                0x023db9dc        0x2 ErrorDialog.o
 *fill*         0x023db9de        0x2 00
 .OVR_AfterSystem
                0x023db9e0       0x10 particle.o
 .OVR_AfterSystem
                0x023db9f0       0x44 rect.o
 .OVR_AfterSystem
                0x023dba34      0x3d0 skin.o
                0x023dbb38                ColorTable
                0x023dbc7c                Skin_OwnerDrawText
                0x023dbc84                Skin_Calender
 .OVR_AfterSystem
                0x023dbe04       0x24 splash.o
 .OVR_AfterSystem
                0x023dbe28        0x4 VideoResume.o
                0x023dbe28                pVideoResume
 .OVR_AfterSystem
                0x023dbe2c       0x18 extmem.o
                0x023dbe2c                extmem
 .OVR_AfterSystem
                0x023dbe44      0x504 BootROM.o
 .OVR_AfterSystem
                0x023dc348        0x8 extlink.o
 .OVR_AfterSystem
                0x023dc350        0x4 launchstate.o
                0x023dc350                pLaunchState
 .OVR_AfterSystem
                0x023dc354      0xe94 procstate.o
                0x023dc354                ProcState
                0x023dd1dc                ProcState_RequestSave
 .OVR_AfterSystem
                0x023dd1e8      0x214 resume.o
 .OVR_AfterSystem
                0x023dd3fc      0x128 sndeff.o
 .OVR_AfterSystem
                0x023dd524       0xb4 datetime.o
                0x023dd5d0                Calendar_CurrentMonth
                0x023dd5d4                Calendar_CurrentYear
 .OVR_AfterSystem
                0x023dd5d8       0x40 md5c.o
 .OVR_AfterSystem
                0x023dd618       0x14 euc2unicode.o
                0x023dd618                EUC2Unicode
 .OVR_AfterSystem
                0x023dd62c       0x1c lang.o
 .OVR_AfterSystem
                0x023dd648       0x54 inifile.o
                0x023dd648                GlobalINI
 .OVR_AfterSystem
                0x023dd69c      0x4dc main.o
                0x023dd6ad                isExistsROMEO2
                0x023dd738                pCglFontDefault
                0x023dd758                RelationalFilePathUnicode
                0x023dd958                RelationalFileNameUnicode
                0x023ddb58                RelationalFilePos
                0x023ddb5c                NextProc
                0x023ddb5f                LongPressRequest
                0x023ddb6c                GBABUS_OwnerARM7
                0x023ddb6d                WaitKeyRelease
                0x023ddb70                ProcFadeEffect
                0x023ddb71                isCustomFromFileList
                0x023ddb72                isExistsTextEditor
                0x023ddb73                ManualTextEncode_OverrideFlag
                0x023ddb74                ManualTextEncode
 .OVR_AfterSystem
                0x023ddb78        0x1 OverlayManager.o
 *fill*         0x023ddb79        0x3 00
 .OVR_AfterSystem
                0x023ddb7c       0x28 shell.o
 cglfont.o(.rodata .text)
 .text          0x023ddba4      0x504 cglfont.o
                0x023ddba4                CglFont::CglFont(TMM*, unsigned char const*, int)
                0x023ddba4                CglFont::CglFont(TMM*, unsigned char const*, int)
                0x023ddd44                CglFont::~CglFont()
                0x023ddd44                CglFont::~CglFont()
                0x023dddb0                CglFont::GetBulkData(unsigned short) const
                0x023dddc8                DrawFont1bppUnder8pix(unsigned short const*, unsigned short*, unsigned int, unsigned int)
                0x023dde6c                DrawFont1bppUnder12pix(unsigned short const*, unsigned short*, unsigned int, unsigned int)
                0x023ddeec                DrawFont1bppUnder16pix(unsigned short const*, unsigned short*, unsigned int, unsigned int)
                0x023ddf8c                CglFont::DrawFont(CglCanvas*, int, int, unsigned short) const
                0x023de01c                CglFont::GetFontWidth(unsigned short) const
                0x023de088                CglFont::SetTextColor(unsigned short)
                0x023de090                CglFont::isExists(unsigned short) const
 .rodata        0x023de0a8       0x14 cglfont.o
 cglstream.o(.rodata .text)
 .text          0x023de0bc      0x1f0 cglstream.o
                0x023de0bc                CglStream::CglStream(unsigned char const*, int)
                0x023de0bc                CglStream::CglStream(unsigned char const*, int)
                0x023de0cc                CglStream::~CglStream()
                0x023de0cc                CglStream::~CglStream()
                0x023de0d0                CglStream::GetOffset() const
                0x023de0d8                CglStream::SetOffset(int)
                0x023de0ec                CglStream::GetSize() const
                0x023de0f4                CglStream::eof() const
                0x023de108                CglStream::Readu8()
                0x023de12c                CglStream::Readu16()
                0x023de16c                CglStream::Readu32()
                0x023de1e0                CglStream_ReadBuffer_fastcopy(void const*, void*, unsigned int)
                0x023de224                CglStream::ReadBuffer(void*, int)
 cgltgf.o(.rodata .text)
 .text          0x023de2ac      0x518 cgltgf.o
                0x023de2ac                CglTGF::CglTGF(TMM*, unsigned char const*, int)
                0x023de2ac                CglTGF::CglTGF(TMM*, unsigned char const*, int)
                0x023de3cc                CglTGF::~CglTGF()
                0x023de3cc                CglTGF::~CglTGF()
                0x023de438                CglTGF::GetDataSize() const
                0x023de440                CglTGF::GetData() const
                0x023de448                CglTGF::GetWidth() const
                0x023de450                CglTGF::GetHeight() const
                0x023de458                CglTGF_BitBlt_Body(unsigned short const*, unsigned short const*, unsigned int)
                0x023de644                CglTGF::BitBlt(CglCanvas*, int, int) const
                0x023de6d8                CglTGF::BitBltLimitY(CglCanvas*, int, int, int, int) const
 .rodata        0x023de7c4       0x10 cgltgf.o
 cstream.o(.rodata .text)
 .text          0x023de7d4      0x2f4 cstream.o
                0x023de7d4                CStream::~CStream()
                0x023de7d4                CStream::~CStream()
                0x023de7e4                CStream::GetOffset() const
                0x023de7ec                CStream::SetOffset(int)
                0x023de800                CStream::GetSize() const
                0x023de808                CStream::OverrideSize(int)
                0x023de810                CStream::eof() const
                0x023de828                CStream::Readu16()
                0x023de860                CStream::Readu32()
                0x023de8c0                CStream::ReadBuffer16bit(void*, int)
                0x023de8d4                CStream::ReadSkip(int)
                0x023de900                CStream::~CStream()
                0x023de920                CStream::Readu8()
                0x023de954                CStream::ReadBuffer(void*, int)
                0x023de9dc                CStream::ReadBuffer32bit(void*, int)
                0x023deaac                CStream::CStream(unsigned char const*, int)
                0x023deaac                CStream::CStream(unsigned char const*, int)
 .rodata        0x023deac8       0x40 cstream.o
                0x023deac8                vtable for CStream
 cstream_fs.o(.rodata .text)
 .text          0x023deb08      0x34c cstream_fs.o
                0x023deb08                CStreamFS::GetOffset() const
                0x023deb10                CStreamFS::GetSize() const
                0x023deb18                CStreamFS::OverrideSize(int)
                0x023deb20                CStreamFS::eof() const
                0x023deb38                CStreamFS::ReadBuffer32bit(void*, int)
                0x023deb4c                CStreamFS::SetOffset(int)
                0x023deb6c                CStreamFS::~CStreamFS()
                0x023deb6c                CStreamFS::~CStreamFS()
                0x023deb8c                CStreamFS::~CStreamFS()
                0x023deba8                CStreamFS::ReadSkip(int)
                0x023dec04                CStreamFS::ReadBuffer16bit(void*, int)
                0x023dec88                CStreamFS::ReadBuffer(void*, int)
                0x023ded0c                CStreamFS::Readu32()
                0x023ded5c                CStreamFS::Readu16()
                0x023dedac                CStreamFS::Readu8()
                0x023dee00                CStreamFS::CStreamFS(FAT_FILE*)
                0x023dee00                CStreamFS::CStreamFS(FAT_FILE*)
 *fill*         0x023dee54        0x4 00
 .rodata        0x023dee58       0x40 cstream_fs.o
                0x023dee58                vtable for CStreamFS
 shell_SystemAfter.o(.rodata .text)
 .text          0x023dee98      0xaf8 shell_SystemAfter.o
                0x023dee98                Shell_FAT_fopen_FullPath(unsigned short const*)
                0x023deed4                Shell_FAT_fopen_Split(unsigned short const*, unsigned short const*)
                0x023def58                Shell_FAT_fopen_LanguageInit()
                0x023df074                Shell_isEUCmode()
                0x023df0a4                Shell_GetCodePageStr()
                0x023df0b0                Shell_FAT_fopen_Language_chrglyph()
                0x023df134                Shell_FAT_fopen_Language_messages()
                0x023df194                Shell_FAT_fopen_TextFont(char const*)
                0x023df214                Shell_FAT_fopen_CodepageToUnicodeTable()
                0x023df278                Shell_FAT_fopen_VariableCodepageToUnicodeTable(unsigned int)
                0x023df2d4                Shell_FAT_fopen_EUCToUnicodeTable()
                0x023df334                Shell_Init_SwapFile()
                0x023df3b0                Shell_FAT_fopen_SwapFile(unsigned int)
                0x023df470                Shell_FAT_fclose_SwapFile()
                0x023df4b4                Shell_Init_SwapFile_PrgJpeg()
                0x023df530                Shell_FAT_fopen_SwapFile_PrgJpeg(unsigned int)
                0x023df5f0                Shell_FAT_fclose_SwapFile_PrgJpeg()
                0x023df634                Shell_CreateNewFileUnicode(unsigned short const*, unsigned short const*)
                0x023df8e0                isSwapFilenameUnicode(unsigned short const*, unsigned short const*)
 .rodata        0x023df990       0x74 shell_SystemAfter.o
 dll.o(.rodata .text)
 .text          0x023dfa04      0xe44 dll.o
                0x023dfdf8                DLL_FreeLibrary(TPluginBody*, bool)
                0x023dfed8                DLL_LoadLibrary(TMM*, TPluginBody*, TPlugin_StdLib const*, void*, int)
                0x023e0290                DLLList_Free()
                0x023e02e0                DLLList_isSupportFormatFromExt(char const*)
                0x023e03cc                DLLList_isSupportFormatExt32(unsigned int)
                0x023e0494                DLLList_isSupportFormatFromFilenameAlias(char const*)
                0x023e04e4                DLLList_isSupportFormatFromFilenameUnicode(unsigned short const*)
                0x023e0534                DLLList_GetPluginFilename(char const*, char*)
                0x023e06b4                DLLList_LoadPlugin(EPluginType, char const*)
                0x023e07d8                DLLList_FreePlugin(TPluginBody*)
 .rodata        0x023e0848      0x10c dll.o
 dllsound.o(.rodata .text)
 .text          0x023e0954     0x2de0 dllsound.o
                0x023e09d0                DLLSound_Open_internal_gme(char const*)
                0x023e0bc0                DLLSound_Close(bool)
                0x023e0ea0                DLLSound_isOpened()
                0x023e1cd4                DLLSound_isComplexDecoder()
                0x023e1d50                DLLSound_Open(char const*)
                0x023e3120                DLLSound_UpdateLoop(bool)
                0x023e31a4                DLLSound_WaitForStreamPCM()
                0x023e324c                DLLSound_SetVolume64(unsigned int)
                0x023e3250                DLLSound_GetSampleRate()
                0x023e32dc                DLLSound_SetFirstDecode()
                0x023e32f0                DLLSound_GetFirstDecode()
                0x023e3308                DLLSound_GetPosMax()
                0x023e3394                DLLSound_GetPosOffset()
                0x023e3420                DLLSound_SetPosOffset(int)
                0x023e34b8                DLLSound_GetTimeSec(unsigned int*, unsigned int*)
                0x023e368c                DLLSound_SeekPer(int)
 .rodata        0x023e3734       0x74 dllsound.o
 playlist.o(.rodata .text)
 .text          0x023e37a8     0x2de0 playlist.o
                0x023e5410                PlayList_UpdateResume(unsigned int)
                0x023e5490                PlayList_Stop(bool)
                0x023e55c8                PlayList_Free()
                0x023e56e0                PlayList_Repeat()
                0x023e5708                PlayList_Prev()
                0x023e5744                PlayList_PrevShuffle()
                0x023e57fc                PlayList_Next()
                0x023e5840                PlayList_NextShuffle()
                0x023e58fc                PlayList_isOpened()
                0x023e5914                PlayList_GetFilesCount()
                0x023e5924                PlayList_GetCurrentIndex()
                0x023e5934                PlayList_GetListEndFlag()
                0x023e59c4                PlayList_GetCurrentFilename()
                0x023e59e0                PlayList_GetCurrentPath()
                0x023e59fc                PlayList_ConvertM3U(unsigned short const*, unsigned short const*)
                0x023e5e6c                PlayList_MakeFolder(bool, unsigned short const*)
                0x023e607c                PlayList_MakeBlank()
                0x023e60fc                PlayList_DeleteListItem(unsigned short const*)
                0x023e617c                PlayList_Start(bool, unsigned short const*, unsigned short const*)
                0x023e64a8                PlayList_GetPause()
                0x023e64b8                PlayList_SetPause(bool)
                0x023e64f8                PlayList_TogglePause()
                0x023e6548                PlayList_SetError(bool)
 .rodata        0x023e6588      0x128 playlist.o
 plug_lyric.o(.rodata .text)
 .text          0x023e66b0      0xa4c plug_lyric.o
                0x023e6aa8                PlugLRC_Free()
                0x023e6f38                PlugLRC_Start(char const*)
                0x023e6fa8                PlugLRC_isOpened()
                0x023e6fc0                PlugLRC_SetOffset(int)
                0x023e6fd0                PlugLRC_GetOffset()
                0x023e6fe0                PlugLRC_GetTitle()
                0x023e6ff8                PlugLRC_GetArtist()
                0x023e7010                PlugLRC_GetAlbum()
                0x023e7028                PlugLRC_GetAuthor()
                0x023e7040                PlugLRC_GetPrevLyric()
                0x023e7064                PlugLRC_GetCurLyric(int)
                0x023e70d8                PlugLRC_GetNextLyric()
 .rodata        0x023e70fc       0x3c plug_lyric.o
 fpga_helper.o(.rodata .text)
 .text          0x023e7138      0x3ac fpga_helper.o
                0x023e7138                ds_fpga_bus_init()
                0x023e7174                FPGA_BusOwnerARM7()
                0x023e7194                FPGA_BusOwnerARM9()
                0x023e71b0                FPGA_isExistCartridge()
                0x023e71f0                FPGA_CheckBitStreamFormat(void*, unsigned int)
                0x023e7268                FPGA_Start(void*, unsigned int)
                0x023e74c8                FPGA_End()
 BMPReader.o(.rodata .text)
 .text          0x023e74e4      0x6f4 BMPReader.o
                0x023e7544                BMPReader_Start(FAT_FILE*)
                0x023e790c                BMPReader_Free()
                0x023e7994                BMPReader_GetBitmap32(unsigned int, unsigned int*)
                0x023e7bb0                BMPReader_GetWidth()
                0x023e7bc4                BMPReader_GetHeight()
 .rodata        0x023e7bd8       0x20 BMPReader.o
 cfont.o(.rodata .text)
 .text          0x023e7bf8      0x3a4 cfont.o
                0x023e7bf8                CFont::CFont(EBitmapMode, CglB15*, CglTGF*, bool)
                0x023e7bf8                CFont::CFont(EBitmapMode, CglB15*, CglTGF*, bool)
                0x023e7d3c                CFont::~CFont()
                0x023e7d3c                CFont::~CFont()
                0x023e7d40                CFont::DrawChar(CglCanvas*, unsigned int, unsigned int, char)
                0x023e7e24                CFont::DrawText(CglCanvas*, unsigned int, unsigned int, char const*)
                0x023e7eb8                CFont::GetTextWidth(char const*)
                0x023e7f74                CFont::GetTextHeight()
 component.o(.rodata .text)
 .text          0x023e7f9c     0x1138 component.o
                0x023e8100                Component_SetFont(CglFont*)
                0x023e8110                Component_BalloonShow(char const*, unsigned short const*, int, int)
                0x023e8124                ComponentLabel_Init(TComponentLabel*, CglCanvas*)
                0x023e819c                ComponentLabel_Draw(TComponentLabel*)
                0x023e83c8                ComponentLabel_GetWidth(TComponentLabel*)
                0x023e84c0                ComponentLabel_GetIndexFromPos(TComponentLabel*, int, int)
                0x023e8538                ComponentLabel_MouseUp(TComponentLabel*, int, int)
                0x023e8584                ComponentCheck_Init(TComponentCheck*, CglCanvas*)
                0x023e8610                ComponentCheck_Draw(TComponentCheck*)
                0x023e88c0                ComponentCheck_GetWidth(TComponentCheck*)
                0x023e898c                ComponentCheck_MouseDown(TComponentCheck*, int, int)
                0x023e8b38                ComponentCheck_MouseUp(TComponentCheck*, int, int)
                0x023e8cdc                ComponentButton_Init(TComponentButton*, CglCanvas*)
                0x023e8d64                ComponentButton_Draw(TComponentButton*)
                0x023e9010                ComponentButton_GetIndexFromPos(TComponentButton*, int, int)
                0x023e9088                ComponentButton_MouseUp(TComponentButton*, int, int)
 ErrorDialog.o(.rodata .text)
 .text          0x023e90d4      0x3a0 ErrorDialog.o
                0x023e90d4                ErrorDialog_Clear()
                0x023e90e8                ErrorDialog_isExists()
                0x023e90f8                ErrorDialog_Set(EErrorCode)
                0x023e9118                ErrorDialog_Draw(CglCanvas*)
 .rodata        0x023e9474       0x14 ErrorDialog.o
 msgwin.o(.rodata .text)
 .text          0x023e9488      0x244 msgwin.o
                0x023e9488                msgwin_Clear()
                0x023e94d0                msgwin_Draw(char const*, char const*, unsigned int, unsigned int)
 particle.o(.rodata .text)
 .text          0x023e96cc      0x69c particle.o
                0x023e96cc                Particle_Init()
                0x023e9768                Particle_Free()
                0x023e97e0                Particle_Update(unsigned int, CglCanvas*)
                0x023e9d24                Particle_SetMouseDown(int, int)
                0x023e9d3c                Particle_SetMouseMove(int, int)
                0x023e9d54                Particle_SetMouseUp()
 .rodata        0x023e9d68       0x70 particle.o
 rect.o(.rodata .text)
 .text          0x023e9dd8      0x210 rect.o
                0x023e9e64                GetDirtyRect_OutSide(TRect, TRect, TRect**)
                0x023e9f88                isInsideRect(TRect, int, int)
 .rodata        0x023e9fe8        0x8 rect.o
 skin.o(.rodata .text)
 .text          0x023e9ff0     0x37d0 skin.o
                0x023ebea0                ComponentAlpha_GetSkin(EComponentSkinAlpha)
                0x023ebeb0                FileList_GetSkin(EFileListSkin)
                0x023ebec0                FileListAlpha_GetSkin(EFileListSkinAlpha)
                0x023ebed0                FileListClockAlpha_GetSkin(EFileListClockSkinAlpha)
                0x023ebee0                ScrollBarAlpha_GetSkin(EScrollBarSkinAlpha)
                0x023ebef0                Setup_GetSkin(ESetupSkin)
                0x023ebf00                SetupAlpha_GetSkin(ESetupSkinAlpha)
                0x023ebf10                SysMenuAlpha_GetSkin(ESysMenuSkinAlpha)
                0x023ebf20                MoviePlayer_GetSkin(EMoviePlayerSkin)
                0x023ebf30                MoviePlayerAlpha_GetSkin(EMoviePlayerSkinAlpha)
                0x023ebf40                ImageView_GetSkin(EImageViewSkin)
                0x023ebf50                Launch_GetSkin(ELaunchSkin)
                0x023ebf60                LaunchAlpha_GetSkin(ELaunchSkinAlpha)
                0x023ebf70                LongTapAlpha_GetSkin(ELongTapSkinAlpha)
                0x023ebf80                MP3CntAlpha_GetSkin(EMP3CntSkinAlpha)
                0x023ebf90                Custom_GetSkin(ECustomSkin)
                0x023ebfa0                StandbyClock_GetSkin(EStandbyClockSkin)
                0x023ebfb0                StandbyClockAlpha_GetSkin(EStandbyClockSkinAlpha)
                0x023ebfc0                TextView_GetSkin(ETextViewSkin)
                0x023ebfd0                TextViewAlpha_GetSkin(ETextViewSkinAlpha)
                0x023ebfe0                MemoEdit_GetSkin(EMemoEditSkin)
                0x023ebff0                MemoEditAlpha_GetSkin(EMemoEditSkinAlpha)
                0x023ec000                MemoList_GetSkin(EMemoListSkin)
                0x023ec010                LoadColorTable_colortbl_ini()
                0x023ec328                ColorTable_GetCalenderFromScreenSaver(EProcStateScreenSaver)
                0x023ec3a0                Skin_SetFilename(unsigned short const*)
                0x023ec7f8                Skin_CloseFile()
                0x023ec7fc                Skin_Load_ChkDsk()
                0x023ec800                Skin_Load_Setup()
                0x023ec858                Skin_Load_FileList()
                0x023ecc00                Skin_Load_FileList_ScreenSaver()
                0x023ecc2c                Skin_Load_SysMenu()
                0x023ecc3c                Skin_Load_DPGCustom()
                0x023ecc50                Skin_Load_DPGPlay()
                0x023ecdb8                Skin_Load_ImageCustom()
                0x023ecdcc                Skin_Load_ImageView()
                0x023ece30                Skin_Load_ImageView_AfterFree()
                0x023ece64                Skin_Load_TextMenu()
                0x023ece74                Skin_Load_TextView()
                0x023eceb0                Skin_Load_BinView()
                0x023eceec                Skin_Load_TextCustom()
                0x023ecf00                Skin_Load_Launch()
                0x023ed0e4                Skin_Load_Custom()
                0x023ed0f8                Skin_Load_BootROM()
                0x023ed0fc                Skin_Load_MemoEdit()
                0x023ed140                Skin_Load_MemoList()
                0x023ed160                Skin_Load_AudioCustom()
                0x023ed174                Skin_Free()
                0x023ed6d8                DrawSkin(CglB15*, CglCanvas*, int, int)
                0x023ed738                DrawSkinAlpha(CglTGF*, CglCanvas*, int, int)
                0x023ed73c                Skin_ClearCustomBG_FileBody()
                0x023ed794                Skin_GetErrorDialogBG()
 .rodata        0x023ed7c0      0x118 skin.o
 splash.o(.rodata .text)
 .text          0x023ed8d8      0x6b8 splash.o
                0x023eda58                Splash_IRQVSYNC()
                0x023eda70                Splash_DrawInfo()
                0x023edb00                Splash_Update()
                0x023edeec                Splash_Free()
 .rodata        0x023edf90       0x54 splash.o
 VideoResume.o(.rodata .text)
 .text          0x023edfe4      0x2f4 VideoResume.o
                0x023ee01c                VideoResume_Clear()
                0x023ee020                VideoResume_isOpened()
                0x023ee038                VideoResume_Open()
                0x023ee124                VideoResume_Close()
                0x023ee180                VideoResume_Save()
 .rodata        0x023ee2d8       0x3c VideoResume.o
 vramcache.o(.rodata .text)
 .text          0x023ee314       0x18 vramcache.o
                0x023ee314                VRAMWriteCache_Enable
                0x023ee320                VRAMWriteCache_Disable
 extmem.o(.rodata .text)
 .text          0x023ee32c      0x1a0 extmem.o
                0x023ee3a4                extmem_Start()
                0x023ee3d0                extmem_malloc(unsigned int)
                0x023ee424                extmem_ShowMallocInfo()
                0x023ee470                extmem_GetID()
                0x023ee480                extmem_GetPureMaxSizeByte()
                0x023ee490                extmem_GetMaxSizeByte()
                0x023ee4ac                extmem_GetTopAddr()
 .rodata        0x023ee4cc        0xc extmem.o
 extmem_DSBM.o(.rodata .text)
 .text          0x023ee4d8        0x0 extmem_DSBM.o
 .rodata        0x023ee4d8       0x10 extmem_DSBM.o
 extmem_EZ3in1.o(.rodata .text)
 .text          0x023ee4e8        0x0 extmem_EZ3in1.o
 extmem_M3ExtPack.o(.rodata .text)
 .text          0x023ee4e8        0x0 extmem_M3ExtPack.o
 extmem_RawMem.o(.rodata .text)
 .text          0x023ee4e8        0x0 extmem_RawMem.o
 extmem_SuperCard.o(.rodata .text)
 .text          0x023ee4e8        0x0 extmem_SuperCard.o
 BootROM.o(.rodata .text)
 .text          0x023ee4e8      0x8ac BootROM.o
                0x023ee4e8                BootROM_GetExecuteFlag()
                0x023ee4f8                BootROM_GetPathUnicode()
                0x023ee504                BootROM_GetFilenameUnicode()
                0x023ee510                BootROM_GetFullPathAlias()
                0x023ee51c                BootROM_SetInfo_TextEdit(unsigned short const*, unsigned short const*, bool)
                0x023ee7d4                BootROM_SetInfo_NoLaunch(unsigned short const*, unsigned short const*, bool)
                0x023eeaa0                BootROM_SetInfo(unsigned short const*, unsigned short const*, bool)
                0x023eeb5c                BootROM_isExistsSoftResetToFirmware()
                0x023eebb0                BootROM_SoftResetToFirmware()
                0x023eec50                BootROM_CheckNDSHomeBrew(char const*)
                0x023eed80                BootROM_Execute()
 .rodata        0x023eed94       0x54 BootROM.o
 extlink.o(.rodata .text)
 .text          0x023eede8      0x16c extlink.o
                0x023eede8                ExtLink_Free()
                0x023eee9c                ExtLink_GetTargetIndex(unsigned int)
                0x023eeeec                ExtLink_GetNDSFullPathFilenameUnicode(unsigned int)
 .rodata        0x023eef54       0x5c extlink.o
 NDSROMIcon.o(.rodata .text)
 .text          0x023eefb0      0x858 NDSROMIcon.o
                0x023ef000                NDSROMIcon_Get(char const*, TNDSROMIcon*, unsigned short*, unsigned short*, bool*)
                0x023ef670                NDSROMIcon_DrawIcon16(TNDSROMIcon*, CglCanvas*, unsigned int, unsigned int)
                0x023ef784                NDSROMIcon_DrawIcon32(TNDSROMIcon*, CglCanvas*, unsigned int, unsigned int)
                0x023ef7fc                NDSROMIcon_isLoaded(TNDSROMIcon*)
 .rodata        0x023ef808       0x10 NDSROMIcon.o
 launchstate.o(.rodata .text)
 .text          0x023ef818      0x7e8 launchstate.o
                0x023efae0                LaunchState_Clear()
                0x023efae4                LaunchState_isOpened()
                0x023efafc                LaunchState_Add(ELaunchState_Tabs, unsigned short const*)
                0x023efc90                LaunchState_Open()
                0x023efe30                LaunchState_Close()
                0x023efe8c                LaunchState_Save()
 .rodata        0x023f0000       0x74 launchstate.o
 procstate.o(.rodata .text)
 .text          0x023f0074      0x2e8 procstate.o
                0x023f00c0                ProcState_Save()
                0x023f0278                ProcState_Free()
                0x023f02d8                ApplyCurrentBacklightLevel()
                0x023f030c                ChangePrevBacklightLevel()
                0x023f0334                ChangeNextBacklightLevel()
 .rodata        0x023f035c       0x88 procstate.o
 resume.o(.rodata .text)
 .text          0x023f03e4      0x16c resume.o
                0x023f03e4                Resume_Save()
                0x023f0434                Resume_Clear()
                0x023f0454                Resume_SetResumeMode(EResumeMode)
                0x023f0474                Resume_SetFilename(unsigned short const*)
                0x023f04b0                Resume_SetPos(unsigned int)
                0x023f04d0                Resume_GetResumeMode()
                0x023f04f8                Resume_GetFilename()
                0x023f0528                Resume_GetPos()
 sndeff.o(.rodata .text)
 .text          0x023f0550      0x3c8 sndeff.o
                0x023f0638                Sound_Close()
                0x023f06ac                Sound_Start(EWAVFN)
                0x023f08f4                Sound_GetCurrentPlayTimePerVsync()
 .rodata        0x023f0918       0x40 sndeff.o
 strpcm.o(.rodata .text)
 .text          0x023f0958      0x614 strpcm.o
                0x023f0b60                VBlank_AutoFlip_Enabled()
                0x023f0b74                VBlank_AutoFlip_Disabled()
                0x023f0ba4                strpcmStart(bool, unsigned int, unsigned int, unsigned int, EstrpcmFormat)
                0x023f0d70                strpcmStop()
                0x023f0e9c                strpcmClearRingBuffer()
                0x023f0ed4                strpcmSetAudioVolume64(int)
                0x023f0f10                strpcmGetAudioVolume64()
                0x023f0f20                strpcmSetVideoVolume64(int)
                0x023f0f5c                strpcmGetVideoVolume64()
 .rodata        0x023f0f6c       0x40 strpcm.o
 snd_click_long_c_bin.o(.rodata .text)
 .text          0x023f0fac        0x0 snd_click_long_c_bin.o
 .rodata        0x023f0fac      0xac4 snd_click_long_c_bin.o
                0x023f0fac                snd_click_long_c_bin
 snd_click_short_c_bin.o(.rodata .text)
 .text          0x023f1a70        0x0 snd_click_short_c_bin.o
 .rodata        0x023f1a70      0x184 snd_click_short_c_bin.o
                0x023f1a70                snd_click_short_c_bin
 datetime.o(.rodata .text)
 .text          0x023f1bf4      0x88c datetime.o
                0x023f1cd8                DateTime_Make12hAMPM(TDateTime*)
                0x023f1d24                DateTime_ResetNow()
                0x023f1d40                DateTime_GetNow()
                0x023f1e30                Date_GetDaysofMonth(int, int)
                0x023f1eec                DateTime_CreateCalendarData(unsigned int, unsigned int)
                0x023f1f70                Date_NextDay(TDate)
                0x023f1fd4                DateTime_Compare(TDateTime*, TDateTime*)
                0x023f2058                Date_GetWeekNum(TDate)
                0x023f2070                Date_GetWeekStr(char*, unsigned int, TDate)
                0x023f20b4                DateTime_Sub(TDateTime, TDateTime)
                0x023f21ec                Date_SetDateFormat(EDateFormat)
                0x023f21fc                Date_GetDateStrBuf(char*, unsigned int, TDate)
                0x023f2290                Date_GetDateStr(TDate)
                0x023f22cc                Date_GetDateStr_FAT2_TIME(TFAT2_TIME*)
                0x023f2310                Date_Set24hFormat(bool)
                0x023f2320                Date_GetTimeStrBuf_12h(char*, unsigned int, TTime)
                0x023f2388                Date_GetTimeStrBuf_12h_HHMM(char*, unsigned int, TTime)
                0x023f23d0                Date_GetTimeStrBuf_12h_SS(char*, unsigned int, TTime)
                0x023f23f0                Date_GetTimeStrBuf_12h_AP(char*, unsigned int, TTime)
                0x023f2434                Date_GetTimeStrBuf_12h_SSAP(char*, unsigned int, TTime)
 .rodata        0x023f2480       0x98 datetime.o
 md5c.o(.rodata .text)
 .text          0x023f2518      0xc30 md5c.o
                0x023f2fac                MD5Init
                0x023f2fe0                MD5Update
                0x023f30c0                MD5Final
 fastlzss16decpalasm_body.o(.rodata .text)
 .text          0x023f3148     0x1848 fastlzss16decpalasm_body.o
                0x023f3148                fastlzss16decpalasm_body
 fastlzss16decpalasm.o(.rodata .text)
 .text          0x023f4990       0x54 fastlzss16decpalasm.o
                0x023f4990                fastlzss16decpalasm_getdecsize(void const*)
                0x023f49a8                fastlzss16decpalasm_decode(void const*, void*, unsigned int*)
                0x023f49e0                fastlzss16decpalasm_init()
 euc2unicode.o(.rodata .text)
 .text          0x023f49e4      0x34c euc2unicode.o
                0x023f49e4                EUC2Unicode_Free()
                0x023f4a74                EUC2Unicode_Convert(char const*, unsigned short*, unsigned int)
                0x023f4b68                Unicode2EUC_Convert(unsigned short const*, char*, unsigned int)
 .rodata        0x023f4d30       0x50 euc2unicode.o
 lang.o(.rodata .text)
 .text          0x023f4d80      0x244 lang.o
                0x023f4dd0                Lang_Free()
                0x023f4ecc                Lang_GetUTF8_internal(char const*, char const*)
 *fill*         0x023f4fc4        0x4 00
 .text.stub     0x023f4fc8       0x18 linker stubs
 .rodata        0x023f4fe8       0x68 lang.o
                0x023f5050                . = ALIGN (0x4)

.EOVR_proc_MainPass
                0x023c7400     0x36fc load address 0x020bb7a4
                0x023c7400                Image_EOVR_proc_MainPass_Base = .
 *(.IWRAM_proc_MainPass)
 .IWRAM_proc_MainPass
                0x023c7400      0x48c dll.o
                0x023c747c                DLLList_Regist(char*)
                0x023c7588                DLLList_Init()
 .IWRAM_proc_MainPass
                0x023c788c       0x3c playlist.o
                0x023c788c                PlayList_Init()
 .IWRAM_proc_MainPass
                0x023c78c8       0x14 ErrorDialog.o
                0x023c78c8                ErrorDialog_Init()
 .IWRAM_proc_MainPass
                0x023c78dc      0x144 splash.o
                0x023c78dc                Splash_Init()
 .IWRAM_proc_MainPass
                0x023c7a20      0x260 extmem.o
                0x023c7a20                extmem_Init()
                0x023c7c4c                extmem_ShowMemoryInfo()
 .IWRAM_proc_MainPass
                0x023c7c80       0x5c extmem_DSBM.o
                0x023c7c80                extmem_DSBM_Start()
 .IWRAM_proc_MainPass
                0x023c7cdc       0x80 extmem_EZ3in1.o
                0x023c7cdc                extmem_EZ3in1_Start()
 .IWRAM_proc_MainPass
                0x023c7d5c      0x468 extmem_M3ExtPack.o
                0x023c7dd4                extmem_M3ExtPack_Start()
 .IWRAM_proc_MainPass
                0x023c81c4        0x8 extmem_RawMem.o
                0x023c81c4                extmem_RawMem_Start()
 .IWRAM_proc_MainPass
                0x023c81cc       0x28 extmem_SuperCard.o
                0x023c81cc                extmem_SuperCard_Start()
 .IWRAM_proc_MainPass
                0x023c81f4       0x28 BootROM.o
                0x023c81f4                BootROM_Init()
 .IWRAM_proc_MainPass
                0x023c821c      0x3a0 extlink.o
                0x023c832c                ExtLink_Init()
 .IWRAM_proc_MainPass
                0x023c85bc      0x620 procstate.o
                0x023c878c                ProcState_Init()
                0x023c8a0c                ProcState_Clear()
                0x023c8a28                ProcState_Load()
 .IWRAM_proc_MainPass
                0x023c8bdc       0xd4 resume.o
                0x023c8bdc                Resume_Load()
 .IWRAM_proc_MainPass
                0x023c8cb0       0xe0 sndeff.o
                0x023c8cb0                Sound_Open()
 .IWRAM_proc_MainPass
                0x023c8d90      0x164 strpcm.o
                0x023c8d90                InitInterrupts()
 .IWRAM_proc_MainPass
                0x023c8ef4       0xec euc2unicode.o
                0x023c8ef4                EUC2Unicode_Init()
                0x023c8f18                EUC2Unicode_Load()
 .IWRAM_proc_MainPass
                0x023c8fe0      0x618 lang.o
                0x023c906c                Lang_Load()
 .IWRAM_proc_MainPass
                0x023c95f8       0x84 inifile.o
 .IWRAM_proc_MainPass
                0x023c967c      0x970 main.o
 .IWRAM_proc_MainPass
                0x023c9fec       0xa4 OverlayManager.o
                0x023c9fec                OVM_GetRomeo2NCD_Size()
                0x023c9ff8                OVM_GetRomeo2NCD_Data(void*, unsigned int)
                0x023ca044                OVM_LoadAfterSystem2()
 .IWRAM_proc_MainPass
                0x023ca090       0x54 fat2.o
                0x023ca090                FAT2_Disabled64kClusterMode()
 .IWRAM_proc_MainPass
                0x023ca0e4       0x6c gba_nds_fat.o
                0x023ca0e4                FAT_Disabled64kClusterMode()
 inifile.o(.rodata .text)
 .text          0x023ca150      0x90c inifile.o
                0x023ca150                InitINI()
                0x023ca210                LoadINI()
 *fill*         0x023caa5c        0x4 00
 .text.stub     0x023caa60       0x60 linker stubs
 .rodata        0x023caae0       0x1c inifile.o
                0x023caafc                . = ALIGN (0x4)

.EOVR_proc_ChkDsk
                0x023c7400     0x15e4 load address 0x020beea0
                0x023c7400                Image_EOVR_proc_ChkDsk_Base = .
 proc_chkdsk.o(.rodata .text)
 .text          0x023c7400     0x14ac proc_chkdsk.o
                0x023c8884                ProcChkDsk_SetCallBack(TCallBack*)
 .rodata        0x023c88ac      0x11c proc_chkdsk.o
 *(.IWRAM_proc_ChkDsk)
 .IWRAM_proc_ChkDsk
                0x023c89c8       0x1c proc_chkdsk.o
                0x023c89e4                . = ALIGN (0x4)

.EOVR_proc_Setup
                0x023c7400      0xac4 load address 0x020c0484
                0x023c7400                Image_EOVR_proc_Setup_Base = .
 proc_setup.o(.rodata .text)
 .text          0x023c7400      0x91c proc_setup.o
                0x023c7cc4                ProcSetup_SetCallBack(TCallBack*)
 *(.IWRAM_proc_Setup)
 .IWRAM_proc_Setup
                0x023c7d1c      0x1a8 proc_setup.o
                0x023c7ec4                . = ALIGN (0x4)

.EOVR_proc_FileList
                0x023c7400     0xc6c0 load address 0x020c0f48
                0x023c7400                Image_EOVR_proc_FileList_Base = .
 proc_FileList.o(.rodata .text)
 .text          0x023c7400     0x84e8 proc_FileList.o
                0x023cbb50                ScrollBar_Draw_asm_DrawBG_Fixed75per(unsigned short*)
                0x023cbc38                FileList_DrawID3Tag_asm_Fill25per(unsigned short*, unsigned int)
                0x023cbc84                FileList_DrawID3Tag_asm_Fill50per(unsigned short*, unsigned int)
                0x023cf764                ProcFileList_SetCallBack(TCallBack*)
 .rodata        0x023cf8e8      0x11c proc_FileList.o
 *(.IWRAM_proc_FileList)
 .IWRAM_proc_FileList
                0x023cfa04      0x5d4 proc_FileList.o
 .IWRAM_proc_FileList
                0x023cffd8       0x18 NDSFiles.o
                0x023cffec                NDSIconInfoLoaded
                0x023cffed                ChangedCurrentPath
 .IWRAM_proc_FileList
                0x023cfff0      0x104 hiddenpaths.o
 .IWRAM_proc_FileList
                0x023d00f4        0xc ThumbDPG.o
 .IWRAM_proc_FileList
                0x023d0100       0x14 ThumbIPK.o
 .IWRAM_proc_FileList
                0x023d0114      0x208 cipk_simple.o
 NDSFiles.o(.rodata .text)
 .text          0x023d031c     0x1d74 NDSFiles.o
                0x023d0d24                NDSFiles_Free()
                0x023d0dec                NDSFiles_RefreshCurrentFolder()
                0x023d1bb8                NDSFiles_LoadNDSIcon(TNDSFile*)
                0x023d1dbc                NDSFiles_LoadFileInfo(TNDSFile*)
                0x023d2068                NDSFiles_GetFilesCount()
                0x023d2078                NDSFiles_GetFileBody(unsigned int)
 .rodata        0x023d2090       0xc0 NDSFiles.o
 hiddenpaths.o(.rodata .text)
 .text          0x023d2150      0x318 hiddenpaths.o
                0x023d2150                HiddenPaths_Init()
                0x023d2390                HiddenPaths_Free()
                0x023d240c                HiddenPaths_isHidden(unsigned short const*)
 .rodata        0x023d2468       0x28 hiddenpaths.o
 ThumbDPG.o(.rodata .text)
 .text          0x023d2490      0x2cc ThumbDPG.o
                0x023d2490                InitDPGThumb()
                0x023d24ac                FreeDPGThumb()
                0x023d2520                ReloadDPGThumb(unsigned short const*, int)
                0x023d26f0                DrawDPGThumb(CglCanvas*)
 .rodata        0x023d275c       0x20 ThumbDPG.o
 ThumbIPK.o(.rodata .text)
 .text          0x023d277c      0x78c ThumbIPK.o
                0x023d2858                InitIPK()
                0x023d287c                FreeIPK()
                0x023d2948                ReloadIPK(unsigned short const*, int)
                0x023d2d00                DrawIPK(CglCanvas*)
 .rodata        0x023d2f08       0x2c ThumbIPK.o
 cipk_simple.o(.rodata .text)
 .text          0x023d2f34      0xb34 cipk_simple.o
                0x023d2f34                CIPK::CIPK(FAT_FILE*)
                0x023d2f34                CIPK::CIPK(FAT_FILE*)
                0x023d3094                CIPK::~CIPK()
                0x023d3094                CIPK::~CIPK()
                0x023d3104                CIPK::GetFilesCount()
                0x023d310c                CIPK::GetCoverImage(TIPKThumbnail*)
                0x023d32b0                CIPK::GetBodyOffset(unsigned int)
                0x023d32c8                CIPK::GetFilename(unsigned int, unsigned short*)
                0x023d3360                CIPK::GetFileInfoExtExif(unsigned int)
                0x023d34dc                CIPK::GetThumbnail(unsigned int, EIPKThumbnailID, TIPKThumbnail*)
                0x023d38c4                CIPK::GetImageInfo(unsigned int, TIPKImageInfo*)
 .text.stub     0x023d3a68        0xc linker stubs
 .rodata        0x023d3a78       0x48 cipk_simple.o
 *(.IWRAM_proc_AudioPlay)
                0x023d3ac0                . = ALIGN (0x4)

.EOVR_proc_SysMenu
                0x023c7400      0xb34 load address 0x020cd608
                0x023c7400                Image_EOVR_proc_SysMenu_Base = .
 proc_sysmenu.o(.rodata .text)
 .text          0x023c7400      0xae4 proc_sysmenu.o
                0x023c7e8c                ProcSysMenu_SetCallBack(TCallBack*)
 *(.IWRAM_proc_SysMenu)
 .IWRAM_proc_SysMenu
                0x023c7ee4       0x50 proc_sysmenu.o
                0x023c7f34                . = ALIGN (0x4)

.EOVR_proc_DPGCustom
                0x023c7400     0x1530 load address 0x020ce13c
                0x023c7400                Image_EOVR_proc_DPGCustom_Base = .
 proc_DPGCustom.o(.rodata .text)
 .text          0x023c7400     0x116c proc_DPGCustom.o
                0x023c8508                ProcDPGCustom_SetCallBack(TCallBack*)
 .rodata        0x023c856c       0x24 proc_DPGCustom.o
 *(.IWRAM_proc_DPGCustom)
 .IWRAM_proc_DPGCustom
                0x023c8590      0x3a0 proc_DPGCustom.o
                0x023c8930                . = ALIGN (0x4)

.EOVR_proc_DPGPlay
                0x023c7400     0x3308 load address 0x020cf66c
                0x023c7400                Image_EOVR_proc_DPGPlay_Base = .
 proc_DPGPlay.o(.rodata .text)
 .text          0x023c7400     0x30c8 proc_DPGPlay.o
                0x023c8938                DPGOpen(unsigned short const*)
                0x023c8a14                DPGClose()
                0x023c9568                BGM_PrevShuffle()
                0x023c96b0                BGM_NextShuffle()
                0x023ca3a4                ProcDPGPlay_SetCallBack(TCallBack*)
 .text.stub     0x023ca4c8       0x18 linker stubs
 .rodata        0x023ca4e8       0x6c proc_DPGPlay.o
 *(.IWRAM_proc_DPGPlay)
 .IWRAM_proc_DPGPlay
                0x023ca554      0x1b4 proc_DPGPlay.o
                0x023ca708                . = ALIGN (0x4)

.EOVR_proc_ImageCustom
                0x023c7400     0x1688 load address 0x020d2974
                0x023c7400                Image_EOVR_proc_ImageCustom_Base = .
 proc_ImageCustom.o(.rodata .text)
 .text          0x023c7400     0x1214 proc_ImageCustom.o
                0x023c85b0                ProcImageCustom_SetCallBack(TCallBack*)
 .rodata        0x023c8614       0x24 proc_ImageCustom.o
 *(.IWRAM_proc_ImageCustom)
 .IWRAM_proc_ImageCustom
                0x023c8638      0x450 proc_ImageCustom.o
                0x023c8a88                . = ALIGN (0x4)

.EOVR_proc_ImageView
                0x023c7400     0x5244 load address 0x020d3ffc
                0x023c7400                Image_EOVR_proc_ImageView_Base = .
 proc_ImageView.o(.rodata .text)
 .text          0x023c7400     0x501c proc_ImageView.o
                0x023c9760                RedrawImage_ins_x50(unsigned char*, unsigned short*, unsigned short*)
                0x023c989c                RedrawImage_ins_x100(unsigned char*, unsigned short*, unsigned short*, unsigned int)
                0x023cc2ec                ProcImageView_SetCallBack(TCallBack*)
 *fill*         0x023cc41c        0x4 00
 .text.stub     0x023cc420        0xc linker stubs
 .rodata        0x023cc430      0x124 proc_ImageView.o
 *(.IWRAM_proc_ImageView)
 .IWRAM_proc_ImageView
                0x023cc554       0xf0 proc_ImageView.o
                0x023cc644                . = ALIGN (0x4)

.EOVR_proc_TextCustom
                0x023c7400     0x2598 load address 0x020d9240
                0x023c7400                Image_EOVR_proc_TextCustom_Base = .
 proc_TextCustom.o(.rodata .text)
 .text          0x023c7400     0x1c74 proc_TextCustom.o
                0x023c9010                ProcTextCustom_SetCallBack(TCallBack*)
 .rodata        0x023c9074       0x24 proc_TextCustom.o
 *(.IWRAM_proc_TextCustom)
 .IWRAM_proc_TextCustom
                0x023c9098      0x900 proc_TextCustom.o
                0x023c9998                . = ALIGN (0x4)

.EOVR_proc_TextMenu
                0x023c7400      0xc98 load address 0x020db7d8
                0x023c7400                Image_EOVR_proc_TextMenu_Base = .
 proc_TextMenu.o(.rodata .text)
 .text          0x023c7400      0xc50 proc_TextMenu.o
                0x023c7ff8                ProcTextMenu_SetCallBack(TCallBack*)
 *(.IWRAM_proc_TextMenu)
 .IWRAM_proc_TextMenu
                0x023c8050       0x48 proc_TextMenu.o
                0x023c8098                . = ALIGN (0x4)

.EOVR_proc_TextView
                0x023c7400     0xa608 load address 0x020dc470
                0x023c7400                Image_EOVR_proc_TextView_Base = .
 proc_TextView.o(.rodata .text)
 .text          0x023c7400     0x8c58 proc_TextView.o
                0x023cbabc                ExtFont_DrawFont1bpp16pix(unsigned char const*, unsigned short*, unsigned int, unsigned int)
                0x023cbb58                ExtFont_DrawFont1bpp16pix_fast(unsigned char const*, unsigned short*, unsigned int, unsigned int)
                0x023ccca0                TextView_DrawID3Tag_asm_Fill25per(unsigned short*, unsigned int)
                0x023cccec                TextView_DrawID3Tag_asm_Fill50per(unsigned short*, unsigned int)
                0x023cff1c                ProcTextView_SetCallBack(TCallBack*)
 .rodata        0x023d0058      0x25c proc_TextView.o
 *(.IWRAM_proc_TextView)
 .IWRAM_proc_TextView
                0x023d02b4      0x218 proc_TextView.o
 .IWRAM_proc_TextView
                0x023d04cc      0x224 cctf_dfs.o
 cctf.o(.rodata .text)
 .text          0x023d06f0      0xc9c cctf.o
                0x023d06f0                CCTF::~CCTF()
                0x023d06f0                CCTF::~CCTF()
                0x023d0770                CCTF::SetTargetCanvas(CglCanvas*)
                0x023d0778                CCTF::GetCharOffset(unsigned short) const
                0x023d0788                CCTF::GetCharDataSize(unsigned short) const
                0x023d0798                CCTF::GetCharWidth(unsigned short) const
                0x023d07a4                CCTF::GetWidthsList(unsigned char*) const
                0x023d07d0                CCTF::GetFontData(unsigned short)
                0x023d08a0                CCTF::make_coltbl9()
                0x023d09b4                CCTF::CCTF(FAT_FILE*, unsigned int, ETextClearTypeFont)
                0x023d09b4                CCTF::CCTF(FAT_FILE*, unsigned int, ETextClearTypeFont)
                0x023d0c98                CCTF::DrawFont_TextBlack(CglCanvas*, int, int, unsigned short)
                0x023d0f00                CCTF::DrawFont_Fast(CglCanvas*, int, int, unsigned short)
                0x023d0fbc                CCTF::DrawFont_Fast2(CglCanvas*, int, int, unsigned short)
                0x023d0fec                CCTF::TextOutA(int, int, char const*)
                0x023d1088                CCTF::TextOutW(int, int, unsigned short const*)
                0x023d1188                CCTF::TextOutUTF8(int, int, char const*)
                0x023d123c                CCTF::GetTextWidthA(char const*) const
                0x023d128c                CCTF::GetTextWidthW(unsigned short const*) const
                0x023d12dc                CCTF::GetTextWidthUTF8(char const*) const
 .rodata        0x023d138c       0xdc cctf.o
 cctf_dfs.o(.rodata .text)
 .text          0x023d1468      0x56c cctf_dfs.o
                0x023d1468                CTF_DFS_Init(FAT_FILE*)
                0x023d1604                CTF_DFS_Free()
                0x023d1658                CTF_DFS_GetSize()
                0x023d1668                CTF_DFS_SetOffset(unsigned int)
                0x023d1794                CTF_DFS_SetAttribute(unsigned int, unsigned int)
                0x023d17ac                CTF_DFS_Read32bit(void*, unsigned int)
 *fill*         0x023d19d4        0x4 00
 .text.stub     0x023d19d8        0xc linker stubs
 .rodata        0x023d19e8       0x20 cctf_dfs.o
                0x023d1a08                . = ALIGN (0x4)

.EOVR_proc_BinView
                0x023c7400      0x14c load address 0x020e6a78
                0x023c7400                Image_EOVR_proc_BinView_Base = .
 proc_BinView.o(.rodata .text)
 .text          0x023c7400      0x148 proc_BinView.o
                0x023c74c0                ProcBinView_SetCallBack(TCallBack*)
 *(.IWRAM_proc_BinView)
 .IWRAM_proc_BinView
                0x023c7548        0x1 proc_BinView.o
                0x023c754c                . = ALIGN (0x4)
 *fill*         0x023c7549        0x3 00

.EOVR_proc_Launch
                0x023c7400     0x1688 load address 0x020e6bc4
                0x023c7400                Image_EOVR_proc_Launch_Base = .
 proc_Launch.o(.rodata .text)
 .text          0x023c7400     0x15f8 proc_Launch.o
                0x023c89a0                ProcLaunch_SetCallBack(TCallBack*)
 .rodata        0x023c89f8       0x58 proc_Launch.o
 *(.IWRAM_proc_Launch)
 .IWRAM_proc_Launch
                0x023c8a50       0x38 proc_Launch.o
                0x023c8a88                . = ALIGN (0x4)

.EOVR_proc_Custom
                0x023c7400     0x352c load address 0x020e824c
                0x023c7400                Image_EOVR_proc_Custom_Base = .
 proc_Custom.o(.rodata .text)
 .text          0x023c7400     0x2688 proc_Custom.o
                0x023c9a24                ProcCustom_SetCallBack(TCallBack*)
 .rodata        0x023c9a88       0x24 proc_Custom.o
 *(.IWRAM_proc_Custom)
 .IWRAM_proc_Custom
                0x023c9aac      0xe80 proc_Custom.o
                0x023ca92c                . = ALIGN (0x4)

.EOVR_proc_BootROM
                0x023c7400       0xc0 load address 0x020eb778
                0x023c7400                Image_EOVR_proc_BootROM_Base = .
 proc_BootROM.o(.rodata .text)
 .text          0x023c7400       0xc0 proc_BootROM.o
                0x023c7498                ProcBootROM_SetCallBack(TCallBack*)
 *(.IWRAM_proc_BootROM)
                0x023c74c0                . = ALIGN (0x4)

.EOVR_proc_MemoEdit
                0x023c7400     0x1af4 load address 0x020eb838
                0x023c7400                Image_EOVR_proc_MemoEdit_Base = .
 proc_MemoEdit.o(.rodata .text)
 .text          0x023c7400     0x19e8 proc_MemoEdit.o
                0x023c8d60                ProcMemoEdit_SetCallBack(TCallBack*)
 .rodata        0x023c8de8       0xe4 proc_MemoEdit.o
 *(.IWRAM_proc_MemoEdit)
 .IWRAM_proc_MemoEdit
                0x023c8ecc       0x28 proc_MemoEdit.o
                0x023c8ef4                . = ALIGN (0x4)

.EOVR_proc_MemoList
                0x023c7400       0xd0 load address 0x020ed32c
                0x023c7400                Image_EOVR_proc_MemoList_Base = .
 proc_MemoList.o(.rodata .text)
 .text          0x023c7400       0xd0 proc_MemoList.o
                0x023c747c                ProcMemoList_SetCallBack(TCallBack*)
 *(.IWRAM_proc_MemoList)
                0x023c74d0                . = ALIGN (0x4)

.EOVR_proc_AudioCustom
                0x023c7400      0xd08 load address 0x020ed3fc
                0x023c7400                Image_EOVR_proc_AudioCustom_Base = .
 proc_AudioCustom.o(.rodata .text)
 .text          0x023c7400      0xce4 proc_AudioCustom.o
                0x023c8080                ProcAudioCustom_SetCallBack(TCallBack*)
 .rodata        0x023c80e4       0x24 proc_AudioCustom.o
 *(IWRAM_proc_AudioCustom)
                0x023c8108                . = ALIGN (0x4)

.EOVR_libsnd_mp3
                0x023a5c00    0x147e4 load address 0x020ee104
                0x023a5c00                Image_EOVR_libsnd_mp3_Base = .
 plug_mp3.o(.rodata .text)
 .text          0x023a5c00     0x131c plug_mp3.o
                0x023a6230                PlugMP3_Free()
                0x023a62dc                PlugMP3_Start(FAT_FILE*)
                0x023a6a10                PlugMP3_Update(unsigned int*)
                0x023a6af4                PlugMP3_GetPosMax()
                0x023a6b04                PlugMP3_GetPosOffset()
                0x023a6b14                PlugMP3_SetPosOffset(int)
                0x023a6bb0                PlugMP3_GetChannelCount()
                0x023a6bd4                PlugMP3_GetSampleRate()
                0x023a6be8                PlugMP3_GetSamplePerFrame()
                0x023a6bf0                PlugMP3_GetPlayTimeSec()
                0x023a6c30                PlugMP3_GetInfoIndexCount()
                0x023a6c4c                PlugMP3_GetInfoStrL(int, char*, int)
                0x023a6d60                PlugMP3_GetInfoStrW(int, unsigned short*, int)
                0x023a6e40                PlugMP3_GetInfoStrUTF8(int, char*, int)
 .rodata        0x023a6f1c      0xe44 plug_mp3.o
 bit.o(.rodata .text)
 .text          0x023a7d60      0x2f0 bit.o
                0x023a7d60                mad_bit_init
                0x023a7d78                mad_bit_length
                0x023a7da0                mad_bit_nextbyte
                0x023a7db4                mad_bit_skip
                0x023a7e0c                mad_bit_read
                0x023a7ec4                mad_bit_crc
 .rodata        0x023a8050      0x200 bit.o
 decoder.o(.rodata .text)
 .text          0x023a8250      0x32c decoder.o
                0x023a84b4                mad_decoder_init
                0x023a8510                mad_decoder_finish
                0x023a8518                mad_decoder_run
                0x023a8574                mad_decoder_message
 fixed.o(.rodata .text)
 .text          0x023a857c       0xe4 fixed.o
                0x023a857c                mad_f_abs
                0x023a8588                mad_f_div
 frame.o(.rodata .text)
 .text          0x023a8660      0x968 frame.o
                0x023a8aa0                mad_header_init
                0x023a8ae8                mad_frame_finish
                0x023a8b14                mad_header_decode
                0x023a8e04                mad_frame_decode
                0x023a8ed8                mad_frame_mute
                0x023a8f6c                mad_frame_init
 .rodata        0x023a8fc8      0x144 frame.o
 huffman.o(.rodata .text)
 .text          0x023a910c        0x0 huffman.o
 .rodata        0x023a910c     0x1228 huffman.o
                0x023a910c                mad_huff_pair_table
                0x023a920c                mad_huff_quad_table
 layer12.o(.rodata .text)
 .text          0x023aa334      0xcf4 layer12.o
                0x023aa498                mad_layer_I
                0x023aa80c                mad_layer_II
 .rodata        0x023ab028      0x334 layer12.o
 layer3.o(.rodata .text)
 .text          0x023ab35c     0x30b0 layer3.o
                0x023adc74                mad_layer_III
 .rodata        0x023ae40c     0x8688 layer3.o
 stream.o(.rodata .text)
 .text          0x023b6a94      0x33c stream.o
                0x023b6a94                mad_stream_init
                0x023b6aec                mad_stream_finish
                0x023b6af0                mad_stream_buffer
                0x023b6b14                mad_stream_skip
                0x023b6b24                mad_stream_sync
                0x023b6b9c                mad_stream_errorstr
 synth.o(.rodata .text)
 .text          0x023b6dd0     0x2534 synth.o
                0x023b915c                mad_synth_init
                0x023b91d4                mad_synth_mute
                0x023b922c                mad_synth_frame
 .rodata        0x023b9304      0x880 synth.o
 timer.o(.rodata .text)
 .text          0x023b9b84      0x7b0 timer.o
                0x023b9cb0                mad_timer_compare
                0x023b9d14                mad_timer_negate
                0x023b9d40                mad_timer_abs
                0x023b9d84                mad_timer_set
                0x023b9f8c                mad_timer_add
                0x023b9ff0                mad_timer_multiply
                0x023ba0bc                mad_timer_count
                0x023ba2a8                mad_timer_fraction
 .rodata        0x023ba334        0x8 timer.o
                0x023ba334                mad_timer_zero
 version.o(.rodata .text)
 .text          0x023ba33c        0x0 version.o
 .rodata        0x023ba33c       0xa8 version.o
                0x023ba33c                mad_build
                0x023ba35c                mad_author
                0x023ba38c                mad_copyright
                0x023ba3c0                mad_version
                0x023ba3e4                . = ALIGN (0x4)

.EOVR_libsnd_midi
                0x023a5c00     0xd1fc load address 0x021028e8
                0x023a5c00                Image_EOVR_libsnd_midi_Base = .
 plug_midi.o(.rodata .text)
 .text          0x023a5c00      0xe4c plug_midi.o
                0x023a5ca8                Start_InitStackBuf()
                0x023a5d80                PlugMIDI_Free()
                0x023a5e54                PlugMIDI_Start(FAT_FILE*)
                0x023a61a8                PlugMIDI_Update(unsigned int*)
                0x023a65b4                PlugMIDI_GetPosMax()
                0x023a65c4                PlugMIDI_GetPosOffset()
                0x023a65d4                PlugMIDI_SetPosOffset(int)
                0x023a6678                PlugMIDI_GetChannelCount()
                0x023a6680                PlugMIDI_GetSampleRate()
                0x023a6688                PlugMIDI_GetSamplePerFrame()
                0x023a6690                PlugMIDI_GetPlayTimeSec()
                0x023a6698                PlugMIDI_GetInfoIndexCount()
                0x023a66f8                PlugMIDI_GetInfoStrL(int, char*, int)
                0x023a6a3c                PlugMIDI_GetInfoStrW(int, unsigned short*, int)
                0x023a6a44                PlugMIDI_GetInfoStrUTF8(int, char*, int)
 .rodata        0x023a6a4c       0x7c plug_midi.o
 mtrk.o(.rodata .text)
 .text          0x023a6ac8      0x784 mtrk.o
                0x023a6b74                MTRKCC_Init()
                0x023a6bf4                MTRKCC_Free()
                0x023a6bf8                MTRKCC_Proc(unsigned int, unsigned char, unsigned char)
                0x023a700c                MTRK_SetProgram(unsigned int, unsigned int)
                0x023a704c                MTRK_ChangePitchBend(unsigned int, int)
                0x023a70b0                MTRK_NoteOn_LoadProgram(unsigned int, unsigned int, unsigned int)
                0x023a70b4                MTRK_NoteOn(unsigned int, unsigned int, unsigned int, unsigned int)
                0x023a7214                MTRK_NoteOff(unsigned int, unsigned int, unsigned int)
                0x023a7234                MTRK_SetExMap(unsigned int, unsigned int)
 pch.o(.rodata .text)
 .text          0x023a724c     0x2e64 pch.o
                0x023a7d00                PCH_InitProgramMap()
                0x023a7f0c                PCH_FreeProgramMap()
                0x023a80e8                PCH_LoadProgram(int, unsigned int, unsigned int, bool)
                0x023a86ac                PCH_Init(unsigned int, unsigned int)
                0x023a87d0                PCH_Free()
                0x023a885c                PCH_AllSoundOff()
                0x023a887c                PCH_AllNoteOff(unsigned int)
                0x023a88b0                PCH_NextClock()
                0x023a8da4                PCH_ChangeVolume(unsigned int, unsigned int)
                0x023a8e70                PCH_ChangeExpression(unsigned int, unsigned int)
                0x023a8f3c                PCH_ChangePitchBend(unsigned int, int)
                0x023a90e4                PCH_ChangePanpot(unsigned int, unsigned int)
                0x023a914c                PCH_ChangeModLevel(unsigned int, unsigned int)
                0x023a91f0                PCH_NoteOn(unsigned int, unsigned int, int, int, unsigned int, unsigned int, unsigned int, unsigned int, unsigned int, unsigned int, unsigned int, bool, unsigned int)
                0x023a97d4                PCH_NoteOff(unsigned int, unsigned int, bool)
                0x023a98dc                PCH_PedalOn(unsigned int)
                0x023a991c                PCH_PedalOff(unsigned int)
                0x023a9a0c                PCH_RequestRender(unsigned int)
                0x023a9a64                PCH_RenderStart(unsigned int)
                0x023a9b40                PCH_Render(unsigned int, int*, unsigned int)
                0x023a9c2c                PCH_RenderEnd()
                0x023a9c30                PCH_IncrementUnusedClockCount()
                0x023a9fc0                PCH_GetReverb(unsigned int)
                0x023a9fdc                PCH_GT_GetNearClock()
                0x023aa028                PCH_GT_DecClock(unsigned int)
                0x023aa098                PCH_isDrumMap(unsigned int)
 .rodata        0x023aa0b0     0x62d4 pch.o
 rcplib.o(.rodata .text)
 .text          0x023b0384     0x1174 rcplib.o
                0x023b06b4                RCP_isAllTrackEOF()
                0x023b0710                RCP_GetSamplePerClockFix16()
                0x023b0724                RCP_GetStruct_RCP()
                0x023b0734                RCP_GetStruct_RCP_Chank()
                0x023b0744                rcplibSetParam(unsigned char*, unsigned int, unsigned int)
                0x023b075c                rcplibStart()
                0x023b0c10                rcplibFree()
                0x023b0d18                rcplibGetNearClock()
                0x023b0d9c                rcplibNextClock(bool, bool, int)
                0x023b14f4                rcplibAllSoundOff()
 .rodata        0x023b14f8       0x6c rcplib.o
 smidlib.o(.rodata .text)
 .text          0x023b1564      0x23c smidlib.o
                0x023b1564                smidlibSetParam(unsigned char*, unsigned int, unsigned int)
                0x023b1574                smidlibStart()
                0x023b15fc                smidlibFree()
                0x023b1610                smidlibGetNearClock()
                0x023b1678                smidlibNextClock(bool, bool, int)
                0x023b179c                smidlibAllSoundOff()
 smidlib_sm.o(.rodata .text)
 .text          0x023b17a0      0xf34 smidlib_sm.o
                0x023b1c2c                SM_Init()
                0x023b1c84                SM_Free()
                0x023b1d34                SM_ProcMetaEvent(TSM_Track*)
                0x023b22e0                SM_isAllTrackEOF()
                0x023b2338                SM_LoadStdMIDI(unsigned char*, unsigned int)
                0x023b25a0                SM_GetDeltaTime(TSM_Track*)
                0x023b25c8                SM_ProcStdMIDI(bool, bool, TSM_Track*)
                0x023b26c4                SM_GetSamplePerClockFix16()
 .rodata        0x023b26d4       0x5c smidlib_sm.o
 sndfont.o(.rodata .text)
 .text          0x023b2730      0x684 sndfont.o
                0x023b2998                SndFont_Open()
                0x023b2b9c                SndFont_Close()
                0x023b2bf0                SndFont_SetOffset(unsigned int)
                0x023b2d90                SndFont_Read16bit(void*, unsigned int)
                0x023b2d94                SndFont_Get32bit()
 .rodata        0x023b2db4       0x48 sndfont.o
                0x023b2dfc                . = ALIGN (0x4)

.EOVR_libsnd_gme
                0x023a5c00    0x1d47c load address 0x0210fae4
                0x023a5c00                Image_EOVR_libsnd_gme_Base = .
 plug_gme.o(.rodata .text)
 .text          0x023a5c00     0x1a30 plug_gme.o
                0x023a5c54                PlugGME_Free()
                0x023a5ce0                PlugGME_Start(char const*, FAT_FILE*, int)
                0x023a682c                PlugGME_Update(unsigned int*)
                0x023a6bd8                PlugGME_GetPosMax()
                0x023a6be8                PlugGME_GetPosOffset()
                0x023a6bf8                PlugGME_SetPosOffset(int)
                0x023a6d28                PlugGME_GetSampleRate()
                0x023a6d30                PlugGME_GetChannelCount()
                0x023a6d38                PlugGME_GetSamplePerFrame()
                0x023a6d40                PlugGME_GetPlayTimeSec()
                0x023a6d48                PlugGME_GetInfoIndexCount()
                0x023a6d78                PlugGME_GetInfoStrL(int, char*, int)
                0x023a7620                PlugGME_GetInfoStrW(int, unsigned short*, int)
                0x023a7628                PlugGME_GetInfoStrUTF8(int, char*, int)
 .rodata        0x023a7630       0x38 plug_gme.o
 Ay_Apu.o(.rodata .text)
 .text          0x023a7668      0x838 Ay_Apu.o
                0x023a7668                Ay_Apu::write_data_(int, int)
                0x023a7748                Ay_Apu::reset()
                0x023a77b0                Ay_Apu::Ay_Apu()
                0x023a77b0                Ay_Apu::Ay_Apu()
                0x023a786c                Ay_Apu::run_until(int)
 .rodata        0x023a7ea0      0x110 Ay_Apu.o
 Ay_Cpu.o(.rodata .text)
 .text          0x023a7fb0     0x31a4 Ay_Cpu.o
                0x023a7fb0                Ay_Cpu::Ay_Cpu()
                0x023a7fb0                Ay_Cpu::Ay_Cpu()
                0x023a802c                Ay_Cpu::reset(void*)
                0x023a8058                Ay_Cpu::run(int)
 .rodata        0x023ab154      0x220 Ay_Cpu.o
 Ay_Emu.o(.rodata .text)
 .text          0x023ab374      0xaac Ay_Emu.o
                0x023ab374                Ay_Emu::set_tempo_(double)
                0x023ab3b8                Ay_Emu::run_clocks(int&, int)
                0x023ab5ac                Ay_Emu::update_eq(blip_eq_t const&)
                0x023ab5b8                Ay_Emu::~Ay_Emu()
                0x023ab5b8                Ay_Emu::~Ay_Emu()
                0x023ab5d8                Ay_Emu::~Ay_Emu()
                0x023ab5f4                Ay_Emu::set_voice(int, Blip_Buffer*, Blip_Buffer*, Blip_Buffer*)
                0x023ab6a0                Ay_Emu::start_track_(int)
                0x023aba78                Ay_Emu::track_info_(track_info_t*, int) const
                0x023abb04                Ay_Emu::load_mem_(unsigned char const*, long)
                0x023abbd0                Ay_Emu::Ay_Emu()
                0x023abbd0                Ay_Emu::Ay_Emu()
                0x023abc58                Ay_Emu::cpu_out_misc(int, unsigned int, int)
                0x023abda8                ay_cpu_in(Ay_Cpu*, unsigned int)
                0x023abdb0                ay_cpu_out(Ay_Cpu*, int, unsigned int, int)
 .rodata        0x023abe20      0x220 Ay_Emu.o
                0x023abe78                vtable for Ay_Emu
                0x023abf58                gme_ay_type
 Gbs_Emu.o(.rodata .text)
 .text          0x023ac040      0x7a0 Gbs_Emu.o
                0x023ac040                Gbs_Emu::unload()
                0x023ac068                Gbs_Emu::set_voice(int, Blip_Buffer*, Blip_Buffer*, Blip_Buffer*)
                0x023ac074                Gbs_Emu::update_eq(blip_eq_t const&)
                0x023ac0c0                Gbs_Emu::track_info_(track_info_t*, int) const
                0x023ac0d4                Gbs_Emu::~Gbs_Emu()
                0x023ac0d4                Gbs_Emu::~Gbs_Emu()
                0x023ac100                Gbs_Emu::~Gbs_Emu()
                0x023ac154                Gbs_Emu::load_(Data_Reader&)
                0x023ac26c                Gbs_Emu::Gbs_Emu()
                0x023ac26c                Gbs_Emu::Gbs_Emu()
                0x023ac344                Gbs_Emu::set_bank(int)
                0x023ac3c8                Gbs_Emu::update_timer()
                0x023ac46c                Gbs_Emu::set_tempo_(double)
                0x023ac48c                Gbs_Emu::cpu_jsr(unsigned int)
                0x023ac4e0                Gbs_Emu::run_clocks(int&, int)
                0x023ac600                Gbs_Emu::start_track_(int)
 .rodata        0x023ac7e0      0x1b8 Gbs_Emu.o
                0x023ac818                vtable for Gbs_Emu
                0x023ac870                gme_gbs_type
                0x023ac978                Gbs_Emu::headphones_eq
                0x023ac988                Gbs_Emu::handheld_eq
 Gb_Apu.o(.rodata .text)
 .text          0x023ac998      0x8dc Gb_Apu.o
                0x023ac998                Gb_Apu::treble_eq(blip_eq_t const&)
                0x023ac9c0                Gb_Apu::osc_output(int, Blip_Buffer*, Blip_Buffer*, Blip_Buffer*)
                0x023aca50                Gb_Apu::output(Blip_Buffer*, Blip_Buffer*, Blip_Buffer*)
                0x023aca98                Gb_Apu::update_volume()
                0x023acaf8                Gb_Apu::set_tempo(double)
                0x023acb54                Gb_Apu::run_until(int)
                0x023acd1c                Gb_Apu::end_frame(int)
                0x023acd9c                Gb_Apu::read_register(int, unsigned int)
                0x023ace54                Gb_Apu::write_register(int, unsigned int, int)
                0x023ad114                Gb_Apu::reset()
                0x023ad1a0                Gb_Apu::Gb_Apu()
                0x023ad1a0                Gb_Apu::Gb_Apu()
 .rodata        0x023ad274      0x1e4 Gb_Apu.o
 Gb_Cpu.o(.rodata .text)
 .text          0x023ad458     0x18e0 Gb_Cpu.o
                0x023ad458                Gbs_Emu::cpu_read(unsigned int)
                0x023ad4ac                Gbs_Emu::cpu_write(unsigned int, int)
                0x023ad55c                Gb_Cpu::reset(void*)
                0x023ad5cc                Gb_Cpu::map_code(unsigned int, unsigned int, void*)
                0x023ad650                Gb_Cpu::run(int)
 .rodata        0x023aed38       0x78 Gb_Cpu.o
 Gb_Oscs.o(.rodata .text)
 .text          0x023aedb0      0xaf0 Gb_Oscs.o
                0x023aedb0                Gb_Osc::reset()
                0x023aedd4                Gb_Osc::clock_length()
                0x023aedf8                Gb_Env::clock_envelope()
                0x023aee48                Gb_Env::write_register(int, int)
                0x023aeed8                Gb_Square::reset()
                0x023aeef0                Gb_Square::clock_sweep()
                0x023aef94                Gb_Apu::write_osc(int, int, int)
                0x023af0e4                Gb_Square::run(int, int, int)
                0x023af3d4                Gb_Noise::run(int, int, int)
                0x023af634                Gb_Wave::run(int, int, int)
 .rodata        0x023af8a0      0x16c Gb_Oscs.o
 gme.o(.rodata .text)
 .text          0x023afa0c      0x4d4 gme.o
                0x023afa0c                gme_type_list
                0x023afa18                gme_identify_header
                0x023afb70                gme_identify_extension
                0x023afbfc                gme_identify_file
                0x023afc08                gme_open_file
                0x023afc14                gme_new_emu
                0x023afce0                gme_load_file
                0x023afce4                gme_load_data
                0x023afd0c                gme_open_data
                0x023afddc                gme_load_custom
                0x023afe04                gme_delete
                0x023afe20                gme_type
                0x023afe28                gme_warning
                0x023afe3c                gme_track_count
                0x023afe44                gme_track_info
                0x023afe48                gme_set_stereo_depth
                0x023afe58                gme_user_data
                0x023afe60                gme_set_user_data
                0x023afe68                gme_set_user_cleanup
                0x023afe70                gme_start_track
                0x023afe74                gme_play
                0x023afe78                gme_set_fade
                0x023afe80                gme_track_ended
                0x023afe88                gme_tell
                0x023afe8c                gme_seek
                0x023afe90                gme_voice_count
                0x023afe98                gme_ignore_silence
                0x023afea8                gme_set_tempo
                0x023afeac                gme_mute_voice
                0x023afeb8                gme_mute_voices
                0x023afebc                gme_set_equalizer
                0x023afec0                gme_equalizer
                0x023afed8                gme_voice_names
 .rodata        0x023afee0       0x64 gme.o
 Hes_Apu.o(.rodata .text)
 .text          0x023aff44      0x6fc Hes_Apu.o
                0x023aff44                Hes_Apu::reset()
                0x023aff98                Hes_Apu::Hes_Apu()
                0x023aff98                Hes_Apu::Hes_Apu()
                0x023affe8                Hes_Apu::balance_changed(Hes_Osc&)
                0x023b00bc                Hes_Apu::osc_output(int, Blip_Buffer*, Blip_Buffer*, Blip_Buffer*)
                0x023b0124                Hes_Osc::run_until(Blip_Synth<8, 1>&, int)
                0x023b0450                Hes_Apu::end_frame(int)
                0x023b04cc                Hes_Apu::write_data(int, int, int)
 .rodata        0x023b0640      0x198 Hes_Apu.o
 Hes_Cpu.o(.rodata .text)
 .text          0x023b07d8     0x20b0 Hes_Cpu.o
                0x023b07d8                Hes_Emu::cpu_read(unsigned int)
                0x023b0824                Hes_Emu::cpu_write(unsigned int, int)
                0x023b0878                Hes_Cpu::reset()
                0x023b0930                Hes_Cpu::set_mmr(int, int)
                0x023b0a6c                Hes_Cpu::run(int)
 .rodata        0x023b2888      0x1a0 Hes_Cpu.o
 Hes_Emu.o(.rodata .text)
 .text          0x023b2a28      0xe14 Hes_Emu.o
                0x023b2a28                Hes_Emu::set_tempo_(double)
                0x023b2aac                Hes_Emu::unload()
                0x023b2adc                Hes_Emu::set_voice(int, Blip_Buffer*, Blip_Buffer*, Blip_Buffer*)
                0x023b2ae8                Hes_Emu::update_eq(blip_eq_t const&)
                0x023b2bc4                Hes_Emu::start_track_(int)
                0x023b2d3c                Hes_Emu::~Hes_Emu()
                0x023b2d3c                Hes_Emu::~Hes_Emu()
                0x023b2d6c                Hes_Emu::~Hes_Emu()
                0x023b2d88                Hes_Emu::track_info_(track_info_t*, int) const
                0x023b2df0                Hes_Emu::load_(Data_Reader&)
                0x023b3024                Hes_Emu::Hes_Emu()
                0x023b3024                Hes_Emu::Hes_Emu()
                0x023b3104                Hes_Emu::recalc_timer_load()
                0x023b3130                Hes_Emu::run_until(int)
                0x023b31c8                Hes_Emu::run_clocks(int&, int)
                0x023b3314                Hes_Emu::irq_changed()
                0x023b3440                Hes_Emu::cpu_read_(unsigned int)
                0x023b3554                Hes_Emu::cpu_write_vdp(int, int)
                0x023b35e8                Hes_Emu::cpu_write_(unsigned int, int)
                0x023b3788                Hes_Emu::cpu_done()
 *fill*         0x023b383c        0x4 00
 .rodata        0x023b3840      0x128 Hes_Emu.o
                0x023b3878                vtable for Hes_Emu
                0x023b38d0                gme_hes_type
 Kss_Cpu.o(.rodata .text)
 .text          0x023b3968     0x43a8 Kss_Cpu.o
                0x023b3968                Kss_Cpu::Kss_Cpu()
                0x023b3968                Kss_Cpu::Kss_Cpu()
                0x023b39e4                Kss_Cpu::reset(void*, void const*)
                0x023b3a24                Kss_Cpu::map_mem(unsigned int, unsigned int, void*, void const*)
                0x023b3acc                Kss_Cpu::run(int)
 .rodata        0x023b7d10      0x268 Kss_Cpu.o
 Kss_Emu.o(.rodata .text)
 .text          0x023b7f78      0xcfc Kss_Emu.o
                0x023b7f78                Kss_Emu::set_tempo_(double)
                0x023b7fac                Kss_Emu::update_eq(blip_eq_t const&)
                0x023b8040                Kss_Emu::unload()
                0x023b80bc                Kss_Emu::track_info_(track_info_t*, int) const
                0x023b80d0                Kss_Emu::set_voice(int, Blip_Buffer*, Blip_Buffer*, Blip_Buffer*)
                0x023b8170                Kss_Emu::load_(Data_Reader&)
                0x023b82d0                Kss_Emu::~Kss_Emu()
                0x023b82d0                Kss_Emu::~Kss_Emu()
                0x023b8300                Kss_Emu::~Kss_Emu()
                0x023b8354                Kss_Emu::Kss_Emu()
                0x023b8354                Kss_Emu::Kss_Emu()
                0x023b842c                Kss_Emu::update_gain()
                0x023b8504                Kss_Emu::run_clocks(int&, int)
                0x023b870c                Kss_Emu::start_track_(int)
                0x023b8994                Kss_Emu::set_bank(int, int)
                0x023b8aa8                Kss_Emu::cpu_write(unsigned int, int)
                0x023b8b58                kss_cpu_write(Kss_Cpu*, unsigned int, int)
                0x023b8b98                kss_cpu_out(Kss_Cpu*, int, unsigned int, int)
                0x023b8c6c                kss_cpu_in(Kss_Cpu*, int, unsigned int)
 *fill*         0x023b8c74        0x4 00
 .rodata        0x023b8c78      0x230 Kss_Emu.o
                0x023b8d08                vtable for Kss_Emu
                0x023b8d60                gme_kss_type
 Kss_Scc_Apu.o(.rodata .text)
 .text          0x023b8ea8      0x218 Kss_Scc_Apu.o
                0x023b8ea8                Scc_Apu::run_until(int)
 .rodata        0x023b90c0       0xb0 Kss_Scc_Apu.o
 Nes_Apu.o(.rodata .text)
 .text          0x023b9170      0xbf4 Nes_Apu.o
                0x023b9170                Nes_Apu::treble_eq(blip_eq_t const&)
                0x023b91b0                Nes_Apu::enable_nonlinear(double)
                0x023b9254                Nes_Apu::volume(double)
                0x023b9334                Nes_Apu::output(Blip_Buffer*)
                0x023b9364                Nes_Apu::set_tempo(double)
                0x023b93e4                Nes_Apu::irq_changed()
                0x023b9438                Nes_Apu::run_until(int)
                0x023b94b8                Nes_Apu::run_until_(int)
                0x023b96b8                Nes_Apu::write_register(int, unsigned int, int)
                0x023b98b8                Nes_Apu::reset(bool, int)
                0x023b9a34                Nes_Apu::Nes_Apu()
                0x023b9a34                Nes_Apu::Nes_Apu()
                0x023b9b0c                Nes_Apu::read_status(int)
                0x023b9b8c                Nes_Apu::end_frame(int)
 .rodata        0x023b9d64      0x22c Nes_Apu.o
 Nes_Cpu.o(.rodata .text)
 .text          0x023b9f90     0x1aa4 Nes_Cpu.o
                0x023b9f90                Nsf_Emu::cpu_read(unsigned int)
                0x023ba04c                Nes_Cpu::map_code(unsigned int, unsigned int, void const*, bool)
                0x023ba0f0                Nes_Cpu::reset(void const*)
                0x023ba1bc                Nsf_Emu::cpu_write(unsigned int, int)
                0x023ba2e8                Nes_Cpu::run(int)
 .rodata        0x023bba34      0x1cc Nes_Cpu.o
 Nes_Fme7_Apu.o(.rodata .text)
 .text          0x023bbc00      0x410 Nes_Fme7_Apu.o
                0x023bbc00                Nes_Fme7_Apu::reset()
                0x023bbc1c                Nes_Fme7_Apu::run_until(int)
 .rodata        0x023bc010       0xec Nes_Fme7_Apu.o
                0x023bc0ec                Nes_Fme7_Apu::amp_table
 Nes_Namco_Apu.o(.rodata .text)
 .text          0x023bc0fc      0x4e0 Nes_Namco_Apu.o
                0x023bc0fc                Nes_Namco_Apu::reset()
                0x023bc150                Nes_Namco_Apu::output(Blip_Buffer*)
                0x023bc174                Nes_Namco_Apu::Nes_Namco_Apu()
                0x023bc174                Nes_Namco_Apu::Nes_Namco_Apu()
                0x023bc20c                Nes_Namco_Apu::run_until(int)
                0x023bc588                Nes_Namco_Apu::end_frame(int)
 .rodata        0x023bc5dc       0xdc Nes_Namco_Apu.o
 Nes_Oscs.o(.rodata .text)
 .text          0x023bc6b8     0x1120 Nes_Oscs.o
                0x023bc6b8                Nes_Osc::clock_length(int)
                0x023bc6d8                Nes_Envelope::clock_envelope()
                0x023bc738                Nes_Envelope::volume() const
                0x023bc760                Nes_Square::clock_sweep(int)
                0x023bc804                Nes_Triangle::clock_linear_counter()
                0x023bc848                Nes_Dmc::reset()
                0x023bc890                Nes_Dmc::recalc_irq()
                0x023bc8f0                Nes_Dmc::count_reads(int, int*) const
                0x023bc980                Nes_Dmc::write_register(int, int)
                0x023bca20                Nes_Dmc::fill_buffer()
                0x023bcb08                Nes_Dmc::start()
                0x023bcb40                Nes_Square::run(int, int)
                0x023bcf14                Nes_Noise::run(int, int)
                0x023bd210                Nes_Dmc::run(int, int)
                0x023bd500                Nes_Triangle::run(int, int)
 .rodata        0x023bd7d8      0x25c Nes_Oscs.o
 Nes_Vrc6_Apu.o(.rodata .text)
 .text          0x023bda34      0x610 Nes_Vrc6_Apu.o
                0x023bda34                Nes_Vrc6_Apu::reset()
                0x023bda84                Nes_Vrc6_Apu::output(Blip_Buffer*)
                0x023bda94                Nes_Vrc6_Apu::Nes_Vrc6_Apu()
                0x023bda94                Nes_Vrc6_Apu::Nes_Vrc6_Apu()
                0x023bdb4c                Nes_Vrc6_Apu::save_state(vrc6_apu_state_t*) const
                0x023bdbb8                Nes_Vrc6_Apu::load_state(vrc6_apu_state_t const&)
                0x023bdc74                Nes_Vrc6_Apu::run_square(Nes_Vrc6_Apu::Vrc6_Osc&, int)
                0x023bde04                Nes_Vrc6_Apu::run_saw(int)
                0x023bdf18                Nes_Vrc6_Apu::run_until(int)
                0x023bdf80                Nes_Vrc6_Apu::end_frame(int)
                0x023bdfd4                Nes_Vrc6_Apu::write_osc(int, int, int, int)
 .rodata        0x023be044      0x1f4 Nes_Vrc6_Apu.o
 Nsf_Emu.o(.rodata .text)
 .text          0x023be238      0xf98 Nsf_Emu.o
                0x023be238                Nsf_Emu::pcm_read(void*, unsigned int)
                0x023be250                Nsf_Emu::unload()
                0x023be29c                Nsf_Emu::run_clocks(int&, int)
                0x023be54c                Nsf_Emu::set_tempo_(double)
                0x023be6a0                Nsf_Emu::start_track_(int)
                0x023be8a8                Nsf_Emu::track_info_(track_info_t*, int) const
                0x023be8c0                Nsf_Emu::set_voice(int, Blip_Buffer*, Blip_Buffer*, Blip_Buffer*)
                0x023be9d0                Nsf_Emu::update_eq(blip_eq_t const&)
                0x023bea3c                Nsf_Emu::~Nsf_Emu()
                0x023bea3c                Nsf_Emu::~Nsf_Emu()
                0x023bea6c                Nsf_Emu::~Nsf_Emu()
                0x023beac0                Nsf_Emu::Nsf_Emu()
                0x023beac0                Nsf_Emu::Nsf_Emu()
                0x023bebb0                Nsf_Emu::init_sound()
                0x023bee84                Nsf_Emu::load_(Data_Reader&)
                0x023bf0bc                Nsf_Emu::cpu_write_misc(unsigned int, int)
 .rodata        0x023bf1d0      0x2b8 Nsf_Emu.o
                0x023bf2c8                vtable for Nsf_Emu
                0x023bf320                gme_nsf_type
                0x023bf338                Nsf_Emu::nes_eq
                0x023bf478                Nsf_Emu::famicom_eq
 Sap_Apu.o(.rodata .text)
 .text          0x023bf488      0x730 Sap_Apu.o
                0x023bf488                Sap_Apu_Impl::Sap_Apu_Impl()
                0x023bf488                Sap_Apu_Impl::Sap_Apu_Impl()
                0x023bf568                Sap_Apu::Sap_Apu()
                0x023bf568                Sap_Apu::Sap_Apu()
                0x023bf584                Sap_Apu::reset(Sap_Apu_Impl*)
                0x023bf5cc                Sap_Apu::run_until(int)
                0x023bfb1c                Sap_Apu::end_frame(int)
                0x023bfb48                Sap_Apu::write_data(int, unsigned int, int)
 .rodata        0x023bfbb8       0xb8 Sap_Apu.o
 Sap_Cpu.o(.rodata .text)
 .text          0x023bfc70     0x185c Sap_Cpu.o
                0x023bfc70                Sap_Emu::cpu_write(unsigned int, int)
                0x023bfc88                Sap_Emu::cpu_read(unsigned int)
                0x023bfc94                Sap_Cpu::reset(void*)
                0x023bfd1c                Sap_Cpu::run(int)
 .rodata        0x023c14cc      0x120 Sap_Cpu.o
 Sap_Emu.o(.rodata .text)
 .text          0x023c15ec      0xc0c Sap_Emu.o
                0x023c1638                Sap_Emu::set_tempo_(double)
                0x023c16ec                Sap_Emu::update_eq(blip_eq_t const&)
                0x023c1734                Sap_Emu::track_info_(track_info_t*, int) const
                0x023c1748                Sap_Emu::~Sap_Emu()
                0x023c1748                Sap_Emu::~Sap_Emu()
                0x023c1768                Sap_Emu::~Sap_Emu()
                0x023c1784                Sap_Emu::set_voice(int, Blip_Buffer*, Blip_Buffer*, Blip_Buffer*)
                0x023c1c48                Sap_Emu::load_mem_(unsigned char const*, long)
                0x023c1d3c                Sap_Emu::Sap_Emu()
                0x023c1d3c                Sap_Emu::Sap_Emu()
                0x023c1dc8                Sap_Emu::cpu_jsr(unsigned int)
                0x023c1e68                Sap_Emu::run_clocks(int&, int)
                0x023c1fc0                Sap_Emu::run_routine(unsigned int)
                0x023c1fe0                Sap_Emu::start_track_(int)
                0x023c2178                Sap_Emu::cpu_write_(unsigned int, int)
 .rodata        0x023c21f8      0x118 Sap_Emu.o
                0x023c2230                vtable for Sap_Emu
                0x023c22b4                gme_sap_type
 Sms_Apu.o(.rodata .text)
 .text          0x023c2310      0xafc Sms_Apu.o
                0x023c2310                Sms_Osc::Sms_Osc()
                0x023c2310                Sms_Osc::Sms_Osc()
                0x023c232c                Sms_Osc::reset()
                0x023c2350                Sms_Apu::~Sms_Apu()
                0x023c2350                Sms_Apu::~Sms_Apu()
                0x023c2354                Sms_Apu::volume(double)
                0x023c23a8                Sms_Apu::treble_eq(blip_eq_t const&)
                0x023c23d0                Sms_Apu::osc_output(int, Blip_Buffer*, Blip_Buffer*, Blip_Buffer*)
                0x023c2460                Sms_Apu::output(Blip_Buffer*, Blip_Buffer*, Blip_Buffer*)
                0x023c24a8                Sms_Apu::reset(unsigned int, int)
                0x023c2568                Sms_Apu::Sms_Apu()
                0x023c2568                Sms_Apu::Sms_Apu()
                0x023c2634                Sms_Square::run(int, int)
                0x023c292c                Sms_Noise::run(int, int)
                0x023c2b5c                Sms_Apu::run_until(int)
                0x023c2c00                Sms_Apu::write_data(int, int)
                0x023c2cf4                Sms_Apu::write_ggstereo(int, int)
                0x023c2db4                Sms_Apu::end_frame(int)
 .rodata        0x023c2e0c      0x270 Sms_Apu.o
                0x023c307c                . = ALIGN (0x4)

.EOVR_libsnd_ogg
                0x023a5c00    0x1621c load address 0x0212cf60
                0x023a5c00                Image_EOVR_libsnd_ogg_Base = .
 plug_ogg.o(.rodata .text)
 .text          0x023a5c00      0x6b4 plug_ogg.o
                0x023a5c00                callbacks_close_func(void*)
                0x023a5c08                callbacks_tell_func(void*)
                0x023a5c0c                callbacks_seek_func(void*, long long, int)
                0x023a5c18                callbacks_read_func(void*, unsigned int, unsigned int, void*)
                0x023a5c1c                PlugOGG_Free()
                0x023a5c74                PlugOGG_Start(FAT_FILE*)
                0x023a5f00                PlugOGG_Update(unsigned int*)
                0x023a608c                PlugOGG_GetPosMax()
                0x023a609c                PlugOGG_GetPosOffset()
                0x023a60ac                PlugOGG_SetPosOffset(int)
                0x023a60f8                PlugOGG_GetChannelCount()
                0x023a6108                PlugOGG_GetSampleRate()
                0x023a6118                PlugOGG_GetSamplePerFrame()
                0x023a6120                PlugOGG_GetPlayTimeSec()
                0x023a6128                PlugOGG_GetInfoIndexCount()
                0x023a6148                PlugOGG_GetInfoStrL(int, char*, int)
                0x023a6254                PlugOGG_GetInfoStrW(int, unsigned short*, int)
                0x023a625c                PlugOGG_GetInfoStrUTF8(int, char*, int)
 .rodata        0x023a62b4       0x10 plug_ogg.o
 bitwise.o(.rodata .text)
 .text          0x023a62c4      0x44c bitwise.o
                0x023a6378                oggpack_readinit
                0x023a63bc                oggpack_look
                0x023a65fc                oggpack_adv
                0x023a6644                oggpack_eop
                0x023a6658                oggpack_read
                0x023a6680                oggpack_bytes
                0x023a66cc                oggpack_bits
 .rodata        0x023a6710       0x84 bitwise.o
 codebook.o(.rodata .text)
 .text          0x023a6794     0x1c28 codebook.o
                0x023a6ffc                _ilog
                0x023a7020                _book_maptype1_quantvals
                0x023a70cc                vorbis_book_clear
                0x023a7108                vorbis_book_unpack
                0x023a7930                vorbis_book_decode
                0x023a7bfc                decode_map
                0x023a80c8                vorbis_book_decodevs_add
                0x023a8184                vorbis_book_decodev_add
                0x023a8240                vorbis_book_decodev_set
                0x023a82ec                vorbis_book_decodevv_add
 floor0.o(.rodata .text)
 .text          0x023a83bc      0xab4 floor0.o
                0x023a83bc                vorbis_lsp_to_curve
                0x023a8b5c                floor0_free_info
                0x023a8b68                floor0_info_unpack
                0x023a8c7c                floor0_memosize
                0x023a8c88                floor0_inverse1
                0x023a8de4                floor0_inverse2
 .rodata        0x023a8e70      0x504 floor0.o
 floor1.o(.rodata .text)
 .text          0x023a9374      0xc58 floor1.o
                0x023a9374                floor1_free_info
                0x023a93fc                floor1_info_unpack
                0x023a9a2c                floor1_memosize
                0x023a9a34                floor1_inverse1
                0x023a9d78                floor1_inverse2
 .rodata        0x023a9fcc       0x10 floor1.o
 framing.o(.rodata .text)
 .text          0x023a9fdc     0x1584 framing.o
                0x023aa578                ogg_buffer_dup
                0x023aa5fc                ogg_page_version
                0x023aa634                ogg_page_continued
                0x023aa670                ogg_page_bos
                0x023aa6ac                ogg_page_eos
                0x023aa6e8                ogg_page_granulepos
                0x023aa7b8                ogg_page_serialno
                0x023aa7f0                ogg_page_pageno
                0x023aa828                ogg_page_packets
                0x023aa890                ogg_sync_create
                0x023aa8e4                ogg_sync_bufferin
                0x023aa9c8                ogg_sync_wrote
                0x023aaa24                ogg_sync_reset
                0x023aaa54                ogg_sync_destroy
                0x023aaa94                ogg_stream_create
                0x023aaab8                ogg_stream_destroy
                0x023aaae4                ogg_stream_reset
                0x023aab50                ogg_stream_reset_serialno
                0x023aab6c                ogg_packet_release
                0x023ab020                ogg_stream_packetpeek
                0x023ab028                ogg_stream_packetout
                0x023ab030                ogg_page_release
                0x023ab064                ogg_stream_pagein
                0x023ab1e0                ogg_sync_pageseek
                0x023ab4e0                ogg_sync_pageout
                0x023ab528                ogg_page_dup
 .rodata        0x023ab560      0x400 framing.o
 info.o(.rodata .text)
 .text          0x023ab960      0xa38 info.o
                0x023aba14                vorbis_comment_init
                0x023aba20                vorbis_comment_query
                0x023abae4                vorbis_comment_query_count
                0x023abb84                vorbis_comment_clear
                0x023abc0c                vorbis_info_blocksize
                0x023abc20                vorbis_info_init
                0x023abc48                vorbis_info_clear
                0x023abdb4                vorbis_dsp_headerin
 mapping0.o(.rodata .text)
 .text          0x023ac398      0x75c mapping0.o
                0x023ac398                mapping_clear_info
                0x023ac3e8                mapping_info_unpack
                0x023ac658                mapping_inverse
 _libogg_misc.o(.rodata .text)
 .text          0x023acaf4        0x0 _libogg_misc.o
 res012.o(.rodata .text)
 .text          0x023acaf4      0x85c res012.o
                0x023acaf4                res_clear_info
                0x023acb34                res_unpack
                0x023acd14                res_inverse
 vorbisfile.o(.rodata .text)
 .text          0x023ad350     0x2a48 vorbisfile.o
                0x023adfe0                ov_clear
                0x023ae184                fclose_dummy
                0x023ae18c                ov_test_callbacks
                0x023ae1b8                ov_streams
                0x023ae1c0                ov_seekable
                0x023ae1c8                ov_bitrate_instant
                0x023ae21c                ov_serialnumber
                0x023ae274                ov_raw_total
                0x023ae324                ov_pcm_total
                0x023ae3b4                ov_time_total
                0x023ae470                ov_bitrate
                0x023ae5c8                ov_raw_seek
                0x023aed6c                ov_test_open
                0x023aedc0                ov_open_callbacks
                0x023aee4c                ov_pcm_seek_page
                0x023af4e4                ov_pcm_seek
                0x023af860                ov_time_seek
                0x023af998                ov_time_seek_page
                0x023afad0                ov_raw_tell
                0x023afaf8                ov_pcm_tell
                0x023afb20                ov_time_tell
                0x023afc44                ov_info
                0x023afc88                ov_comment
                0x023afccc                ov_read
 _libogg_dsp.o(.rodata .text)
 .text          0x023afd98      0x7f0 _libogg_dsp.o
                0x023afe48                vorbis_dsp_restart
                0x023afe98                vorbis_dsp_create
                0x023aff8c                vorbis_dsp_destroy
                0x023b0038                vorbis_dsp_pcmout
                0x023b0150                vorbis_dsp_read
                0x023b0184                vorbis_packet_blocksize
                0x023b0204                vorbis_dsp_synthesis
 .rodata        0x023b0588     0x7f80 _libogg_dsp.o
 _libogg_mdct.o(.rodata .text)
 .text          0x023b8508     0x18fc _libogg_mdct.o
                0x023b8508                mdct_backward
                0x023b9994                mdct_shift_right
                0x023b99c4                mdct_unroll_lap
 .rodata        0x023b9e04     0x2018 _libogg_mdct.o
                0x023bbe1c                . = ALIGN (0x4)

.EOVR_libsnd_wave
                0x023a5c00      0x6c8 load address 0x0214317c
                0x023a5c00                Image_EOVR_libsnd_wave_Base = .
 plug_wav.o(.rodata .text)
 .text          0x023a5c00      0x690 plug_wav.o
                0x023a5c00                PlugWAVE_Start(FAT_FILE*)
                0x023a5f8c                PlugWAVE_Free()
                0x023a5fdc                PlugWAVE_Update(unsigned int*)
                0x023a6108                PlugWAVE_GetPosMax()
                0x023a6118                PlugWAVE_GetPosOffset()
                0x023a6128                PlugWAVE_SetPosOffset(int)
                0x023a6154                PlugWAVE_GetChannelCount()
                0x023a6164                PlugWAVE_GetSampleRate()
                0x023a6174                PlugWAVE_GetSamplePerFrame()
                0x023a6184                PlugWAVE_GetPlayTimeSec()
                0x023a61a0                PlugWAVE_GetInfoIndexCount()
                0x023a61a8                PlugWAVE_GetInfoStrL(int, char*, int)
                0x023a6280                PlugWAVE_GetInfoStrW(int, unsigned short*, int)
                0x023a6288                PlugWAVE_GetInfoStrUTF8(int, char*, int)
 .rodata        0x023a6290       0x38 plug_wav.o
                0x023a62c8                . = ALIGN (0x4)

.EOVR_libimg_jpeg
                0x02395c00     0xc134 load address 0x02143844
                0x02395c00                Image_EOVR_libimg_jpeg_Base = .
 plug_jpeg.o(.rodata .text)
 .text          0x02395c00     0x1168 plug_jpeg.o
                0x02395f4c                DFS_PrgJpeg_fopen(unsigned int)
                0x02396044                DFS_PrgJpeg_fclose(unsigned int)
                0x023960ac                DFS_PrgJpeg_fread(unsigned int, unsigned int, unsigned char*, unsigned int)
                0x02396264                DFS_PrgJpeg_fwrite(unsigned int, unsigned int, unsigned char*, unsigned int)
                0x02396458                PlugJpeg_Start(FAT_FILE*, bool)
                0x023969fc                PlugJpeg_Free()
                0x02396b24                PlugJpeg_GetBitmap24(unsigned int, unsigned char*)
                0x02396c94                PlugJpeg_GetWidth()
                0x02396ca4                PlugJpeg_GetHeight()
                0x02396cb4                PlugJpeg_GetInfoIndexCount()
                0x02396cd0                PlugJpeg_GetInfoStrL(int, char*, int)
                0x02396d58                PlugJpeg_GetInfoStrW(int, unsigned short*, int)
                0x02396d60                PlugJpeg_GetInfoStrUTF8(int, char*, int)
 .rodata        0x02396d68       0xec plug_jpeg.o
 jcomapi.o(.rodata .text)
 .text          0x02396e54       0xb8 jcomapi.o
                0x02396e54                jpeg_abort(jpeg_common_struct*)
                0x02396e98                jpeg_destroy(jpeg_common_struct*)
                0x02396ec4                jpeg_alloc_quant_table(jpeg_common_struct*)
                0x02396ee8                jpeg_alloc_huff_table(jpeg_common_struct*)
 jdapimin.o(.rodata .text)
 .text          0x02396f0c      0x5ac jdapimin.o
                0x02396f0c                jpeg_CreateDecompress(jpeg_decompress_struct*, int, unsigned int)
                0x02397010                jpeg_destroy_decompress(jpeg_decompress_struct*)
                0x02397014                jpeg_abort_decompress(jpeg_decompress_struct*)
                0x02397018                jpeg_consume_input(jpeg_decompress_struct*)
                0x023972cc                jpeg_read_header(jpeg_decompress_struct*, int)
                0x02397354                jpeg_input_complete(jpeg_decompress_struct*)
                0x02397394                jpeg_has_multiple_scans(jpeg_decompress_struct*)
                0x023973d4                jpeg_finish_decompress(jpeg_decompress_struct*)
 jdapistd.o(.rodata .text)
 .text          0x023974b8      0x474 jdapistd.o
                0x0239753c                jpeg_start_decompress(jpeg_decompress_struct*)
                0x0239764c                jpeg_read_scanlines(jpeg_decompress_struct*, unsigned char**, unsigned int)
                0x0239771c                jpeg_read_raw_data(jpeg_decompress_struct*, unsigned char***, unsigned int)
                0x0239780c                jpeg_start_output(jpeg_decompress_struct*, int)
                0x0239787c                jpeg_finish_output(jpeg_decompress_struct*)
 jdatasrc.o(.rodata .text)
 .text          0x0239792c      0x1b8 jdatasrc.o
                0x02397a3c                jpeg_stdio_src(jpeg_decompress_struct*, __sFILE*)
 jdcoefct.o(.rodata .text)
 .text          0x02397ae4      0x884 jdcoefct.o
                0x02398224                jinit_d_coef_controller(jpeg_decompress_struct*, int)
 jdcolor.o(.rodata .text)
 .text          0x02398368      0x638 jdcolor.o
                0x023987ac                jinit_color_deconverter(jpeg_decompress_struct*)
 jddctmgr.o(.rodata .text)
 .text          0x023989a0      0x248 jddctmgr.o
                0x02398b58                jinit_inverse_dct(jpeg_decompress_struct*)
 .rodata        0x02398be8       0x80 jddctmgr.o
 jdhuff.o(.rodata .text)
 .text          0x02398c68      0xcdc jdhuff.o
                0x02398c68                jpeg_make_d_derived_tbl(jpeg_decompress_struct*, int, int, d_derived_tbl**)
                0x0239916c                jpeg_fill_bit_buffer(bitread_working_state*, long, int, int)
                0x023992b8                jpeg_huff_decode(bitread_working_state*, long, int, d_derived_tbl*, int)
                0x023998e4                jinit_huff_decoder(jpeg_decompress_struct*)
 .rodata        0x02399944       0x80 jdhuff.o
 jdinput.o(.rodata .text)
 .text          0x023999c4      0x68c jdinput.o
                0x02399fe8                jinit_input_controller(jpeg_decompress_struct*)
 jdmainct.o(.rodata .text)
 .text          0x0239a050      0x784 jdmainct.o
                0x0239a608                jinit_d_main_controller(jpeg_decompress_struct*, int)
 jdmarker.o(.rodata .text)
 .text          0x0239a7d4     0x1ca4 jdmarker.o
                0x0239c230                jpeg_resync_to_restart(jpeg_decompress_struct*, int)
                0x0239c38c                jinit_marker_reader(jpeg_decompress_struct*)
                0x0239c430                jpeg_set_marker_processor(jpeg_decompress_struct*, int, int (*)(jpeg_decompress_struct*))
 jdmaster.o(.rodata .text)
 .text          0x0239c478      0x920 jdmaster.o
                0x0239c740                jpeg_calc_output_dimensions(jpeg_decompress_struct*)
                0x0239c9ac                jpeg_new_colormap(jpeg_decompress_struct*)
                0x0239ca40                jinit_master_decompress(jpeg_decompress_struct*)
 jdmerge.o(.rodata .text)
 .text          0x0239cd98      0x6d4 jdmerge.o
                0x0239d2d4                jinit_merged_upsampler(jpeg_decompress_struct*)
 jdphuff.o(.rodata .text)
 .text          0x0239d46c      0xe88 jdphuff.o
                0x0239e258                jinit_phuff_decoder(jpeg_decompress_struct*)
 .rodata        0x0239e2f4       0x80 jdphuff.o
 jdpostct.o(.rodata .text)
 .text          0x0239e374      0x1c0 jdpostct.o
                0x0239e494                jinit_d_post_controller(jpeg_decompress_struct*, int)
 jdsample.o(.rodata .text)
 .text          0x0239e534      0x83c jdsample.o
                0x0239eac4                jinit_upsampler(jpeg_decompress_struct*)
 jerror.o(.rodata .text)
 .text          0x0239ed70      0x220 jerror.o
                0x0239ef20                jpeg_std_error(jpeg_error_mgr*)
 .rodata        0x0239ef90      0x1f4 jerror.o
 jidctfst.o(.rodata .text)
 .text          0x0239f184       0x40 jidctfst.o
                0x0239f184                jpeg_idct_ifast(jpeg_decompress_struct*, jpeg_component_info*, short*, unsigned char**, unsigned int)
 jidctred.o(.rodata .text)
 .text          0x0239f1c4      0x6fc jidctred.o
                0x0239f1c4                jpeg_idct_4x4(jpeg_decompress_struct*, jpeg_component_info*, short*, unsigned char**, unsigned int)
                0x0239f60c                jpeg_idct_2x2(jpeg_decompress_struct*, jpeg_component_info*, short*, unsigned char**, unsigned int)
                0x0239f88c                jpeg_idct_1x1(jpeg_decompress_struct*, jpeg_component_info*, short*, unsigned char**, unsigned int)
 jmemansi.o(.rodata .text)
 .text          0x0239f8c0      0x240 jmemansi.o
                0x0239f954                jpeg_get_small(jpeg_common_struct*, unsigned int)
                0x0239f9b0                jpeg_free_small(jpeg_common_struct*, void*, unsigned int)
                0x0239f9e4                jpeg_get_large(jpeg_common_struct*, unsigned int)
                0x0239fa40                jpeg_free_large(jpeg_common_struct*, void*, unsigned int)
                0x0239fa74                jpeg_mem_available(jpeg_common_struct*, long, long, long)
                0x0239fa84                jpeg_open_backing_store(jpeg_common_struct*, backing_store_struct*, long)
                0x0239fad8                jpeg_mem_init(jpeg_common_struct*)
                0x0239fafc                jpeg_mem_term(jpeg_common_struct*)
 .rodata        0x0239fb00       0x40 jmemansi.o
 jmemmgr.o(.rodata .text)
 .text          0x0239fb40     0x1108 jmemmgr.o
                0x023a0b34                jinit_memory_mgr(jpeg_common_struct*)
 .rodata        0x023a0c48       0x10 jmemmgr.o
 jquant1.o(.rodata .text)
 .text          0x023a0c58      0xe08 jquant1.o
                0x023a16b0                jinit_1pass_quantizer(jpeg_decompress_struct*)
 .rodata        0x023a1a60      0x10c jquant1.o
 jutils.o(.rodata .text)
 .text          0x023a1b6c       0x88 jutils.o
                0x023a1b6c                jdiv_round_up(long, long)
                0x023a1b80                jround_up(long, long)
                0x023a1b9c                jcopy_sample_rows(unsigned char**, int, unsigned char**, int, int, unsigned int)
                0x023a1bd4                jcopy_block_row(short (*) [64], short (*) [64], unsigned int)
                0x023a1be8                jzero_far(void*, unsigned int)
 .rodata        0x023a1bf4      0x140 jutils.o
                0x023a1bf4                jpeg_natural_order
                0x023a1d34                . = ALIGN (0x4)

.EOVR_libimg_png
                0x02395c00     0xd848 load address 0x0214f978
                0x02395c00                Image_EOVR_libimg_png_Base = .
 plug_png.o(.rodata .text)
 .text          0x02395c00      0x9dc plug_png.o
                0x02395d14                png_debug_malloc(png_struct_def*, unsigned long)
                0x02395ea0                read_row_callback(png_struct_def*, unsigned long, int)
                0x02395ef0                count_filters(png_struct_def*, png_row_info_struct*, unsigned char*)
                0x02395f1c                png_debug_free(png_struct_def*, void*)
                0x0239602c                _fopen(FAT_FILE*)
                0x0239603c                _fclose(FAT_FILE*)
                0x02396050                _fread(void*, unsigned int, unsigned int, FAT_FILE*)
                0x02396054                _fwrite(void const*, unsigned int, unsigned int, FAT_FILE*)
                0x0239605c                write_row_callback(png_struct_def*, unsigned long, int)
                0x02396060                ndspng_malloc(png_struct_def*, unsigned long)
                0x023960dc                ndspng_free(png_struct_def*, void*)
                0x02396140                PNGINT_Init(FAT_FILE*)
                0x02396524                PNGINT_Free()
                0x02396528                PNGINT_GetWidth()
                0x02396538                PNGINT_GetHeight()
                0x02396548                PNGINT_GetNextLine(unsigned char*)
                0x0239654c                PlugPng_Start(FAT_FILE*)
                0x02396578                PlugPng_Free()
                0x0239657c                PlugPng_GetBitmap24(unsigned int, unsigned char*)
                0x02396598                PlugPng_GetWidth()
                0x023965a8                PlugPng_GetHeight()
                0x023965bc                PlugPng_GetInfoIndexCount()
                0x023965c4                PlugPng_GetInfoStrL(int, char*, int)
                0x023965cc                PlugPng_GetInfoStrW(int, unsigned short*, int)
                0x023965d4                PlugPng_GetInfoStrUTF8(int, char*, int)
 .rodata        0x023965dc       0x50 plug_png.o
 png.o(.rodata .text)
 .text          0x0239662c      0x794 png.o
                0x0239662c                png_set_sig_bytes
                0x02396660                png_sig_cmp
                0x023966d8                png_check_sig
                0x023966f4                png_zalloc
                0x02396750                png_zfree
                0x02396754                png_reset_crc
                0x02396774                png_calculate_crc
                0x023967b4                png_info_init_3
                0x023967f4                png_info_init
                0x02396818                png_create_info_struct
                0x02396864                png_data_freer
                0x023968ac                png_free_data
                0x02396cbc                png_info_destroy
                0x02396cf0                png_destroy_info_struct
                0x02396d38                png_get_io_ptr
                0x02396d44                png_get_copyright
                0x02396d58                png_get_libpng_ver
                0x02396d6c                png_get_header_ver
                0x02396d80                png_get_header_version
                0x02396d94                png_reset_zstream
                0x02396dac                png_access_version_number
                0x02396db8                png_mmx_support
 .rodata        0x02396dc0        0x8 png.o
 pngerror.o(.rodata .text)
 .text          0x02396dc8      0x1b0 pngerror.o
                0x02396e8c                png_error
                0x02396eac                png_warning
                0x02396f04                png_chunk_error
                0x02396f2c                png_chunk_warning
                0x02396f5c                png_set_error_fn
                0x02396f6c                png_get_error_ptr
 .rodata        0x02396f78       0x10 pngerror.o
 pngget.o(.rodata .text)
 .text          0x02396f88      0x9c8 pngget.o
                0x02396f88                png_get_valid
                0x02396fa4                png_get_rowbytes
                0x02396fbc                png_get_rows
                0x02396fd4                png_get_image_width
                0x02396fec                png_get_image_height
                0x02397004                png_get_bit_depth
                0x0239701c                png_get_color_type
                0x02397034                png_get_filter_type
                0x0239704c                png_get_interlace_type
                0x02397064                png_get_compression_type
                0x0239707c                png_get_x_pixels_per_meter
                0x023970b0                png_get_y_pixels_per_meter
                0x023970e4                png_get_pixels_per_meter
                0x02397130                png_get_x_offset_microns
                0x02397164                png_get_y_offset_microns
                0x02397198                png_get_x_offset_pixels
                0x023971cc                png_get_y_offset_pixels
                0x02397200                png_get_channels
                0x02397218                png_get_signature
                0x02397230                png_get_bKGD
                0x02397268                png_get_cHRM_fixed
                0x02397318                png_get_gAMA_fixed
                0x02397350                png_get_sRGB
                0x02397388                png_get_iCCP
                0x02397408                png_get_sPLT
                0x02397428                png_get_hIST
                0x02397460                png_get_IHDR
                0x023975f0                png_get_oFFs
                0x0239765c                png_get_pCAL
                0x02397738                png_get_sCAL_s
                0x0239777c                png_get_pHYs
                0x023977d8                png_get_PLTE
                0x02397818                png_get_sBIT
                0x02397850                png_get_text
                0x02397898                png_get_tRNS
                0x0239792c                png_get_rgb_to_gray_status
                0x02397938                png_get_user_width_max
                0x02397944                png_get_user_height_max
 pngmem.o(.rodata .text)
 .text          0x02397950      0x21c pngmem.o
                0x02397950                png_create_struct_2
                0x023979dc                png_create_struct
                0x023979e8                png_destroy_struct_2
                0x02397a28                png_destroy_struct
                0x02397a34                png_malloc_default
                0x02397a50                png_malloc
                0x02397ac0                png_free_default
                0x02397ad4                png_free
                0x02397b00                png_malloc_warn
                0x02397b2c                png_memcpy_check
                0x02397b3c                png_memset_check
                0x02397b4c                png_set_mem_fn
                0x02397b60                png_get_mem_ptr
 pngread.o(.rodata .text)
 .text          0x02397b6c     0x1c58 pngread.o
                0x02397b6c                png_create_read_struct_2
                0x02397d64                png_create_read_struct
                0x02397d88                png_read_init_3
                0x02397f08                png_read_init_2
                0x02397f88                png_read_init
                0x02397f9c                png_read_info
                0x0239866c                png_read_update_info
                0x023986ac                png_start_read_image
                0x023986c4                png_read_row
                0x02398be0                png_read_rows
                0x02398ca8                png_read_image
                0x02398d0c                png_read_end
                0x02399268                png_read_destroy
                0x023994b4                png_destroy_read_struct
                0x02399580                png_set_read_status_fn
                0x0239958c                png_read_png
 .rodata        0x023997c4       0xd0 pngread.o
 pngrio.o(.rodata .text)
 .text          0x02399894       0x70 pngrio.o
                0x02399894                png_read_data
                0x023998bc                png_set_read_fn
 pngrtran.o(.rodata .text)
 .text          0x02399904     0x4890 pngrtran.o
                0x02399904                png_set_crc_action
                0x023999ec                png_set_strip_16
                0x02399a00                png_set_strip_alpha
                0x02399a14                png_set_dither
                0x0239a28c                png_set_expand
                0x0239a2a4                png_set_palette_to_rgb
                0x0239a2bc                png_set_expand_gray_1_2_4_to_8
                0x0239a2d0                png_set_gray_1_2_4_to_8
                0x0239a2e8                png_set_tRNS_to_alpha
                0x0239a2fc                png_set_gray_to_rgb
                0x0239a30c                png_set_rgb_to_gray_fixed
                0x0239a428                png_set_read_user_transform_fn
                0x0239a440                png_init_read_transformations
                0x0239a838                png_read_transform_info
                0x0239aa7c                png_do_unpack
                0x0239abc0                png_do_unshift
                0x0239addc                png_do_chop
                0x0239ae38                png_do_read_swap_alpha
                0x0239af8c                png_do_read_invert_alpha
                0x0239b0a0                png_do_read_filler
                0x0239b3ec                png_do_gray_to_rgb
                0x0239b5f0                png_do_rgb_to_gray
                0x0239bcd0                png_build_grayscale_palette
                0x0239bd3c                png_do_background
                0x0239cf68                png_do_gamma
                0x0239d3ec                png_do_expand_palette
                0x0239d68c                png_do_expand
                0x0239dba0                png_do_dither
                0x0239dd14                png_do_read_transformations
 .rodata        0x0239e194       0x40 pngrtran.o
 pngrutil.o(.rodata .text)
 .text          0x0239e1d4     0x3870 pngrutil.o
                0x0239e1d4                png_get_uint_31
                0x0239e218                png_get_uint_32
                0x0239e23c                png_get_int_32
                0x0239e260                png_get_uint_16
                0x0239e278                png_crc_read
                0x0239e2a4                png_crc_error
                0x0239e330                png_crc_finish
                0x0239e3ec                png_decompress_chunk
                0x0239e72c                png_handle_IHDR
                0x0239e894                png_handle_PLTE
                0x0239ea80                png_handle_IEND
                0x0239eae8                png_handle_gAMA
                0x0239ec64                png_handle_sBIT
                0x0239edd8                png_handle_cHRM
                0x0239f1f0                png_handle_sRGB
                0x0239f404                png_handle_iCCP
                0x0239f648                png_handle_sPLT
                0x0239f8ec                png_handle_tRNS
                0x0239fb28                png_handle_bKGD
                0x0239fd24                png_handle_hIST
                0x0239fe64                png_handle_pHYs
                0x0239ff98                png_handle_oFFs
                0x023a00cc                png_handle_pCAL
                0x023a0434                png_handle_sCAL
                0x023a0618                png_handle_tEXt
                0x023a0774                png_handle_zTXt
                0x023a0954                png_check_chunk_name
                0x023a0a14                png_handle_unknown
                0x023a0aa8                png_combine_row
                0x023a0d5c                png_do_read_interlace
                0x023a11d8                png_read_filter_row
                0x023a13e0                png_read_finish_row
                0x023a1770                png_read_start_row
 .rodata        0x023a1a44       0x78 pngrutil.o
 pngset.o(.rodata .text)
 .text          0x023a1abc      0xef8 pngset.o
                0x023a1abc                png_set_bKGD
                0x023a1af0                png_set_cHRM_fixed
                0x023a1bc4                png_set_gAMA_fixed
                0x023a1c34                png_set_hIST
                0x023a1d04                png_set_IHDR
                0x023a1f68                png_set_oFFs
                0x023a1f94                png_set_pCAL
                0x023a2154                png_set_sCAL_s
                0x023a2228                png_set_pHYs
                0x023a2254                png_set_PLTE
                0x023a2310                png_set_sBIT
                0x023a2344                png_set_sRGB
                0x023a2360                png_set_sRGB_gAMA_and_cHRM
                0x023a23f8                png_set_iCCP
                0x023a24ec                png_set_text_2
                0x023a2710                png_set_text
                0x023a2738                png_set_tRNS
                0x023a27f0                png_set_sPLT
                0x023a2918                png_permit_empty_plte
                0x023a2934                png_set_rows
                0x023a298c                png_set_invalid
                0x023a29a4                png_set_user_limits
 pngtrans.o(.rodata .text)
 .text          0x023a29b4      0x794 pngtrans.o
                0x023a29b4                png_set_bgr
                0x023a29c8                png_set_swap
                0x023a29e8                png_set_packing
                0x023a2a10                png_set_packswap
                0x023a2a30                png_set_shift
                0x023a2a5c                png_set_interlace_handling
                0x023a2a8c                png_set_filler
                0x023a2aec                png_set_add_alpha
                0x023a2b0c                png_set_swap_alpha
                0x023a2b20                png_set_invert_alpha
                0x023a2b34                png_set_invert_mono
                0x023a2b48                png_do_invert
                0x023a2c0c                png_do_swap
                0x023a2c64                png_do_packswap
                0x023a2cd0                png_do_strip_filler
                0x023a2fd8                png_do_bgr
                0x023a3128                png_set_user_transform_info
                0x023a313c                png_get_user_transform_ptr
 .rodata        0x023a3148      0x300 pngtrans.o
                0x023a3448                . = ALIGN (0x4)

.EOVR_libimg_bmp
                0x02395c00      0x518 load address 0x0215d1c0
                0x02395c00                Image_EOVR_libimg_bmp_Base = .
 plug_bmp.o(.rodata .text)
 .text          0x02395c00      0x4f8 plug_bmp.o
                0x02395c00                PlugBmp_Start(FAT_FILE*)
                0x02395cec                PlugBmp_Free()
                0x02395d78                PlugBmp_GetBitmap24(unsigned int, unsigned char*)
                0x02395fcc                PlugBmp_GetWidth()
                0x02395fe0                PlugBmp_GetHeight()
                0x02395ff4                PlugBmp_GetInfoIndexCount()
                0x02395ffc                PlugBmp_GetInfoStrL(int, char*, int)
                0x023960e8                PlugBmp_GetInfoStrW(int, unsigned short*, int)
                0x023960f0                PlugBmp_GetInfoStrUTF8(int, char*, int)
 .rodata        0x023960f8       0x20 plug_bmp.o
                0x02396118                . = ALIGN (0x4)

.EOVR_libimg_gif
                0x02395c00     0x208c load address 0x0215d6d8
                0x02395c00                Image_EOVR_libimg_gif_Base = .
 plug_gif.o(.rodata .text)
 .text          0x02395c00      0x73c plug_gif.o
                0x02395c34                LoadGIF(FAT_FILE*)
                0x02396164                PlugGif_Start(FAT_FILE*)
                0x02396230                PlugGif_Free()
                0x02396284                PlugGif_GetBitmap24(unsigned int, unsigned char*)
                0x023962fc                PlugGif_GetWidth()
                0x0239630c                PlugGif_GetHeight()
                0x0239631c                PlugGif_GetInfoIndexCount()
                0x02396324                PlugGif_GetInfoStrL(int, char*, int)
                0x0239632c                PlugGif_GetInfoStrW(int, unsigned short*, int)
                0x02396334                PlugGif_GetInfoStrUTF8(int, char*, int)
 .rodata        0x0239633c       0x38 plug_gif.o
 dgif_lib.o(.rodata .text)
 .text          0x02396374     0x11c8 dgif_lib.o
                0x02396980                DGifGetScreenDesc
                0x02396b20                DGifOpen
                0x02396c84                DGifGetRecordType
                0x02396d48                DGifGetImageDesc
                0x02397054                DGifGetExtensionNext
                0x023970f0                DGifGetExtension
                0x0239717c                DGifCloseFile
                0x02397218                DGifGetCodeNext
                0x023972b8                DGifGetCode
                0x02397300                DGifGetPixel
                0x023973b4                DGifGetLine
                0x02397464                DGifGetLZCodes
 .rodata        0x0239753c       0x1c dgif_lib.o
 gif_err.o(.rodata .text)
 .text          0x02397558       0x18 gif_err.o
                0x02397558                GifLastError
 gifalloc.o(.rodata .text)
 .text          0x02397570      0x71c gifalloc.o
                0x02397570                BitSize
                0x02397594                MakeMapObject
                0x02397640                FreeMapObject
                0x02397660                UnionColorMap
                0x02397904                ApplyTranslation
                0x02397944                MakeExtension
                0x0239794c                AddExtensionBlock
                0x02397a04                FreeExtension
                0x02397a68                FreeLastSavedImage
                0x02397ad0                MakeSavedImage
                0x02397bf8                FreeSavedImages
                0x02397c8c                . = ALIGN (0x4)

.EOVR_libimg_psd
                0x02395c00      0xbe0 load address 0x0215f764
                0x02395c00                Image_EOVR_libimg_psd_Base = .
 plug_psd.o(.rodata .text)
 .text          0x02395c00      0xbb4 plug_psd.o
                0x02395cbc                PSD_ShowFrameInfo(TPSDHead*)
                0x02395d78                DeflatePSDRLE(unsigned char*, unsigned char*, unsigned int)
                0x02395e08                PSD_GetBMBuf(unsigned int, unsigned char*)
                0x023960fc                PlugPsd_Free()
                0x02396204                PlugPsd_Start(FAT_FILE*)
                0x02396678                PlugPsd_GetBitmap24(unsigned int, unsigned char*)
                0x02396690                PlugPsd_GetWidth()
                0x023966a0                PlugPsd_GetHeight()
                0x023966b0                PlugPsd_GetInfoIndexCount()
                0x023966b8                PlugPsd_GetInfoStrL(int, char*, int)
                0x023967a4                PlugPsd_GetInfoStrW(int, unsigned short*, int)
                0x023967ac                PlugPsd_GetInfoStrUTF8(int, char*, int)
 .rodata        0x023967b4       0x2c plug_psd.o
                0x023967e0                . = ALIGN (0x4)

.EOVR_libglobal_dpg
                0x02395c00     0x55c8 load address 0x02160344
                0x02395c00                Image_EOVR_libglobal_dpg_Base = .
 alloc.o(.rodata .text)
 .text          0x02395c00       0xa4 alloc.o
                0x02395c00                mpeg2_malloc
                0x02395c58                mpeg2_free
                0x02395c94                mpeg2_malloc_hooks
 clibdpg.o(.rodata .text)
 .text          0x02395ca4      0x7c0 clibdpg.o
                0x02395ca4                Clibdpg::LoadDPGINFO(CStream*)
                0x02396000                Clibdpg::MovieProcDecode()
                0x02396008                Clibdpg::SliceOneFrame(unsigned short*, unsigned short*)
                0x02396010                Clibdpg::GetFrameNum()
                0x02396018                Clibdpg::GetWidth()
                0x02396020                Clibdpg::GetHeight()
                0x02396028                Clibdpg::GetDPGAudioFormat()
                0x02396078                Clibdpg::SetFrame(unsigned int)
                0x02396268                Clibdpg::~Clibdpg()
                0x02396268                Clibdpg::~Clibdpg()
                0x02396300                Clibdpg::Clibdpg(CStream*, CStream*)
                0x02396300                Clibdpg::Clibdpg(CStream*, CStream*)
 .rodata        0x02396464       0x40 clibdpg.o
 clibmpg.o(.rodata .text)
 .text          0x023964a4     0x116c clibmpg.o
                0x02396520                DiskCache_LoadAllBuffer()
                0x023965e0                DiskCache_GetReadySize()
                0x02396600                FrameCache_GetReadFramesCount()
                0x02396610                FrameCache_GetReadFrameLastCount()
                0x02396644                Clibmpg::~Clibmpg()
                0x02396644                Clibmpg::~Clibmpg()
                0x0239676c                Clibmpg::ProcReadBuffer()
                0x02396804                Clibmpg::GetWidth() const
                0x0239680c                Clibmpg::GetHeight() const
                0x02396814                Clibmpg::GetFrameNum()
                0x0239681c                Clibmpg::YUV420toBGR15_Init(int, int)
                0x02396914                Clibmpg::ProcSequence()
                0x023969a0                Clibmpg::Reopen(unsigned int, unsigned int)
                0x02396a68                Clibmpg::ProcMoveFrameGOP(unsigned int, unsigned long long, unsigned int, unsigned int)
                0x02396ab0                Clibmpg::ProcMoveFrame(unsigned int, unsigned long long)
                0x02396b5c                Clibmpg::Clibmpg(CStream*, unsigned int, unsigned int, unsigned int, EMPGPixelFormat)
                0x02396b5c                Clibmpg::Clibmpg(CStream*, unsigned int, unsigned int, unsigned int, EMPGPixelFormat)
                0x02396e64                Clibmpg::YUV420toBGR15Fix_CopyFull0_asm(void const*, unsigned short*)
                0x02396f5c                Clibmpg::YUV420toBGR15Fix_CopyFull1_asm(void const*, unsigned short*)
                0x02397060                Clibmpg::YUV420toBGR15Fix_CopyFull2_asm(void const*, unsigned short*)
                0x02397164                Clibmpg::SliceOneFrame(unsigned short*, unsigned short*)
                0x02397250                Clibmpg::ProcDecode()
 .rodata        0x02397610       0x74 clibmpg.o
 decode.o(.rodata .text)
 .text          0x02397684      0x5f4 decode.o
                0x02397718                mpeg2_seek_header
                0x02397814                mpeg2_info
                0x0239781c                mpeg2_buffer
                0x02397828                mpeg2_getpos
                0x02397838                mpeg2_convert
                0x02397890                mpeg2_stride
                0x02397904                mpeg2_set_buf
                0x023979e4                mpeg2_custom_fbuf
                0x023979ec                mpeg2_skip
                0x02397a08                mpeg2_slice_region
                0x02397a50                mpeg2_tag_picture
                0x02397a88                mpeg2_accel
                0x02397aa4                mpeg2_reset
                0x02397b18                mpeg2_init
                0x02397c3c                mpeg2_close
 header.o(.rodata .text)
 .text          0x02397c78     0x1890 header.o
                0x023983f0                mpeg2_header_state_init
                0x02398660                mpeg2_reset_info
                0x0239867c                mpeg2_header_sequence
                0x02398884                mpeg2_header_gop
                0x0239891c                mpeg2_header_gop_finalize
                0x02398970                mpeg2_set_fbuf
                0x023989e0                mpeg2_header_picture_start
                0x02398a58                mpeg2_header_picture
                0x02398b44                mpeg2_header_picture_finalize
                0x02398f70                mpeg2_header_extension
                0x02398fbc                mpeg2_header_user_data
                0x02398fe4                mpeg2_header_slice_start
                0x0239917c                mpeg2_header_end
                0x02399230                mpeg2_header_sequence_finalize
 *fill*         0x02399508        0x8 00
 .rodata        0x02399510       0xc0 header.o
 idct.o(.rodata .text)
 .text          0x023995d0       0x38 idct.o
                0x023995d0                mpeg2_idct_init
 motion_comp.o(.rodata .text)
 .text          0x02399608       0x3c motion_comp.o
                0x02399608                mpeg2_mc_init
 motion_comp_arm.o(.rodata .text)
 .text          0x02399644       0x20 motion_comp_arm.o
 plug_dpg.o(.rodata .text)
 .text          0x02399664      0x528 plug_dpg.o
                0x02399664                FreeDPG()
                0x023996f8                StartDPG(FAT_FILE*, FAT_FILE*)
                0x02399798                DPG_GetCurrentFrameCount()
                0x023997a8                DPG_GetTotalFrameCount()
                0x023997bc                DPG_GetFPS()
                0x023997d0                DPG_GetSampleRate()
                0x023997e4                DPG_GetChannelCount()
                0x023997f8                UpdateDPG_Audio()
                0x02399828                UpdateDPG_Video()
                0x02399844                DPG_SliceOneFrame(unsigned short*, unsigned short*)
                0x0239987c                DPG_SetFrameCount(unsigned int)
                0x02399890                DPG_GetWidth()
                0x023998a0                DPG_GetHeight()
                0x023998b0                DPG_GetDPGAudioFormat()
                0x023998c0                DPG_DrawInfo(CglCanvas*)
                0x02399abc                DPG_DrawInfoDiffHeight()
                0x02399ac4                DPG_DrawInfoDiff(CglCanvas*)
 .rodata        0x02399b8c       0x18 plug_dpg.o
 plug_mp2.o(.rodata .text)
 .text          0x02399ba4      0x2b8 plug_mp2.o
                0x02399ba4                FreeMP2()
                0x02399c14                StartMP2()
                0x02399cbc                MP2_SetPosition(double, unsigned long long)
                0x02399db0                MP2_LoadReadBuffer()
 .rodata        0x02399e5c       0x14 plug_mp2.o
 slice.o(.rodata .text)
 .text          0x02399e70      0x70c slice.o
                0x0239a160                mpeg2_init_fbuf
                0x0239a268                mpeg2_slice_start
 .rodata        0x0239a57c      0x118 slice.o
                0x0239a57c                CBP_7
                0x0239a65c                errmsg_macroblock_modes_MACROBLOCK_QUANT_not_implimented
 _dpgfs.o(.rodata .text)
 .text          0x0239a694      0x684 _dpgfs.o
                0x0239a9e0                DPGFS_Init(FAT_FILE*)
                0x0239ab7c                DPGFS_Free()
                0x0239abd0                DPGFS_Movie_GetSize()
                0x0239abe0                DPGFS_Audio_GetSize()
                0x0239abf0                DPGFS_Movie_SetOffset(unsigned int)
                0x0239ac48                DPGFS_Movie_SetAttribute(unsigned int, unsigned int)
                0x0239ac60                DPGFS_Audio_SetOffset(unsigned int)
                0x0239acb8                DPGFS_Audio_SetAttribute(unsigned int, unsigned int)
                0x0239acd0                DPGFS_Audio_GetOffset()
                0x0239ace8                DPGFS_Movie_Read32bit(void*, unsigned int)
                0x0239ad00                DPGFS_Audio_Read32bit(void*, unsigned int)
 .rodata        0x0239ad18       0x20 _dpgfs.o
 plug_srttitle.o(.rodata .text)
 .text          0x0239ad38      0x448 plug_srttitle.o
                0x0239b000                PlugSRT_Free()
                0x0239b084                PlugSRT_Start(FAT_FILE*)
                0x0239b0e0                PlugSRT_isOpened()
                0x0239b0f8                PlugSRT_SetOffset(unsigned int)
                0x0239b108                PlugSRT_GetOffset()
                0x0239b118                PlugSRT_GetCurSRTTitle(int)
 .text.stub     0x0239b180        0xc linker stubs
 .rodata        0x0239b190       0x38 plug_srttitle.o
                0x0239b1c8                . = ALIGN (0x4)

.EOVR_libglobal_ndsrom
                0x02395c00     0x1540 load address 0x0216590c
                0x02395c00                Image_EOVR_libglobal_ndsrom_Base = .
 *(.EOVR_libglobal_ndsrom)
 plug_ndsrom.o(.rodata .text)
 .text          0x02395c00     0x14f4 plug_ndsrom.o
                0x02395c00                resetMemory2load_ARM9_NoBIOS()
                0x02396080                BootNDSROM()
 .rodata        0x023970f4       0x4c plug_ndsrom.o
                0x02397140                . = ALIGN (0x4)

.EOVR_AfterSystem2
                0x02394d00        0x8 load address 0x02166e4c
                0x02394d00                Image_EOVR_AfterSystem2_Base = .
 *(.OVR_AfterSystem2)
 .OVR_AfterSystem2
                0x02394d00        0x8 OverlayManager.o
                0x02394d08                . = ALIGN (0x4)

.EOVR_ITCM_libglobal_dpg
                0x01ff8a00     0x4590 load address 0x02166e54
                0x01ff8a00                Image_EOVR_ITCM_libglobal_dpg_Base = .
 *(.ITCM_libglobal_dpg)
 .ITCM_libglobal_dpg
                0x01ff8a00       0xb4 clibmpg.o
                0x01ff8a00                FrameCache_isReadEmpty()
                0x01ff8a20                FrameCache_GetBufferSizeByte()
                0x01ff8a30                FrameCache_ReadStart(unsigned long long)
                0x01ff8a80                FrameCache_ReadEnd()
 .ITCM_libglobal_dpg
                0x01ff8ab4      0x54c decode.o
                0x01ff8ab4                mpeg2_parse_header
                0x01ff8d58                mpeg2_parse
 .ITCM_libglobal_dpg
                0x01ff9000        0x8 idct.o
                0x01ff9000                mpeg2_idct_copy
                0x01ff9004                mpeg2_idct_add
 .ITCM_libglobal_dpg
                0x01ff9008      0x6d4 motion_comp_arm.o
 .ITCM_libglobal_dpg
                0x01ff96dc       0xb4 plug_mp2.o
                0x01ff96dc                IRQSYNC_MP2_flash()
                0x01ff9710                IRQSYNC_MP2_fread()
 .ITCM_libglobal_dpg
                0x01ff9790     0x3130 slice.o
                0x01ff9f98                mpeg2_slice
 .ITCM_libglobal_dpg
                0x01ffc8c0      0x6d0 motion_comp_arm_s.o
                0x01ffc8c0                MC_put_o_16_arm
                0x01ffc9c0                MC_put_o_8_arm
                0x01ffca90                MC_put_x_16_arm
                0x01ffcda8                MC_put_x_8_arm
                0x01ffcf90                . = ALIGN (0x4)

.EOVR_ITCM_libglobal_ndsrom
                0x01ff8a00        0x0 load address 0x0216b3e4
                0x01ff8a00                Image_EOVR_ITCM_libglobal_ndsrom_Base = .
 *(.ITCM_libglobal_ndsrom)
                0x01ff8a00                . = ALIGN (0x4)

.EOVR_ITCM_libimg_jpeg
                0x01ff8a00      0xc74 load address 0x0216b3e4
                0x01ff8a00                Image_EOVR_ITCM_libimg_jpeg_Base = .
 *(.ITCM_libimg_jpeg)
 .ITCM_libimg_jpeg
                0x01ff8a00        0x4 plug_jpeg.o
                0x01ff8a00                LIBJPEG_ITCM_DUMMY()
 .ITCM_libimg_jpeg
                0x01ff8a04      0xc70 jpeg_idct_ifast_clip_asm.o
                0x01ff8a04                jpeg_idct_ifast_clip_asm
                0x01ff9674                . = ALIGN (0x4)

.EOVR_ITCM_libimg_png
                0x01ff8a00        0x0 load address 0x0216c058
                0x01ff8a00                Image_EOVR_ITCM_libimg_png_Base = .
 *(.ITCM_libimg_png)
                0x01ff8a00                . = ALIGN (0x4)

.EOVR_ITCM_libimg_bmp
                0x01ff8a00      0x3b0 load address 0x0216c058
                0x01ff8a00                Image_EOVR_ITCM_libimg_bmp_Base = .
 *(.ITCM_libimg_bmp)
 .ITCM_libimg_bmp
                0x01ff8a00      0x3b0 plug_bmp.o
                0x01ff8d2c                BMP_ShowFrameInfo(TBMPHeader*)
                0x01ff8db0                . = ALIGN (0x4)

.EOVR_ITCM_libimg_gif
                0x01ff8a00        0x0 load address 0x0216c408
                0x01ff8a00                Image_EOVR_ITCM_libimg_gif_Base = .
 *(.ITCM_libimg_gif)
                0x01ff8a00                . = ALIGN (0x4)

.EOVR_ITCM_libimg_psd
                0x01ff8a00        0x0 load address 0x0216c408
                0x01ff8a00                Image_EOVR_ITCM_libimg_psd_Base = .
 *(.ITCM_libimg_psd)
                0x01ff8a00                . = ALIGN (0x4)

.EOVR_ITCM_libsnd_mp3
                0x01ff9700        0x0 load address 0x0216c408
                0x01ff9700                Image_EOVR_ITCM_libsnd_mp3_Base = .
 *(.ITCM_libsnd_mp3)
                0x01ff9700                . = ALIGN (0x4)

.EOVR_ITCM_libsnd_ogg
                0x01ff9700        0x0 load address 0x0216c408
                0x01ff9700                Image_EOVR_ITCM_libsnd_ogg_Base = .
 *(.ITCM_libsnd_ogg)
                0x01ff9700                . = ALIGN (0x4)

.EOVR_ITCM_libsnd_gme
                0x01ff9700     0x5724 load address 0x0216c408
                0x01ff9700                Image_EOVR_ITCM_libsnd_gme_Base = .
 Blip_Buffer.o(.rodata .text)
 .text          0x01ff9700     0x105c Blip_Buffer.o
                0x01ff9700                Blip_Buffer::Blip_Buffer()
                0x01ff9700                Blip_Buffer::Blip_Buffer()
                0x01ff9734                Blip_Buffer::~Blip_Buffer()
                0x01ff9734                Blip_Buffer::~Blip_Buffer()
                0x01ff9758                Silent_Blip_Buffer::Silent_Blip_Buffer()
                0x01ff9758                Silent_Blip_Buffer::Silent_Blip_Buffer()
                0x01ff97a4                Blip_Buffer::clear(int)
                0x01ff97e0                Blip_Buffer::clock_rate_factor(long) const
                0x01ff9870                Blip_Buffer::set_sample_rate(long, int)
                0x01ff9a04                Blip_Buffer::bass_freq(int)
                0x01ff9a4c                Blip_Buffer::end_frame(int)
                0x01ff9a8c                Blip_Buffer::remove_silence(long)
                0x01ff9ac4                Blip_Buffer::count_samples(int) const
                0x01ff9ad8                Blip_Buffer::count_clocks(long) const
                0x01ff9b30                Blip_Buffer::remove_samples(long)
                0x01ff9b7c                Blip_Synth_Fast_::Blip_Synth_Fast_()
                0x01ff9b7c                Blip_Synth_Fast_::Blip_Synth_Fast_()
                0x01ff9b90                Blip_Synth_Fast_::volume_unit(double)
                0x01ff9bcc                Blip_Synth_::Blip_Synth_(short*, int)
                0x01ff9bcc                Blip_Synth_::Blip_Synth_(short*, int)
                0x01ff9c00                blip_eq_t::generate(float*, int) const
                0x01ffa130                Blip_Synth_::adjust_impulse()
                0x01ffa204                Blip_Synth_::volume_unit(double)
                0x01ffa3d4                Blip_Synth_::treble_eq(blip_eq_t const&)
                0x01ffa5e8                Blip_Buffer::read_samples(short*, long, int)
                0x01ffa6c4                Blip_Buffer::mix_samples(short const*, long)
 .rodata        0x01ffa75c      0x178 Blip_Buffer.o
 Classic_Emu.o(.rodata .text)
 .text          0x01ffa8d4      0x5e4 Classic_Emu.o
                0x01ffa8d4                Classic_Emu::set_equalizer_(gme_equalizer_t const&)
                0x01ffa934                Classic_Emu::mute_voices_(int)
                0x01ffaa30                Classic_Emu::play_(long, short*)
                0x01ffab24                Classic_Emu::set_sample_rate_(long)
                0x01ffaba0                Classic_Emu::~Classic_Emu()
                0x01ffaba0                Classic_Emu::~Classic_Emu()
                0x01ffabdc                Classic_Emu::~Classic_Emu()
                0x01ffabf8                Classic_Emu::Classic_Emu()
                0x01ffabf8                Classic_Emu::Classic_Emu()
                0x01ffac28                Classic_Emu::change_clock_rate(long)
                0x01ffac48                Classic_Emu::setup_buffer(long)
                0x01ffaca4                Classic_Emu::start_track_(int)
                0x01ffacc0                Rom_Data_::load_rom_data_(Data_Reader&, int, void*, int, long)
                0x01ffae18                Rom_Data_::set_addr_(long, int)
 .rodata        0x01ffaeb8      0x160 Classic_Emu.o
                0x01ffaf60                vtable for Classic_Emu
 Data_Reader.o(.rodata .text)
 .text          0x01ffb018      0x404 Data_Reader.o
                0x01ffb018                Data_Reader::read(void*, long)
                0x01ffb070                Data_Reader::skip(long)
                0x01ffb0f0                File_Reader::remain() const
                0x01ffb120                Subset_Reader::remain() const
                0x01ffb128                Subset_Reader::read_avail(void*, long)
                0x01ffb154                Remaining_Reader::remain() const
                0x01ffb180                Mem_File_Reader::size() const
                0x01ffb188                Mem_File_Reader::tell() const
                0x01ffb190                Mem_File_Reader::seek(long)
                0x01ffb1ac                Callback_Reader::remain() const
                0x01ffb1b4                Mem_File_Reader::read_avail(void*, long)
                0x01ffb208                Callback_Reader::read(void*, long)
                0x01ffb234                Callback_Reader::read_avail(void*, long)
                0x01ffb260                File_Reader::skip(long)
                0x01ffb2bc                Subset_Reader::Subset_Reader(Data_Reader*, long)
                0x01ffb2bc                Subset_Reader::Subset_Reader(Data_Reader*, long)
                0x01ffb2fc                Remaining_Reader::Remaining_Reader(void const*, long, Data_Reader*)
                0x01ffb2fc                Remaining_Reader::Remaining_Reader(void const*, long, Data_Reader*)
                0x01ffb31c                Remaining_Reader::read_first(void*, long)
                0x01ffb354                Remaining_Reader::read(void*, long)
                0x01ffb394                Remaining_Reader::read_avail(void*, long)
                0x01ffb3e0                Mem_File_Reader::Mem_File_Reader(void const*, long)
                0x01ffb3e0                Mem_File_Reader::Mem_File_Reader(void const*, long)
                0x01ffb3fc                Callback_Reader::Callback_Reader(char const* (*)(void*, void*, long), long, void*)
                0x01ffb3fc                Callback_Reader::Callback_Reader(char const* (*)(void*, void*, long), long, void*)
 *fill*         0x01ffb41c        0x4 00
 .rodata        0x01ffb420      0x128 Data_Reader.o
                0x01ffb420                vtable for Data_Reader
                0x01ffb440                Data_Reader::eof_error
                0x01ffb458                vtable for File_Reader
                0x01ffb488                vtable for Callback_Reader
                0x01ffb4a8                vtable for Remaining_Reader
                0x01ffb4c8                vtable for Subset_Reader
                0x01ffb4e8                vtable for Mem_File_Reader
 Effects_Buffer.o(.rodata .text)
 .text          0x01ffb548     0x1334 Effects_Buffer.o
                0x01ffb548                Effects_Buffer::channel(int, int)
                0x01ffb5cc                Effects_Buffer::samples_avail() const
                0x01ffb5d8                Effects_Buffer::end_frame(int)
                0x01ffb688                Effects_Buffer::bass_freq(int)
                0x01ffb6cc                Effects_Buffer::clock_rate(long)
                0x01ffb71c                Effects_Buffer::~Effects_Buffer()
                0x01ffb71c                Effects_Buffer::~Effects_Buffer()
                0x01ffb770                Effects_Buffer::~Effects_Buffer()
                0x01ffb78c                Effects_Buffer::clear()
                0x01ffb81c                Effects_Buffer::config(Effects_Buffer::config_t const&)
                0x01ffbb24                Effects_Buffer::set_sample_rate(long, int)
                0x01ffbc20                Effects_Buffer::config_t::config_t()
                0x01ffbc20                Effects_Buffer::config_t::config_t()
                0x01ffbc9c                Effects_Buffer::set_depth(double)
                0x01ffbd9c                Effects_Buffer::Effects_Buffer(bool)
                0x01ffbd9c                Effects_Buffer::Effects_Buffer(bool)
                0x01ffbeb8                Effects_Buffer::mix_mono(short*, int)
                0x01ffbfd8                Effects_Buffer::mix_stereo(short*, int)
                0x01ffc0cc                Effects_Buffer::mix_mono_enhanced(short*, int)
                0x01ffc36c                Effects_Buffer::mix_enhanced(short*, int)
                0x01ffc708                Effects_Buffer::read_samples(short*, long)
 *fill*         0x01ffc87c        0x4 00
 .rodata        0x01ffc880       0xe0 Effects_Buffer.o
                0x01ffc8e0                vtable for Effects_Buffer
 Gme_File.o(.rodata .text)
 .text          0x01ffc960      0x6a0 Gme_File.o
                0x01ffc960                Gme_File::pre_load()
                0x01ffc974                Gme_File::post_load_()
                0x01ffc978                Gme_File::load_(Data_Reader&)
                0x01ffca0c                Gme_File::load_mem_(unsigned char const*, long)
                0x01ffca68                Gme_File::~Gme_File()
                0x01ffca68                Gme_File::~Gme_File()
                0x01ffcab0                Gme_File::~Gme_File()
                0x01ffcacc                Gme_File::clear_playlist()
                0x01ffcb18                Gme_File::unload()
                0x01ffcb44                Gme_File::Gme_File()
                0x01ffcb44                Gme_File::Gme_File()
                0x01ffcbc4                Gme_File::post_load(char const*)
                0x01ffcc00                Gme_File::load_mem(void const*, long)
                0x01ffcc44                Gme_File::load(Data_Reader&)
                0x01ffcc80                Gme_File::load_file(char const*)
                0x01ffcc8c                Gme_File::load_remaining_(void const*, long, Data_Reader&)
                0x01ffccb4                Gme_File::copy_field_(char*, char const*, int)
                0x01ffce04                Gme_File::copy_field_(char*, char const*)
                0x01ffce0c                Gme_File::remap_track_(int*) const
                0x01ffce98                Gme_File::track_info(track_info_t*, int) const
 .rodata        0x01ffd000      0x118 Gme_File.o
                0x01ffd040                vtable for Gme_File
                0x01ffd0f4                gme_wrong_file_type
 Multi_Buffer.o(.rodata .text)
 .text          0x01ffd118      0x618 Multi_Buffer.o
                0x01ffd118                Multi_Buffer::set_channel_count(int)
                0x01ffd120                Stereo_Buffer::end_frame(int)
                0x01ffd174                Stereo_Buffer::clear()
                0x01ffd1b0                Stereo_Buffer::bass_freq(int)
                0x01ffd1e0                Stereo_Buffer::clock_rate(long)
                0x01ffd220                Stereo_Buffer::set_sample_rate(long, int)
                0x01ffd274                Stereo_Buffer::~Stereo_Buffer()
                0x01ffd274                Stereo_Buffer::~Stereo_Buffer()
                0x01ffd2b8                Stereo_Buffer::~Stereo_Buffer()
                0x01ffd2d4                Mono_Buffer::~Mono_Buffer()
                0x01ffd2d4                Mono_Buffer::~Mono_Buffer()
                0x01ffd300                Mono_Buffer::~Mono_Buffer()
                0x01ffd31c                Mono_Buffer::set_sample_rate(long, int)
                0x01ffd344                Multi_Buffer::Multi_Buffer(int)
                0x01ffd344                Multi_Buffer::Multi_Buffer(int)
                0x01ffd36c                Silent_Buffer::Silent_Buffer()
                0x01ffd36c                Silent_Buffer::Silent_Buffer()
                0x01ffd39c                Mono_Buffer::Mono_Buffer()
                0x01ffd39c                Mono_Buffer::Mono_Buffer()
                0x01ffd3e8                Stereo_Buffer::Stereo_Buffer()
                0x01ffd3e8                Stereo_Buffer::Stereo_Buffer()
                0x01ffd450                Stereo_Buffer::mix_stereo(short*, int)
                0x01ffd538                Stereo_Buffer::mix_stereo_no_center(short*, int)
                0x01ffd5dc                Stereo_Buffer::mix_mono(short*, int)
                0x01ffd644                Stereo_Buffer::read_samples(short*, long)
 .rodata        0x01ffd730       0xf0 Multi_Buffer.o
                0x01ffd730                vtable for Multi_Buffer
                0x01ffd768                vtable for Stereo_Buffer
                0x01ffd7a0                vtable for Mono_Buffer
 Music_Emu.o(.rodata .text)
 .text          0x01ffd820      0xcf8 Music_Emu.o
                0x01ffd820                Gme_Info_::set_sample_rate_(long)
                0x01ffd828                Gme_Info_::set_equalizer_(gme_equalizer_t const&)
                0x01ffd82c                Gme_Info_::mute_voices_(int)
                0x01ffd830                Gme_Info_::set_tempo_(double)
                0x01ffd834                Gme_Info_::start_track_(int)
                0x01ffd840                Gme_Info_::play_(long, short*)
                0x01ffd84c                Gme_Info_::post_load_()
                0x01ffd850                Gme_Info_::pre_load()
                0x01ffd854                Music_Emu::unload()
                0x01ffd898                Music_Emu::pre_load()
                0x01ffd8d0                Music_Emu::~Music_Emu()
                0x01ffd8d0                Music_Emu::~Music_Emu()
                0x01ffd914                Music_Emu::~Music_Emu()
                0x01ffd930                Music_Emu::clear_track_vars()
                0x01ffd970                Music_Emu::Music_Emu()
                0x01ffd970                Music_Emu::Music_Emu()
                0x01ffd9fc                Music_Emu::set_sample_rate(long)
                0x01ffda80                Music_Emu::set_equalizer(gme_equalizer_t const&)
                0x01ffdab0                Music_Emu::mute_voices(int)
                0x01ffdaf8                Music_Emu::mute_voice(int, bool)
                0x01ffdb48                Music_Emu::skip_(long)
                0x01ffdc50                Music_Emu::set_tempo(double)
                0x01ffdcf8                Music_Emu::post_load_()
                0x01ffdd18                Music_Emu::end_track_if_error(char const*)
                0x01ffdd2c                Music_Emu::msec_to_samples(int) const
                0x01ffdd6c                Music_Emu::tell() const
                0x01ffddb0                Music_Emu::skip(long)
                0x01ffde88                Music_Emu::set_fade(long, long)
                0x01ffdee8                Music_Emu::handle_fade(long, short*)
                0x01ffdfcc                Music_Emu::emu_play(long, short*)
                0x01ffe034                Music_Emu::fill_buf()
                0x01ffe0f4                Music_Emu::start_track(int)
                0x01ffe204                Music_Emu::seek(long)
                0x01ffe278                Music_Emu::play(long, short*)
 .rodata        0x01ffe518      0x218 Music_Emu.o
                0x01ffe540                vtable for Music_Emu
                0x01ffe590                vtable for Gme_Info_
                0x01ffe720                Music_Emu::tv_eq
 *(.ITCM_libsnd_gme)
 .ITCM_libsnd_gme
                0x01ffe730      0x6f4 plug_gme.o
                0x01ffee24                . = ALIGN (0x4)

.EOVR_ITCM_libsnd_midi
                0x01ff9700        0x0 load address 0x02171b2c
                0x01ff9700                Image_EOVR_ITCM_libsnd_midi_Base = .
 *(.ITCM_libsnd_midi)
                0x01ff9700                . = ALIGN (0x4)

.EOVR_ITCM_libsnd_wave
                0x01ff9700       0x30 load address 0x02171b2c
                0x01ff9700                Image_EOVR_ITCM_libsnd_wave_Base = .
 *(.ITCM_libsnd_wave)
 .ITCM_libsnd_wave
                0x01ff9700       0x30 plug_wav.o
                0x01ff9730                . = ALIGN (0x4)

.EOVR_MTCM      0x0b000500     0x2320 load address 0x02171b5c
                0x0b000500                Image_EOVR_MTCM_Base = .
 header.o(.rodata)
 slice.o(.rodata)
 clibmpg.o(.rodata)
 *(.mtcmset)
 .mtcmset       0x0b000500       0x10 clibmpg.o
                0x0b000500                fixtable
 .mtcmset       0x0b000510       0x24 decode.o
 .mtcmset       0x0b000534       0x64 header.o
 .mtcmset       0x0b000598       0x40 motion_comp.o
                0x0b000598                mpeg2_mc
 .mtcmset       0x0b0005d8       0x40 motion_comp_arm.o
                0x0b0005d8                mpeg2_mc_arm
 *(.mtcmvar)
 .mtcmvar       0x0b000618        0x4 proc_DPGPlay.o
                0x0b000618                reqflip
 *fill*         0x0b00061c        0x4 00
 .mtcmvar       0x0b000620      0x438 clibmpg.o
                0x0b000840                LimitTable
                0x0b000a40                ConvertSize
 *fill*         0x0b000a58        0x8 00
 .mtcmvar       0x0b000a60     0x15e0 decode.o
 .mtcmvar       0x0b002040       0x80 header.o
 .mtcmvar       0x0b0020c0      0x300 idct.o
                0x0b0020c0                mpeg2_clip8
 .mtcmvar       0x0b0023c0       0x10 plug_dpg.o
                0x0b0023c1                DPG_RequestSyncStart
 .mtcmvar       0x0b0023d0       0x10 plug_mp2.o
 .mtcmvar       0x0b0023e0      0x440 _dpgfs.o
                0x0b002820                . = ALIGN (0x4)

.EOVR_libglobal_RebootLoader
                0x023ff200        0x0 load address 0x02173e7c
                0x023ff200                Image_EOVR_libglobal_RebootLoader_Base = .
 *(.rebootloader)
                0x023ff200                . = ALIGN (0x4)

.init           0x02000000      0x248
                0x02000000                __text_start = .
 *(.init)
 .init          0x02000000      0x230 /opt/devkitpro/devkitARM/lib/gcc/arm-none-eabi/4.7.1/../../../../arm-none-eabi/lib/ds_arm9_crt0.o
                0x02000000                _start
 .init          0x02000230        0xc /opt/devkitpro/devkitARM/lib/gcc/arm-none-eabi/4.7.1/crti.o
                0x02000230                _init
 .init          0x0200023c        0xc /opt/devkitpro/devkitARM/lib/gcc/arm-none-eabi/4.7.1/crtn.o
                0x02000248                . = ALIGN (0x4)

.plt
 *(.plt)

.text           0x02000280    0x51ba0
 *(EXCLUDE_FILE(*.itcm*) .text)
 .text          0x02000280        0x0 ProgramID.o
 .text          0x02000280        0x0 /opt/devkitpro/devkitARM/lib/gcc/arm-none-eabi/4.7.1/../../../../arm-none-eabi/lib/ds_arm9_crt0.o
 .text          0x02000280        0x0 /opt/devkitpro/devkitARM/lib/gcc/arm-none-eabi/4.7.1/crti.o
 .text          0x02000280      0x128 /opt/devkitpro/devkitARM/lib/gcc/arm-none-eabi/4.7.1/crtbegin.o
 .text          0x020003a8      0x828 _console.o
                0x02000470                nocashMessageSafe(char const*)
                0x020004c0                _consoleInitLogFile()
                0x020004f0                _consoleClearLogFile()
                0x0200052c                _consoleGetLogFile()
                0x02000544                _consoleSetLogOutFlag(bool)
                0x02000554                _consoleLogPause()
                0x02000584                _consoleLogResume()
                0x02000600                _consolePrintSet(int, int)
                0x0200062c                _consoleGetPrintSetY()
                0x0200063c                _consoleClear()
                0x02000694                _consoleInitDefault(unsigned short*, unsigned short*)
                0x02000700                _consolePrintChar_ScrollLine(unsigned short*, unsigned short*, unsigned int)
                0x02000744                f_consolePrintChar
                0x02000854                _consolePrint(char const*)
                0x02000a34                _consolePrintf(char const*, ...)
                0x02000a7c                _consoleSetLogFile(void*)
 .text          0x02000bd0      0x128 _consoleWriteLog.o
                0x02000bd0                PrfStart()
                0x02000c14                PrfEnd(int)
                0x02000c78                PrfEnd_GetCPUCount()
                0x02000cac                PrfEnd_Getus()
 .text          0x02000cf8      0x998 main.o
                0x02000cf8                __StopFatalError__(char const*, int, char const*, int, char const*, ...)
                0x02000f10                IlligalWritedNullPointer_Check(unsigned int)
 .text          0x02001690      0x218 cglb15.o
                0x02001690                CglB15::CglB15(TMM*, unsigned char const*, int)
                0x02001690                CglB15::CglB15(TMM*, unsigned char const*, int)
                0x020017f0                CglB15::~CglB15()
                0x020017f0                CglB15::~CglB15()
                0x02001854                CglB15::GetWidth() const
                0x0200185c                CglB15::GetHeight() const
                0x02001864                CglB15::BitBlt(CglCanvas*, int, int, int, int, int, int) const
 .text          0x020018a8     0x1108 cglcanvas.o
                0x020018a8                CglCanvas::~CglCanvas()
                0x020018a8                CglCanvas::~CglCanvas()
                0x020018f8                CglCanvas::CglCanvas(TMM*, unsigned short*, int, int, EPixelFormat)
                0x020018f8                CglCanvas::CglCanvas(TMM*, unsigned short*, int, int, EPixelFormat)
                0x0200194c                CglCanvas::GetWidth() const
                0x02001954                CglCanvas::GetHeight() const
                0x0200195c                CglCanvas::FillFull(unsigned short)
                0x0200198c                CglCanvas::FillFast(int, int, int, int)
                0x020019f0                CglCanvas::GetScanLine(int) const
                0x02001a04                CglCanvas::isInsidePosition(int, int) const
                0x02001a3c                CglCanvas::SetPixel(int, int, unsigned short)
                0x02001a70                CglCanvas::SetPixelAlpha(int, int, unsigned short, int)
                0x02001b1c                CglCanvas::SetPixelAlphaAdd(int, int, unsigned short, int)
                0x02001bb0                CglCanvas::GetPixel(int, int) const
                0x02001be4                CglCanvas::SetColor(unsigned short)
                0x02001bec                CglCanvas::GetColor()
                0x02001bf4                CglCanvas::DrawLine(int, int, int, int)
                0x02001dfc                CglCanvas::MoveTo(int, int)
                0x02001e08                CglCanvas::LineTo(int, int)
                0x02001e48                CglCanvas::FillBox(int, int, int, int) const
                0x02001f00                CglCanvas::DrawBox(int, int, int, int)
                0x02002004                CglCanvas::SetFontTextColor(unsigned short)
                0x0200200c                CglCanvas::TextOutA(int, int, char const*) const
                0x0200208c                CglCanvas::TextOutW(int, int, unsigned short const*) const
                0x02002118                CglCanvas::TextOutUTF8(int, int, char const*) const
                0x020021f4                CglCanvas::GetTextWidthA(char const*) const
                0x02002238                CglCanvas::GetTextWidthW(unsigned short const*) const
                0x0200227c                CglCanvas::GetTextWidthUTF8(char const*) const
                0x02002328                CglCanvas::GetCharWidthW(unsigned short) const
                0x02002330                CglCanvas::SetCglFont(void*)
                0x02002338                CglCanvas::BitBltBeta(CglCanvas*, int, int, int, int, int, int) const
                0x02002484                CglCanvas::BitBltTrans(CglCanvas*, int, int, int, int, int, int) const
                0x0200258c                CglCanvas::BitBlt(CglCanvas*, int, int, int, int, int, int, bool) const
                0x020025cc                CglCanvas::BitBltFullBeta(CglCanvas*) const
                0x020025e8                CglCanvas::CreateBMPImage(unsigned int*) const
                0x02002824                CglCanvas::TextOutLang(int, int, char const*) const
                0x020028e8                CglCanvas::GetTextWidthLang(char const*) const
 .text          0x020029b0      0x18c cglscreenmain.o
                0x020029b0                CglScreenMain::~CglScreenMain()
                0x020029b0                CglScreenMain::~CglScreenMain()
                0x02002a08                CglScreenMain::CglScreenMain()
                0x02002a08                CglScreenMain::CglScreenMain()
                0x02002b30                CglScreenMain::SetMode(EScrMainMode)
                0x02002b34                CglScreenMain::GetMode()
 .text          0x02002b3c      0x3a0 cglscreenoverlay.o
                0x02002b3c                CglScreenMainOverlay::CglScreenMainOverlay()
                0x02002b3c                CglScreenMainOverlay::CglScreenMainOverlay()
                0x02002d58                CglScreenMainOverlay::~CglScreenMainOverlay()
                0x02002d58                CglScreenMainOverlay::~CglScreenMainOverlay()
                0x02002d8c                CglScreenMainOverlay::GetVRAMBuf() const
                0x02002d98                CglScreenMainOverlay::SetPosition_for_Right64x192(int, int) const
                0x02002e80                CglScreenMainOverlay::SetVisible_for_LeftTop128x64(bool) const
 .text          0x02002edc      0x284 cglscreensub.o
                0x02002edc                CglScreenSub::CglScreenSub()
                0x02002edc                CglScreenSub::CglScreenSub()
                0x02003100                CglScreenSub::~CglScreenSub()
                0x02003100                CglScreenSub::~CglScreenSub()
                0x02003134                CglScreenSub::GetVRAMBuf() const
                0x02003140                CglScreenSub::SetBlackOutLevel16(int)
 .text          0x02003160      0x128 glglobal.o
                0x02003160                glDefaultMemorySetting()
                0x020031bc                glDefaultClassCreate()
                0x02003208                glDefaultClassFree()
                0x02003284                glSetFuncDebugPrint(void (*)(char const*))
 .text          0x02003288        0x0 glmemtool.o
 .text          0x02003288      0x6e0 OverlayManager.o
                0x020036dc                OVM_Init()
                0x0200390c                ICache_AllFlush()
                0x0200391c                OVM_LoadAfterSystem()
 .text          0x02003968     0x1568 memtool.o
                0x02003c84                DCache_FlushRangeOverrun(void const*, unsigned int)
                0x02003cb4                DCache_CleanRangeOverrun(void const*, unsigned int)
                0x02003ce4                MM_Init()
                0x02003ec8                MM_ShowAllocated(TMM*)
                0x02003f98                MM_Compact()
                0x020040b8                MM_CheckMemoryLeak(TMM*)
                0x02004204                MM_CheckOverRange()
                0x02004440                MM_MemoryLock(TMM*, void*)
                0x020044d4                MM_MemoryUnlock(TMM*, void*)
                0x0200456c                __safemalloc__(TMM*, char const*, int, char const*, int)
                0x02004674                __safefree__(TMM*, char const*, int, char const*, void*)
                0x020048d8                MM_ExecuteForceAllFree(TMM*)
                0x02004954                __safecalloc__(TMM*, char const*, int, char const*, int, int)
                0x02004a88                __saferealloc__(TMM*, char const*, int, char const*, void*, int)
                0x02004bdc                PrintFreeMem_Simple()
                0x02004c20                PrintFreeMem_Accuracy_Already()
                0x02004ccc                __safemalloc_chkmem__(TMM*, char const*, int, char const*, int)
                0x02004d80                PrintFreeMem_Accuracy()
                0x02004d84                PrintFreeMem()
                0x02004d88                GetMaxMemoryBlockSize()
                0x02004e14                MemClearAllFreeBlocks()
 .text          0x02004ed0     0x1488 shell.o
                0x02004ed0                ConvertFull_Unicode2Alias(unsigned short const*, unsigned short const*)
                0x020051c0                ConvertPath_Unicode2Alias_CheckExists(unsigned short const*)
                0x020053ac                ConvertFullPath_Unicode2Alias(unsigned short const*)
                0x0200550c                ConvertFullPath_Ansi2Alias(char const*)
                0x0200552c                Shell_FAT_ReadAlloc(TMM*, char const*, void**, int*)
                0x02005660                Shell_FAT_fopen_Internal(char const*)
                0x020056bc                Shell_FAT_fopen_Root(char const*)
                0x02005718                forPLS_ConvertFull_Unicode2Alias(unsigned short const*, unsigned short const*, char*, char*)
                0x02005a14                FileExistsUnicode(unsigned short const*, unsigned short const*)
                0x02005c8c                PathExistsUnicode(unsigned short const*)
                0x02005e5c                SplitItemFromFullPathAlias(char const*, char*, char*)
                0x02005f6c                SplitItemFromFullPathUnicode(unsigned short const*, unsigned short*, unsigned short*)
                0x02006084                FullPath_FileExistsAnsi(char const*)
                0x02006190                Shell_FAT_fopen_isExists_Root(char const*)
                0x020061c0                FullPath_FileExistsUnicode(unsigned short const*)
                0x02006284                FullPathUnicodeFromSplitItem(unsigned short const*, unsigned short const*)
 .text          0x02006358      0x550 sndeff_dfs.o
                0x02006358                SndEff_DFS_Init(FAT_FILE*)
                0x020064f4                SndEff_DFS_Free()
                0x02006548                SndEff_DFS_GetSize()
                0x02006558                SndEff_DFS_SetOffset(unsigned int)
                0x02006684                SndEff_DFS_SetAttribute(unsigned int, unsigned int)
                0x0200669c                SndEff_DFS_Read32bit(void*, unsigned int)
 .text          0x020068a8      0x33c strtool.o
                0x020068a8                StrCopy(char const*, char*)
                0x020068f0                isNumeric(char const*)
                0x02006920                isStrEqual(char const*, char const*)
                0x02006984                isStrEqual_NoCaseSensitive(char const*, char const*)
                0x02006a0c                StrAppend(char*, char const*)
                0x02006a6c                StrTrim(char*)
                0x02006b20                StrReplace(char*, char, char)
                0x02006b50                str_AllocateCopy(TMM*, char const*)
 .text          0x02006be4      0x600 unicode.o
                0x02006c4c                Unicode_isEqual(unsigned short const*, unsigned short const*)
                0x02006cb8                Unicode_isEqual_NoCaseSensitive(unsigned short const*, unsigned short const*)
                0x02006d5c                Unicode_Add(unsigned short*, unsigned short const*)
                0x02006db0                Unicode_Copy(unsigned short*, unsigned short const*)
                0x02006de0                Unicode_GetLength(unsigned short const*)
                0x02006e10                Unicode_AllocateCopy(TMM*, unsigned short const*)
                0x02006ebc                Unicode_StrWrap2Line(unsigned short*, unsigned short*, unsigned short*, CglCanvas*, unsigned int)
                0x02007068                StrConvert_Ank2Unicode(char const*, unsigned short*)
                0x020070b8                StrConvert_UTF82Unicode(char const*, unsigned short*)
                0x02007158                StrConvert_Unicode2Ank_Test(unsigned short const*)
 .text          0x020071e4      0x40c zlibhelp.o
                0x02007250                compressBound
                0x02007260                zlibcompress(TZLIBData*, unsigned int)
                0x02007440                zlibdecompress(TZLIBData*)
 .text          0x020075f0      0x87c disc_io.o
                0x02007784                DISCIO_ShowAdapterInfo()
                0x02007818                disc_Init()
                0x02007b7c                disc_IsInserted()
                0x02007ba0                disc_ReadSectors(unsigned int, unsigned char, void*)
                0x02007bcc                disc_WriteSectors(unsigned int, unsigned char, void const*)
                0x02007bf8                disc_SystemReadSector(unsigned int, void*)
                0x02007d28                disc_SystemWriteSector_SetWriteCache(bool)
                0x02007d88                disc_SystemWriteSector(unsigned int, void const*)
                0x02007e00                disc_ClearStatus()
                0x02007e24                disc_Shutdown()
                0x02007e54                disc_HostType()
 .text          0x02007e6c     0x16cc fat2.o
                0x02007e6c                FAT2_InitFiles()
                0x02007e8c                FAT2_FreeFiles()
                0x02007e90                FAT2_SetSystemDateTime(TFAT2_TIME)
                0x02007efc                FAT2_GetOpenedFileHandlesCount()
                0x02007f00                FAT2_GetFATType()
                0x02007f30                FAT2_ClustToSect(unsigned int)
                0x02007f54                FAT2_NextCluster(unsigned int)
                0x02007f58                FAT2_GetSecPerClus()
                0x02007f68                FAT2_FindFirstFile(char const**)
                0x02007f6c                FAT2_FindNextFile(char const**)
                0x02007f70                FAT2_GetFileCreationTime()
                0x02007ff0                FAT2_GetFileLastWriteTime()
                0x02008070                FAT2_CurEntry_GetFileSize()
                0x020080a8                FAT2_GetFirstCluster()
                0x020080e0                FAT2_GetAttrib()
                0x02008100                FAT2_GetLongFilenameUnicode()
                0x0200811c                FAT2_chdir_Alias(char const*)
                0x02008120                FAT2_remove(char const*)
                0x02008134                FAT2_fopen_AliasForRead(char const*)
                0x02008140                FAT2_fopen_AliasForWrite(char const*)
                0x0200814c                FAT2_fopen_AliasForReadWrite(char const*)
                0x02008158                FAT2_fopen_AliasForModify(char const*)
                0x02008164                FAT2_fopen_CreateForWrite_on_CurrentFolder(char const*, unsigned short const*)
                0x02008ea4                FAT2_fopen_CurrentForRead()
                0x0200905c                FAT2_fclose(FAT_FILE*)
                0x02009060                FAT2_ftell(FAT_FILE*)
                0x02009064                FAT2_fseek(FAT_FILE*, int, int)
                0x02009068                FAT2_fread(void*, unsigned int, unsigned int, FAT_FILE*)
                0x0200906c                FAT2_fread_fast(void*, unsigned int, unsigned int, FAT_FILE*)
                0x02009070                FAT2_fskip(unsigned int, unsigned int, FAT_FILE*)
                0x02009074                FAT2_fwrite(void const*, unsigned int, unsigned int, FAT_FILE*)
                0x02009078                FAT2_fgets(char*, int, FAT_FILE*)
                0x0200907c                FAT2_fprintf(FAT_FILE*, char const*, ...)
                0x020090cc                FAT2_GetFileSize(FAT_FILE*)
                0x020090d4                FAT2_SetSize(FAT_FILE*, unsigned int, unsigned char)
                0x02009518                FAT2_Move(char const*, char const*)
                0x0200951c                FAT2_DeleteFile(char const*)
                0x02009520                FAT2_mkdir(char const*)
                0x02009534                FAT2_ShowDirectoryEntryList(char const*)
 .text          0x02009538     0x5f5c gba_nds_fat.o
                0x02009674                GetSecPerCls()
                0x020096e4                GetFisrtCls()
                0x020096fc                FAT_SetSystemDateTime(unsigned short, unsigned short)
                0x0200971c                FAT_GetOpenedFileHandlesCount()
                0x02009754                ucase(char)
                0x02009768                FAT_GetFATType()
                0x02009794                FAT_NextCluster(unsigned int)
                0x0200a1bc                FAT_WriteFatEntry(unsigned int, unsigned int)
                0x0200a39c                FAT_ReadWriteFatEntryBuffered(unsigned int, unsigned int)
                0x0200a628                FAT_WriteFatEntryFlushBuffer()
                0x0200a670                FAT_FirstFreeCluster()
                0x0200a718                FAT_LinkFreeCluster(unsigned int)
                0x0200a7a4                FAT_ClearLinks(unsigned int)
                0x0200a818                FAT_InitFiles()
                0x0200abf0                FAT_GetDirEntry(unsigned int, int, int)
                0x0200b218                FAT_GetAlias(char*)
                0x0200b298                FAT_GetFileSize()
                0x0200b2e4                FAT_DirEntFromPath(char const*)
                0x0200b89c                FAT_FindNextFile(char const**)
                0x0200b91c                FAT_FindFirstFile(char const**)
                0x0200b99c                FAT_FileExists(char const*)
                0x0200b9d8                FAT_GetFileSystemType()
                0x0200b9e8                FAT_GetFileSystemTotalSize()
                0x0200b9f8                FAT_GetVolumeLabel()
                0x0200ba04                FAT_chdir(char const*)
                0x0200bad4                FAT_AddDirEntry(char const*, DIR_ENT)
                0x0200c258                FAT_getdir()
                0x0200c264                FAT_fopen(char const*, char const*)
                0x0200cc40                FAT_fclose(FAT_FILE*)
                0x0200cd40                FAT_FreeFiles()
                0x0200cd98                FAT_ftell(FAT_FILE*)
                0x0200cdf8                FAT_fseek(FAT_FILE*, int, int)
                0x0200d128                FAT_fread(void*, unsigned int, unsigned int, FAT_FILE*)
                0x0200d690                FAT_Prohibition16bitsReadAccess()
                0x0200d6b4                FAT_fread_fast(void*, unsigned int, unsigned int, FAT_FILE*)
                0x0200dabc                FAT_fskip(unsigned int, unsigned int, FAT_FILE*)
                0x0200dd50                FAT_fwrite(void const*, unsigned int, unsigned int, FAT_FILE*)
                0x0200e260                FAT_feof(FAT_FILE*)
                0x0200e290                FAT_remove(char const*)
                0x0200e420                FAT_mkdir(char const*)
                0x0200e6e4                FAT_fgetc(FAT_FILE*)
                0x0200e714                FAT_fputc(char, FAT_FILE*)
                0x0200e74c                FAT_fgets(char*, int, FAT_FILE*)
                0x0200e838                FAT_fputs(char const*, FAT_FILE*)
                0x0200e874                FAT_fprintf(FAT_FILE*, char const*, ...)
                0x0200e8c4                FAT_freopen(FAT_FILE*)
                0x0200e9c8                FAT_Move(char const*, char const*)
                0x0200eed8                FAT_DeleteFile(char const*)
                0x0200f294                FAT_ShowDirectoryEntryList(char const*)
 .text          0x0200f494      0x41c Dual_Resampler.o
                0x0200f494                Dual_Resampler::~Dual_Resampler()
                0x0200f494                Dual_Resampler::~Dual_Resampler()
                0x0200f4bc                Dual_Resampler::~Dual_Resampler()
                0x0200f4d8                Dual_Resampler::Dual_Resampler()
                0x0200f4d8                Dual_Resampler::Dual_Resampler()
                0x0200f50c                Dual_Resampler::resize(int)
                0x0200f564                Dual_Resampler::reset(int)
                0x0200f5d4                Dual_Resampler::mix_samples(Blip_Buffer&, short*)
                0x0200f688                Dual_Resampler::play_frame_(Blip_Buffer&, short*)
                0x0200f7e4                Dual_Resampler::dual_play(long, short*, Blip_Buffer&)
 .text          0x0200f8b0      0x81c Fir_Resampler.o
                0x0200f8b0                Fir_Resampler_::Fir_Resampler_(int, short*)
                0x0200f8b0                Fir_Resampler_::Fir_Resampler_(int, short*)
                0x0200f908                Fir_Resampler_::~Fir_Resampler_()
                0x0200f908                Fir_Resampler_::~Fir_Resampler_()
                0x0200f920                Fir_Resampler_::clear()
                0x0200f964                Fir_Resampler_::buffer_size(int)
                0x0200f9b8                Fir_Resampler_::time_ratio(double, double, double)
                0x0200ff6c                Fir_Resampler_::input_needed(int) const
                0x0200fff8                Fir_Resampler_::avail_(int) const
                0x0201006c                Fir_Resampler_::skip_input(long)
 .text          0x020100cc      0xc14 Gym_Emu.o
                0x020100cc                Gym_Emu::play_(long, short*)
                0x020100e8                Gym_Emu::start_track_(int)
                0x0201016c                Gym_Emu::mute_voices_(int)
                0x020101b0                Gym_Emu::set_sample_rate_(long)
                0x02010370                Gym_Emu::~Gym_Emu()
                0x02010370                Gym_Emu::~Gym_Emu()
                0x020103c4                non-virtual thunk to Gym_Emu::~Gym_Emu()
                0x020103cc                Gym_Emu::~Gym_Emu()
                0x020103e8                non-virtual thunk to Gym_Emu::~Gym_Emu()
                0x02010484                Gym_Emu::load_mem_(unsigned char const*, long)
                0x02010518                Gym_Emu::set_tempo_(double)
                0x02010780                Gym_Emu::Gym_Emu()
                0x02010780                Gym_Emu::Gym_Emu()
                0x02010820                Gym_Emu::track_length() const
                0x02010888                Gym_Emu::track_info_(track_info_t*, int) const
                0x020108b4                Gym_Emu::run_dac(int)
                0x02010b2c                Gym_Emu::parse_frame()
                0x02010c74                Gym_Emu::play_frame(int, int, short*)
                0x02010cd8                non-virtual thunk to Gym_Emu::play_frame(int, int, short*)
 .text          0x02010ce0        0x0 M3u_Playlist.o
 .text          0x02010ce0      0xaec Nsfe_Emu.o
                0x02010ce0                Nsfe_Emu::clear_playlist_()
                0x02010d04                Nsfe_Emu::unload()
                0x02010fac                Nsfe_Info::Nsfe_Info()
                0x02010fac                Nsfe_Info::Nsfe_Info()
                0x02010fd8                Nsfe_Info::~Nsfe_Info()
                0x02010fd8                Nsfe_Info::~Nsfe_Info()
                0x02011008                Nsfe_Emu::~Nsfe_Emu()
                0x02011008                Nsfe_Emu::~Nsfe_Emu()
                0x02011038                Nsfe_Emu::~Nsfe_Emu()
                0x02011054                Nsfe_Info::disable_playlist(bool)
                0x0201107c                Nsfe_Info::remap_track(int) const
                0x020110a0                Nsfe_Emu::start_track_(int)
                0x020110c4                Nsfe_Info::load(Data_Reader&, Nsf_Emu*)
                0x020115a0                Nsfe_Emu::load_(Data_Reader&)
                0x02011610                Nsfe_Info::track_info_(track_info_t*, int) const
                0x020116c8                Nsfe_Emu::track_info_(track_info_t*, int) const
                0x020116d4                Nsfe_Emu::Nsfe_Emu()
                0x020116d4                Nsfe_Emu::Nsfe_Emu()
                0x0201178c                Nsfe_Emu::disable_playlist(bool)
 .text          0x020117cc      0x908 Snes_Spc.o
                0x020117cc                Snes_Spc::Snes_Spc()
                0x020117cc                Snes_Spc::Snes_Spc()
                0x02011864                Snes_Spc::set_tempo(double)
                0x020118a4                Snes_Spc::set_ipl_rom(void const*)
                0x020118b4                Snes_Spc::clear_echo()
                0x020118ec                Snes_Spc::Timer::run_until_(int)
                0x02011980                Snes_Spc::run_dsp_(int)
                0x020119e8                Snes_Spc::read(unsigned int)
                0x02011a88                Snes_Spc::enable_rom(bool)
                0x02011abc                Snes_Spc::load_state(Spc_Cpu::registers_t const&, void const*, void const*)
                0x02011be0                Snes_Spc::load_spc(void const*, long)
                0x02011cac                Snes_Spc::write(unsigned int, int)
                0x02011edc                Snes_Spc::play(long, short*)
                0x0201205c                Snes_Spc::skip(long)
 .text          0x020120d4     0x1fec Spc_Cpu.o
                0x020120d4                Spc_Cpu::Spc_Cpu(Snes_Spc*, unsigned char*)
                0x020120d4                Spc_Cpu::Spc_Cpu(Snes_Spc*, unsigned char*)
                0x02012128                Spc_Cpu::read(unsigned int)
                0x02012130                Spc_Cpu::write(unsigned int, int)
                0x02012138                Spc_Cpu::mem_bit(unsigned int)
                0x02012174                Spc_Cpu::run(int)
 .text          0x020140c0      0xe48 Spc_Dsp.o
                0x020140c0                Spc_Dsp::Spc_Dsp(unsigned char*)
                0x020140c0                Spc_Dsp::Spc_Dsp(unsigned char*)
                0x02014160                Spc_Dsp::mute_voices(int)
                0x02014190                Spc_Dsp::reset()
                0x02014204                Spc_Dsp::write(int, int)
                0x020142b8                Spc_Dsp::run(long, short*)
 .text          0x02014f08      0x7a0 Spc_Emu.o
                0x02014f08                Spc_Emu::start_track_(int)
                0x02014f48                Spc_Emu::set_tempo_(double)
                0x02014f50                Spc_Emu::mute_voices_(int)
                0x02014f5c                Spc_Emu::set_sample_rate_(long)
                0x02015350                Spc_Emu::track_info_(track_info_t*, int) const
                0x02015394                Spc_Emu::skip_(long)
                0x02015414                Spc_Emu::~Spc_Emu()
                0x02015414                Spc_Emu::~Spc_Emu()
                0x0201543c                Spc_Emu::~Spc_Emu()
                0x0201549c                Spc_Emu::load_mem_(unsigned char const*, long)
                0x020154f4                Spc_Emu::Spc_Emu()
                0x020154f4                Spc_Emu::Spc_Emu()
                0x0201559c                Spc_Emu::trailer() const
                0x020155c4                Spc_Emu::trailer_size() const
                0x020155d8                Spc_Emu::play_(long, short*)
 .text          0x020156a8      0xc98 Vgm_Emu.o
                0x02015884                Vgm_Emu::run_clocks(int&, int)
                0x020158c8                Vgm_Emu::mute_voices_(int)
                0x02015990                Vgm_Emu::set_voice(int, Blip_Buffer*, Blip_Buffer*, Blip_Buffer*)
                0x020159a0                Vgm_Emu::update_eq(blip_eq_t const&)
                0x020159c4                Vgm_Emu::set_tempo_(double)
                0x02015aa8                Vgm_Emu::play_(long, short*)
                0x02015ad8                Vgm_Emu::set_sample_rate_(long)
                0x02015b8c                Vgm_Emu::start_track_(int)
                0x02015cdc                Vgm_Emu::~Vgm_Emu()
                0x02015cdc                Vgm_Emu::~Vgm_Emu()
                0x02015d38                non-virtual thunk to Vgm_Emu::~Vgm_Emu()
                0x02015d40                Vgm_Emu::~Vgm_Emu()
                0x02015d5c                non-virtual thunk to Vgm_Emu::~Vgm_Emu()
                0x02015d64                Vgm_Emu::Vgm_Emu()
                0x02015d64                Vgm_Emu::Vgm_Emu()
                0x02015e44                Vgm_Emu::gd3_data(int*) const
                0x02015ec0                Vgm_Emu::track_info_(track_info_t*, int) const
                0x02015f0c                Vgm_Emu::setup_fm()
                0x0201624c                Vgm_Emu::load_mem_(unsigned char const*, long)
 .text          0x02016340      0x7d4 Vgm_Emu_Impl.o
                0x02016340                Vgm_Emu_Impl::write_pcm(int, int)
                0x02016478                Vgm_Emu_Impl::run_commands(int)
                0x02016898                Vgm_Emu_Impl::play_frame(int, int, short*)
                0x020169ec                non-virtual thunk to Vgm_Emu_Impl::play_frame(int, int, short*)
                0x020169f4                Vgm_Emu_Impl::update_fm_rates(long*, long*) const
 .text          0x02016b14       0x20 Ym2413_Emu.o
                0x02016b14                Ym2413_Emu::Ym2413_Emu()
                0x02016b14                Ym2413_Emu::Ym2413_Emu()
                0x02016b18                Ym2413_Emu::~Ym2413_Emu()
                0x02016b18                Ym2413_Emu::~Ym2413_Emu()
                0x02016b1c                Ym2413_Emu::set_rate(double, double)
                0x02016b24                Ym2413_Emu::reset()
                0x02016b28                Ym2413_Emu::write(int, int)
                0x02016b2c                Ym2413_Emu::mute_voices(int)
                0x02016b30                Ym2413_Emu::run(int, short*)
 .text          0x02016b34     0x1810 Ym2612_Emu.o
                0x02016c1c                Ym2612_Impl::KEY_ON(channel_t&, int)
                0x02016c84                Ym2612_Impl::KEY_OFF(channel_t&, int)
                0x02016ce0                Ym2612_Impl::SLOT_SET(int, int)
                0x02016f38                Ym2612_Impl::CHANNEL_SET(int, int)
                0x020171ac                Ym2612_Impl::YM_SET(int, int)
                0x020173b0                Ym2612_Emu::~Ym2612_Emu()
                0x020173b0                Ym2612_Emu::~Ym2612_Emu()
                0x020173c8                Ym2612_Impl::reset()
                0x020175dc                Ym2612_Emu::reset()
                0x020175e4                Ym2612_Impl::set_rate(double, double)
                0x02017ec8                Ym2612_Emu::set_rate(double, double)
                0x02017f48                Ym2612_Emu::write0(int, int)
                0x02017fa0                Ym2612_Emu::write1(int, int)
                0x02017ff0                Ym2612_Emu::mute_voices(int)
                0x02018004                Ym2612_Impl::run_timer(int)
                0x02018104                Ym2612_Impl::run(int, short*)
                0x0201833c                Ym2612_Emu::run(int, short*)
 .text          0x02018344        0x0 _console_font_fixed6x6_packed_bin.o
 .text          0x02018344        0x0 bootwarn_b8zlib.o
 .text          0x02018344        0x0 guidxcrcerror_b8zlib.o
 .text          0x02018344        0x0 versionerror_b8zlib.o
 .text          0x02018344      0x408 adler32.o
                0x02018344                adler32
                0x02018694                adler32_combine
 .text          0x0201874c      0x378 crc32.o
                0x02018854                get_crc_table
                0x0201887c                crc32
                0x020189c8                crc32_combine
 .text          0x02018ac4     0x15e8 deflate.o
                0x02019348                deflateSetDictionary
                0x02019450                deflateReset
                0x0201958c                deflateSetHeader
                0x020195c0                deflatePrime
                0x02019604                deflateTune
                0x0201963c                deflateBound
                0x02019684                deflate
                0x02019a64                deflateParams
                0x02019b34                deflateEnd
                0x02019c24                deflateInit2_
                0x02019eac                deflateInit_
                0x02019ee0                deflateCopy
 .text          0x0201a0ac     0x1308 infback.o
                0x0201a0ac                inflateBackInit_
                0x0201a198                inflateBack
                0x0201b374                inflateBackEnd
 .text          0x0201b3b4      0x594 inffast.o
                0x0201b3b4                inflate_fast
 .text          0x0201b948     0x1c24 inflate.o
                0x0201bb2c                inflateReset
                0x0201bbb0                inflatePrime
                0x0201bc0c                inflateInit2_
                0x0201bd08                inflateInit_
                0x0201bd1c                inflate
                0x0201d0fc                inflateEnd
                0x0201d15c                inflateSetDictionary
                0x0201d24c                inflateGetHeader
                0x0201d288                inflateSync
                0x0201d3c8                inflateSyncPoint
                0x0201d408                inflateCopy
 .text          0x0201d56c      0x56c inftrees.o
                0x0201d56c                inflate_table
 .text          0x0201dad8     0x1fb8 trees.o
                0x0201eed8                _tr_init
                0x0201efd4                _tr_stored_block
                0x0201f10c                _tr_align
                0x0201f32c                _tr_flush_block
                0x0201f9ac                _tr_tally
 .text          0x0201fa90       0x3c zutil.o
                0x0201fa90                zlibVersion
                0x0201fa9c                zlibCompileFlags
                0x0201faa8                zError
                0x0201fabc                zcalloc
                0x0201fac4                zcfree
 .text          0x0201facc        0x0 floor_lookup.o
 .text          0x0201facc        0x0 motion_comp_arm_s.o
 .text          0x0201facc        0x0 jpeg_idct_ifast_clip_asm.o
 .text          0x0201facc      0x128 /opt/devkitpro/libnds/lib/libnds9.a(system.o)
                0x0201facc                setSDcallback
                0x0201fad8                systemMsgHandler
                0x0201fb1c                systemSleep
                0x0201fb34                systemValueHandler
                0x0201fb70                powerOn
                0x0201fb9c                powerOff
                0x0201fbc4                ledBlink
                0x0201fbd4                getBatteryLevel
 .text          0x0201fbf4      0x1f8 /opt/devkitpro/libnds/lib/libnds9.a(video.o)
                0x0201fbf4                vramSetPrimaryBanks
                0x0201fc38                vramSetMainBanks
                0x0201fc7c                vramSetBanks_EFG
                0x0201fcb4                vramRestorePrimaryBanks
                0x0201fcc0                vramRestoreMainBanks
                0x0201fccc                vramRestoreBanks_EFG
                0x0201fcd8                setBrightness
                0x0201fd18                vramDefault
 .text          0x0201fdec      0x238 /opt/devkitpro/libnds/lib/libnds9.a(dldi.o)
                0x0201fdec                dldiGetInternal
                0x0201fe24                dldiIsValid
                0x0201fe5c                dldiFixDriverAddresses
                0x0201ff34                dldiLoadFromFile
                0x02020018                dldiFree
 .text          0x02020024      0x140 /opt/devkitpro/libnds/lib/libnds9.a(initSystem.o)
                0x02020024                initSystem
 .text          0x02020164      0xc58 /opt/devkitpro/libnds/lib/libnds9.a(fifosystem.o)
                0x020203b8                fifoSendAddress
                0x020203e4                fifoSendValue32
                0x02020424                fifoSendDatamsg
                0x02020494                fifoGetAddress
                0x0202050c                fifoSetAddressHandler
                0x02020580                fifoGetValue32
                0x020205f4                fifoSetValue32Handler
                0x02020668                fifoGetDatamsg
                0x02020aec                fifoSetDatamsgHandler
                0x02020b84                fifoCheckAddress
                0x02020ba8                fifoCheckDatamsg
                0x02020bcc                fifoCheckValue32
                0x02020bf0                fifoInit
 .text          0x02020dbc      0x1ec /opt/devkitpro/libnds/lib/libnds9.a(interrupts.o)
                0x02020dbc                irqDummy
                0x02020dc0                irqSet
                0x02020e2c                irqInit
                0x02020e78                irqInitHandler
                0x02020ea8                irqEnable
                0x02020f0c                irqDisable
                0x02020f70                irqClear
 .text          0x02020fa8       0x58 /opt/devkitpro/libnds/lib/libnds9.a(libnds_exit.arm.o)
                0x02020fa8                systemErrorExit
                0x02020fac                __libnds_exit
 .text          0x02021000       0x70 /opt/devkitpro/libnds/lib/libnds9.a(dcache.o)
                0x02021000                DC_FlushAll
                0x0202102c                DC_FlushRange
                0x02021048                DC_InvalidateAll
                0x02021054                DC_InvalidateRange
 .text          0x02021070       0x28 /opt/devkitpro/libnds/lib/libnds9.a(icache.o)
                0x02021070                IC_InvalidateAll
                0x0202107c                IC_InvalidateRange
 *fill*         0x02021098       0x28 ff
 .text          0x020210c0     0x8000 /opt/devkitpro/libnds/lib/libnds9.a(dldi_stub.o)
                0x020210c0                _io_dldi_stub
 .text          0x020290c0      0x1b4 /opt/devkitpro/libnds/lib/libnds9.a(mpu_setup.o)
                0x020290c0                __libnds_mpu_setup
                0x02029200                memCached
                0x02029218                memUncached
 *fill*         0x02029274        0xc ff
 .text          0x02029280       0x70 /opt/devkitpro/libnds/lib/libnds9.a(biosCalls.o)
                0x02029280                swiDelay
                0x02029284                swiIntrWait
                0x02029288                swiWaitForVBlank
                0x0202928c                swiSleep
                0x02029290                swiChangeSoundBias
                0x02029294                swiDivide
                0x02029298                swiRemainder
                0x0202929e                swiDivMod
                0x020292aa                swiCopy
                0x020292ae                swiFastCopy
                0x020292b2                swiSqrt
                0x020292b6                swiCRC16
                0x020292ba                swiIsDebugger
                0x020292be                swiUnpackBits
                0x020292c2                swiDecompressLZSSWram
                0x020292c6                swiDecompressLZSSVramNTR
                0x020292ca                swiDecompressLZSSVramTWL
                0x020292ce                swiDecompressHuffman
                0x020292d2                swiDecompressRLEWram
                0x020292d6                swiDecompressRLEVram
                0x020292da                swiWaitForIRQ
                0x020292de                swiDecodeDelta8
                0x020292e2                swiDecodeDelta16
                0x020292e6                swiSetHaltCR
 .text          0x020292f0       0xa4 /opt/devkitpro/libnds/lib/libnds9.a(debugprint.o)
                0x020292f0                nocashWrite
                0x020292f2                nocashMessage
 .text          0x02029394        0x0 /opt/devkitpro/libnds/lib/libnds9.a(interruptDispatcher.o)
 *fill*         0x02029394        0xc ff
 .text          0x020293a0       0x30 /opt/devkitpro/libnds/lib/libnds9.a(swiSoftReset.o)
                0x020293a0                swiSoftReset
 .text          0x020293d0        0x0 /opt/devkitpro/devkitARM/lib/gcc/arm-none-eabi/4.7.1/../../../../arm-none-eabi/lib/libstdc++.a(del_op.o)
 .text          0x020293d0        0x0 /opt/devkitpro/devkitARM/lib/gcc/arm-none-eabi/4.7.1/../../../../arm-none-eabi/lib/libstdc++.a(new_op.o)
 .text          0x020293d0        0x0 /opt/devkitpro/devkitARM/lib/gcc/arm-none-eabi/4.7.1/../../../../arm-none-eabi/lib/libstdc++.a(pure.o)
 .text          0x020293d0        0x0 /opt/devkitpro/devkitARM/lib/gcc/arm-none-eabi/4.7.1/../../../../arm-none-eabi/lib/libstdc++.a(bad_alloc.o)
 .text          0x020293d0        0x0 /opt/devkitpro/devkitARM/lib/gcc/arm-none-eabi/4.7.1/../../../../arm-none-eabi/lib/libstdc++.a(eh_alloc.o)
 .text          0x020293d0        0x0 /opt/devkitpro/devkitARM/lib/gcc/arm-none-eabi/4.7.1/../../../../arm-none-eabi/lib/libstdc++.a(eh_arm.o)
 .text          0x020293d0        0x0 /opt/devkitpro/devkitARM/lib/gcc/arm-none-eabi/4.7.1/../../../../arm-none-eabi/lib/libstdc++.a(eh_call.o)
 .text          0x020293d0        0x0 /opt/devkitpro/devkitARM/lib/gcc/arm-none-eabi/4.7.1/../../../../arm-none-eabi/lib/libstdc++.a(eh_catch.o)
 .text          0x020293d0        0x0 /opt/devkitpro/devkitARM/lib/gcc/arm-none-eabi/4.7.1/../../../../arm-none-eabi/lib/libstdc++.a(eh_exception.o)
 .text          0x020293d0        0x0 /opt/devkitpro/devkitARM/lib/gcc/arm-none-eabi/4.7.1/../../../../arm-none-eabi/lib/libstdc++.a(eh_globals.o)
 .text          0x020293d0        0x0 /opt/devkitpro/devkitARM/lib/gcc/arm-none-eabi/4.7.1/../../../../arm-none-eabi/lib/libstdc++.a(eh_personality.o)
 .text          0x020293d0        0x0 /opt/devkitpro/devkitARM/lib/gcc/arm-none-eabi/4.7.1/../../../../arm-none-eabi/lib/libstdc++.a(eh_terminate.o)
 .text          0x020293d0        0x0 /opt/devkitpro/devkitARM/lib/gcc/arm-none-eabi/4.7.1/../../../../arm-none-eabi/lib/libstdc++.a(eh_throw.o)
 .text          0x020293d0        0x0 /opt/devkitpro/devkitARM/lib/gcc/arm-none-eabi/4.7.1/../../../../arm-none-eabi/lib/libstdc++.a(eh_unex_handler.o)
 .text          0x020293d0        0x0 /opt/devkitpro/devkitARM/lib/gcc/arm-none-eabi/4.7.1/../../../../arm-none-eabi/lib/libstdc++.a(new_handler.o)
 .text          0x020293d0        0x0 /opt/devkitpro/devkitARM/lib/gcc/arm-none-eabi/4.7.1/../../../../arm-none-eabi/lib/libstdc++.a(si_class_type_info.o)
 .text          0x020293d0        0x0 /opt/devkitpro/devkitARM/lib/gcc/arm-none-eabi/4.7.1/../../../../arm-none-eabi/lib/libstdc++.a(tinfo.o)
 .text          0x020293d0        0x0 /opt/devkitpro/devkitARM/lib/gcc/arm-none-eabi/4.7.1/../../../../arm-none-eabi/lib/libstdc++.a(class_type_info.o)
 .text          0x020293d0        0x0 /opt/devkitpro/devkitARM/lib/gcc/arm-none-eabi/4.7.1/../../../../arm-none-eabi/lib/libstdc++.a(eh_term_handler.o)
 .text          0x020293d0        0x0 /opt/devkitpro/devkitARM/lib/gcc/arm-none-eabi/4.7.1/../../../../arm-none-eabi/lib/libstdc++.a(vterminate.o)
 .text          0x020293d0     0x7c60 /opt/devkitpro/devkitARM/lib/gcc/arm-none-eabi/4.7.1/../../../../arm-none-eabi/lib/libstdc++.a(cp-demangle.o)
                0x02030eb4                __cxa_demangle
                0x02031000                __gcclibcxx_demangle_callback
 .text          0x02031030        0x0 /opt/devkitpro/devkitARM/lib/gcc/arm-none-eabi/4.7.1/../../../../arm-none-eabi/lib/libstdc++.a(eh_type.o)
 .text          0x02031030       0xf4 /opt/devkitpro/devkitARM/lib/gcc/arm-none-eabi/4.7.1/../../../../arm-none-eabi/lib/libm.a(lib_a-s_cos.o)
                0x02031030                cos
 .text          0x02031124        0x8 /opt/devkitpro/devkitARM/lib/gcc/arm-none-eabi/4.7.1/../../../../arm-none-eabi/lib/libm.a(lib_a-s_fabs.o)
                0x02031124                fabs
 *fill*         0x0203112c        0x4 ff
 .text          0x02031130      0x198 /opt/devkitpro/devkitARM/lib/gcc/arm-none-eabi/4.7.1/../../../../arm-none-eabi/lib/libm.a(lib_a-s_floor.o)
                0x02031130                floor
 .text          0x020312c8      0x100 /opt/devkitpro/devkitARM/lib/gcc/arm-none-eabi/4.7.1/../../../../arm-none-eabi/lib/libm.a(lib_a-s_sin.o)
                0x020312c8                sin
 .text          0x020313c8        0x8 /opt/devkitpro/devkitARM/lib/gcc/arm-none-eabi/4.7.1/../../../../arm-none-eabi/lib/libm.a(lib_a-sf_fabs.o)
                0x020313c8                fabsf
 .text          0x020313d0      0x13c /opt/devkitpro/devkitARM/lib/gcc/arm-none-eabi/4.7.1/../../../../arm-none-eabi/lib/libm.a(lib_a-w_fmod.o)
                0x020313d0                fmod
 .text          0x0203150c      0x17c /opt/devkitpro/devkitARM/lib/gcc/arm-none-eabi/4.7.1/../../../../arm-none-eabi/lib/libm.a(lib_a-w_log10.o)
                0x0203150c                log10
 .text          0x02031688      0x500 /opt/devkitpro/devkitARM/lib/gcc/arm-none-eabi/4.7.1/../../../../arm-none-eabi/lib/libm.a(lib_a-w_pow.o)
                0x02031688                pow
 .text          0x02031b88      0x340 /opt/devkitpro/devkitARM/lib/gcc/arm-none-eabi/4.7.1/../../../../arm-none-eabi/lib/libm.a(lib_a-e_fmod.o)
                0x02031b88                __ieee754_fmod
 .text          0x02031ec8      0x1a8 /opt/devkitpro/devkitARM/lib/gcc/arm-none-eabi/4.7.1/../../../../arm-none-eabi/lib/libm.a(lib_a-e_log10.o)
                0x02031ec8                __ieee754_log10
 .text          0x02032070     0x1030 /opt/devkitpro/devkitARM/lib/gcc/arm-none-eabi/4.7.1/../../../../arm-none-eabi/lib/libm.a(lib_a-e_pow.o)
                0x02032070                __ieee754_pow
 .text          0x020330a0      0x670 /opt/devkitpro/devkitARM/lib/gcc/arm-none-eabi/4.7.1/../../../../arm-none-eabi/lib/libm.a(lib_a-e_rem_pio2.o)
                0x020330a0                __ieee754_rem_pio2
 .text          0x02033710      0x23c /opt/devkitpro/devkitARM/lib/gcc/arm-none-eabi/4.7.1/../../../../arm-none-eabi/lib/libm.a(lib_a-e_sqrt.o)
                0x02033710                __ieee754_sqrt
 *fill*         0x0203394c        0x4 ff
 .text          0x02033950      0x368 /opt/devkitpro/devkitARM/lib/gcc/arm-none-eabi/4.7.1/../../../../arm-none-eabi/lib/libm.a(lib_a-k_cos.o)
                0x02033950                __kernel_cos
 .text          0x02033cb8      0xb90 /opt/devkitpro/devkitARM/lib/gcc/arm-none-eabi/4.7.1/../../../../arm-none-eabi/lib/libm.a(lib_a-k_rem_pio2.o)
                0x02033cb8                __kernel_rem_pio2
 .text          0x02034848      0x220 /opt/devkitpro/devkitARM/lib/gcc/arm-none-eabi/4.7.1/../../../../arm-none-eabi/lib/libm.a(lib_a-k_sin.o)
                0x02034848                __kernel_sin
 .text          0x02034a68       0x10 /opt/devkitpro/devkitARM/lib/gcc/arm-none-eabi/4.7.1/../../../../arm-none-eabi/lib/libm.a(lib_a-s_finite.o)
                0x02034a68                finite
 .text          0x02034a78       0x6c /opt/devkitpro/devkitARM/lib/gcc/arm-none-eabi/4.7.1/../../../../arm-none-eabi/lib/libm.a(lib_a-s_fpclassify.o)
                0x02034a78                __fpclassifyd
 .text          0x02034ae4        0x0 /opt/devkitpro/devkitARM/lib/gcc/arm-none-eabi/4.7.1/../../../../arm-none-eabi/lib/libm.a(lib_a-s_lib_ver.o)
 .text          0x02034ae4        0x8 /opt/devkitpro/devkitARM/lib/gcc/arm-none-eabi/4.7.1/../../../../arm-none-eabi/lib/libm.a(lib_a-s_matherr.o)
                0x02034ae4                matherr
 .text          0x02034aec       0x10 /opt/devkitpro/devkitARM/lib/gcc/arm-none-eabi/4.7.1/../../../../arm-none-eabi/lib/libm.a(lib_a-s_nan.o)
                0x02034aec                nan
 .text          0x02034afc      0x1a0 /opt/devkitpro/devkitARM/lib/gcc/arm-none-eabi/4.7.1/../../../../arm-none-eabi/lib/libm.a(lib_a-s_rint.o)
                0x02034afc                rint
 *fill*         0x02034c9c        0x4 ff
 .text          0x02034ca0      0x198 /opt/devkitpro/devkitARM/lib/gcc/arm-none-eabi/4.7.1/../../../../arm-none-eabi/lib/libm.a(lib_a-s_scalbn.o)
                0x02034ca0                scalbn
 .text          0x02034e38      0x5d0 /opt/devkitpro/devkitARM/lib/gcc/arm-none-eabi/4.7.1/../../../../arm-none-eabi/lib/libm.a(lib_a-e_log.o)
                0x02034e38                __ieee754_log
 .text          0x02035408       0x20 /opt/devkitpro/devkitARM/lib/gcc/arm-none-eabi/4.7.1/../../../../arm-none-eabi/lib/libm.a(lib_a-s_copysign.o)
                0x02035408                copysign
 .text          0x02035428      0x114 /opt/devkitpro/devkitARM/lib/gcc/arm-none-eabi/4.7.1/libgcc.a(_udivsi3.o)
                0x02035428                __udivsi3
                0x02035428                __aeabi_uidiv
                0x0203551c                __aeabi_uidivmod
 .text          0x0203553c      0x148 /opt/devkitpro/devkitARM/lib/gcc/arm-none-eabi/4.7.1/libgcc.a(_divsi3.o)
                0x0203553c                __divsi3
                0x0203553c                __aeabi_idiv
                0x02035664                __aeabi_idivmod
 .text          0x02035684        0x4 /opt/devkitpro/devkitARM/lib/gcc/arm-none-eabi/4.7.1/libgcc.a(_dvmd_tls.o)
                0x02035684                __aeabi_ldiv0
                0x02035684                __aeabi_idiv0
 .text          0x02035688      0x41c /opt/devkitpro/devkitARM/lib/gcc/arm-none-eabi/4.7.1/libgcc.a(_arm_addsubdf3.o)
                0x02035688                __aeabi_drsub
                0x02035690                __aeabi_dsub
                0x02035690                __subdf3
                0x02035694                __adddf3
                0x02035694                __aeabi_dadd
                0x020359a4                __floatunsidf
                0x020359a4                __aeabi_ui2d
                0x020359c8                __aeabi_i2d
                0x020359c8                __floatsidf
                0x020359f0                __extendsfdf2
                0x020359f0                __aeabi_f2d
                0x02035a30                __aeabi_ul2d
                0x02035a30                __floatundidf
                0x02035a44                __floatdidf
                0x02035a44                __aeabi_l2d
 .text          0x02035aa4      0x49c /opt/devkitpro/devkitARM/lib/gcc/arm-none-eabi/4.7.1/libgcc.a(_arm_muldivdf3.o)
                0x02035aa4                __aeabi_dmul
                0x02035aa4                __muldf3
                0x02035d34                __aeabi_ddiv
                0x02035d34                __divdf3
 .text          0x02035f40      0x144 /opt/devkitpro/devkitARM/lib/gcc/arm-none-eabi/4.7.1/libgcc.a(_arm_cmpdf2.o)
                0x02035f40                __gtdf2
                0x02035f40                __gedf2
                0x02035f48                __ledf2
                0x02035f48                __ltdf2
                0x02035f50                __eqdf2
                0x02035f50                __cmpdf2
                0x02035f50                __nedf2
                0x02035fd8                __aeabi_cdrcmple
                0x02035ff4                __aeabi_cdcmpeq
                0x02035ff4                __aeabi_cdcmple
                0x0203600c                __aeabi_dcmpeq
                0x02036024                __aeabi_dcmplt
                0x0203603c                __aeabi_dcmple
                0x02036054                __aeabi_dcmpge
                0x0203606c                __aeabi_dcmpgt
 .text          0x02036084       0x5c /opt/devkitpro/devkitARM/lib/gcc/arm-none-eabi/4.7.1/libgcc.a(_arm_fixdfsi.o)
                0x02036084                __aeabi_d2iz
                0x02036084                __fixdfsi
 .text          0x020360e0       0x54 /opt/devkitpro/devkitARM/lib/gcc/arm-none-eabi/4.7.1/libgcc.a(_arm_fixunsdfsi.o)
                0x020360e0                __aeabi_d2uiz
                0x020360e0                __fixunsdfsi
 .text          0x02036134       0xa0 /opt/devkitpro/devkitARM/lib/gcc/arm-none-eabi/4.7.1/libgcc.a(_arm_truncdfsf2.o)
                0x02036134                __aeabi_d2f
                0x02036134                __truncdfsf2
 .text          0x020361d4      0x2ac /opt/devkitpro/devkitARM/lib/gcc/arm-none-eabi/4.7.1/libgcc.a(_arm_addsubsf3.o)
                0x020361d4                __aeabi_frsub
                0x020361dc                __subsf3
                0x020361dc                __aeabi_fsub
                0x020361e0                __addsf3
                0x020361e0                __aeabi_fadd
                0x0203639c                __floatunsisf
                0x0203639c                __aeabi_ui2f
                0x020363a4                __floatsisf
                0x020363a4                __aeabi_i2f
                0x020363c4                __floatundisf
                0x020363c4                __aeabi_ul2f
                0x020363d4                __floatdisf
                0x020363d4                __aeabi_l2f
 .text          0x02036480      0x2f8 /opt/devkitpro/devkitARM/lib/gcc/arm-none-eabi/4.7.1/libgcc.a(_arm_muldivsf3.o)
                0x02036480                __mulsf3
                0x02036480                __aeabi_fmul
                0x02036618                __aeabi_fdiv
                0x02036618                __divsf3
 .text          0x02036778      0x114 /opt/devkitpro/devkitARM/lib/gcc/arm-none-eabi/4.7.1/libgcc.a(_arm_cmpsf2.o)
                0x02036778                __gesf2
                0x02036778                __gtsf2
                0x02036780                __lesf2
                0x02036780                __ltsf2
                0x02036788                __nesf2
                0x02036788                __eqsf2
                0x02036788                __cmpsf2
                0x020367ec                __aeabi_cfrcmple
                0x020367fc                __aeabi_cfcmple
                0x020367fc                __aeabi_cfcmpeq
                0x02036814                __aeabi_fcmpeq
                0x0203682c                __aeabi_fcmplt
                0x02036844                __aeabi_fcmple
                0x0203685c                __aeabi_fcmpge
                0x02036874                __aeabi_fcmpgt
 .text          0x0203688c       0x5c /opt/devkitpro/devkitARM/lib/gcc/arm-none-eabi/4.7.1/libgcc.a(_arm_fixsfsi.o)
                0x0203688c                __fixsfsi
                0x0203688c                __aeabi_f2iz
 .text          0x020368e8       0x54 /opt/devkitpro/devkitARM/lib/gcc/arm-none-eabi/4.7.1/libgcc.a(_arm_fixunssfsi.o)
                0x020368e8                __fixunssfsi
                0x020368e8                __aeabi_f2uiz
 .text          0x0203693c       0x44 /opt/devkitpro/devkitARM/lib/gcc/arm-none-eabi/4.7.1/libgcc.a(_aeabi_ldivmod.o)
                0x0203693c                __aeabi_ldivmod
 .text          0x02036980       0x3c /opt/devkitpro/devkitARM/lib/gcc/arm-none-eabi/4.7.1/libgcc.a(_aeabi_uldivmod.o)
                0x02036980                __aeabi_uldivmod
 .text          0x020369bc       0x84 /opt/devkitpro/devkitARM/lib/gcc/arm-none-eabi/4.7.1/libgcc.a(bpabi.o)
                0x020369bc                __gnu_ldivmod_helper
                0x02036a00                __gnu_uldivmod_helper
 .text          0x02036a40      0xfb4 /opt/devkitpro/devkitARM/lib/gcc/arm-none-eabi/4.7.1/libgcc.a(unwind-arm.o)
                0x02036ec8                _Unwind_GetCFA
                0x02036ed0                __gnu_Unwind_RaiseException
                0x02036f80                __gnu_Unwind_ForcedUnwind
                0x02036fa4                __gnu_Unwind_Resume
                0x0203701c                __gnu_Unwind_Resume_or_Rethrow
                0x0203703c                _Unwind_Complete
                0x02037040                _Unwind_DeleteException
                0x02037064                _Unwind_VRS_Get
                0x020370d8                _Unwind_VRS_Set
                0x0203757c                __aeabi_unwind_cpp_pr2
                0x02037584                __aeabi_unwind_cpp_pr1
                0x0203758c                __aeabi_unwind_cpp_pr0
                0x02037594                __gnu_Unwind_Backtrace
                0x02037660                _Unwind_VRS_Pop
 .text          0x020379f4      0x1b0 /opt/devkitpro/devkitARM/lib/gcc/arm-none-eabi/4.7.1/libgcc.a(libunwind.o)
                0x020379f4                restore_core_regs
                0x020379f4                __restore_core_regs
                0x02037a10                __gnu_Unwind_Restore_VFP
                0x02037a18                __gnu_Unwind_Save_VFP
                0x02037a20                __gnu_Unwind_Restore_VFP_D
                0x02037a28                __gnu_Unwind_Save_VFP_D
                0x02037a30                __gnu_Unwind_Restore_VFP_D_16_to_31
                0x02037a38                __gnu_Unwind_Save_VFP_D_16_to_31
                0x02037a40                __gnu_Unwind_Restore_WMMXD
                0x02037a84                __gnu_Unwind_Save_WMMXD
                0x02037ac8                __gnu_Unwind_Restore_WMMXC
                0x02037adc                __gnu_Unwind_Save_WMMXC
                0x02037af0                ___Unwind_RaiseException
                0x02037af0                _Unwind_RaiseException
                0x02037b14                _Unwind_Resume
                0x02037b14                ___Unwind_Resume
                0x02037b38                ___Unwind_Resume_or_Rethrow
                0x02037b38                _Unwind_Resume_or_Rethrow
                0x02037b5c                ___Unwind_ForcedUnwind
                0x02037b5c                _Unwind_ForcedUnwind
                0x02037b80                ___Unwind_Backtrace
                0x02037b80                _Unwind_Backtrace
 .text          0x02037ba4      0x53c /opt/devkitpro/devkitARM/lib/gcc/arm-none-eabi/4.7.1/libgcc.a(pr-support.o)
                0x02037c38                __gnu_unwind_execute
                0x02038054                __gnu_unwind_frame
                0x0203809c                _Unwind_GetRegionStart
                0x020380b0                _Unwind_GetLanguageSpecificData
                0x020380d0                _Unwind_GetDataRelBase
                0x020380d8                _Unwind_GetTextRelBase
 .text          0x020380e0      0x4f0 /opt/devkitpro/devkitARM/lib/gcc/arm-none-eabi/4.7.1/libgcc.a(_divdi3.o)
                0x020380e0                __divdi3
 .text          0x020385d0      0x488 /opt/devkitpro/devkitARM/lib/gcc/arm-none-eabi/4.7.1/libgcc.a(_udivdi3.o)
                0x020385d0                __udivdi3
 .text          0x02038a58       0x48 /opt/devkitpro/devkitARM/lib/gcc/arm-none-eabi/4.7.1/libgcc.a(_clzsi2.o)
                0x02038a58                __clzsi2
 .text          0x02038aa0       0x14 /opt/devkitpro/devkitARM/lib/gcc/arm-none-eabi/4.7.1/../../../../arm-none-eabi/lib/libc.a(lib_a-abort.o)
                0x02038aa0                abort
 .text          0x02038ab4        0xc /opt/devkitpro/devkitARM/lib/gcc/arm-none-eabi/4.7.1/../../../../arm-none-eabi/lib/libc.a(lib_a-abs.o)
                0x02038ab4                abs
 .text          0x02038ac0       0x68 /opt/devkitpro/devkitARM/lib/gcc/arm-none-eabi/4.7.1/../../../../arm-none-eabi/lib/libc.a(lib_a-assert.o)
                0x02038ac0                __assert_func
                0x02038b18                __assert
 .text          0x02038b28       0x14 /opt/devkitpro/devkitARM/lib/gcc/arm-none-eabi/4.7.1/../../../../arm-none-eabi/lib/libc.a(lib_a-atof.o)
                0x02038b28                atof
 .text          0x02038b3c       0x30 /opt/devkitpro/devkitARM/lib/gcc/arm-none-eabi/4.7.1/../../../../arm-none-eabi/lib/libc.a(lib_a-atoi.o)
                0x02038b3c                atoi
                0x02038b54                _atoi_r
 .text          0x02038b6c       0x30 /opt/devkitpro/devkitARM/lib/gcc/arm-none-eabi/4.7.1/../../../../arm-none-eabi/lib/libc.a(lib_a-atol.o)
                0x02038b6c                atol
                0x02038b84                _atol_r
 .text          0x02038b9c       0x30 /opt/devkitpro/devkitARM/lib/gcc/arm-none-eabi/4.7.1/../../../../arm-none-eabi/lib/libc.a(lib_a-atoll.o)
                0x02038b9c                atoll
                0x02038bb4                _atoll_r
 .text          0x02038bcc       0x28 /opt/devkitpro/devkitARM/lib/gcc/arm-none-eabi/4.7.1/../../../../arm-none-eabi/lib/libc.a(lib_a-calloc.o)
                0x02038bcc                calloc
 .text          0x02038bf4       0x94 /opt/devkitpro/devkitARM/lib/gcc/arm-none-eabi/4.7.1/../../../../arm-none-eabi/lib/libc.a(lib_a-callocr.o)
                0x02038bf4                _calloc_r
 .text          0x02038c88       0x18 /opt/devkitpro/devkitARM/lib/gcc/arm-none-eabi/4.7.1/../../../../arm-none-eabi/lib/libc.a(lib_a-ctype_.o)
                0x02038c88                __set_ctype
 .text          0x02038ca0       0x10 /opt/devkitpro/devkitARM/lib/gcc/arm-none-eabi/4.7.1/../../../../arm-none-eabi/lib/libc.a(lib_a-errno.o)
                0x02038ca0                __errno
 .text          0x02038cb0       0x70 /opt/devkitpro/devkitARM/lib/gcc/arm-none-eabi/4.7.1/../../../../arm-none-eabi/lib/libc.a(lib_a-fiprintf.o)
                0x02038cb0                _fiprintf_r
                0x02038ce0                fiprintf
 .text          0x02038d20       0x94 /opt/devkitpro/devkitARM/lib/gcc/arm-none-eabi/4.7.1/../../../../arm-none-eabi/lib/libc.a(lib_a-fputc.o)
                0x02038d20                _fputc_r
                0x02038d64                fputc
 .text          0x02038db4       0xa8 /opt/devkitpro/devkitARM/lib/gcc/arm-none-eabi/4.7.1/../../../../arm-none-eabi/lib/libc.a(lib_a-fputs.o)
                0x02038db4                _fputs_r
                0x02038e40                fputs
 .text          0x02038e5c      0x4b8 /opt/devkitpro/devkitARM/lib/gcc/arm-none-eabi/4.7.1/../../../../arm-none-eabi/lib/libc.a(lib_a-fvwrite.o)
                0x02038e5c                __sfvwrite_r
 .text          0x02039314       0xe8 /opt/devkitpro/devkitARM/lib/gcc/arm-none-eabi/4.7.1/../../../../arm-none-eabi/lib/libc.a(lib_a-fwrite.o)
                0x02039314                _fwrite_r
                0x020393b8                fwrite
 .text          0x020393fc        0x0 /opt/devkitpro/devkitARM/lib/gcc/arm-none-eabi/4.7.1/../../../../arm-none-eabi/lib/libc.a(lib_a-impure.o)
 .text          0x020393fc       0x88 /opt/devkitpro/devkitARM/lib/gcc/arm-none-eabi/4.7.1/../../../../arm-none-eabi/lib/libc.a(lib_a-init.o)
                0x020393fc                __libc_init_array
 .text          0x02039484        0xc /opt/devkitpro/devkitARM/lib/gcc/arm-none-eabi/4.7.1/../../../../arm-none-eabi/lib/libc.a(lib_a-labs.o)
                0x02039484                labs
 .text          0x02039490       0x2c /opt/devkitpro/devkitARM/lib/gcc/arm-none-eabi/4.7.1/../../../../arm-none-eabi/lib/libc.a(lib_a-llabs.o)
                0x02039490                llabs
 .text          0x020394bc       0x40 /opt/devkitpro/devkitARM/lib/gcc/arm-none-eabi/4.7.1/../../../../arm-none-eabi/lib/libc.a(lib_a-malloc.o)
                0x020394bc                malloc
                0x020394dc                free
 .text          0x020394fc      0x71c /opt/devkitpro/devkitARM/lib/gcc/arm-none-eabi/4.7.1/../../../../arm-none-eabi/lib/libc.a(lib_a-mallocr.o)
                0x020394fc                _malloc_r
 .text          0x02039c18      0x11c /opt/devkitpro/devkitARM/lib/gcc/arm-none-eabi/4.7.1/../../../../arm-none-eabi/lib/libc.a(lib_a-memchr-stub.o)
                0x02039c18                memchr
 .text          0x02039d34       0xb4 /opt/devkitpro/devkitARM/lib/gcc/arm-none-eabi/4.7.1/../../../../arm-none-eabi/lib/libc.a(lib_a-memcmp.o)
                0x02039d34                memcmp
 .text          0x02039de8       0xf4 /opt/devkitpro/devkitARM/lib/gcc/arm-none-eabi/4.7.1/../../../../arm-none-eabi/lib/libc.a(lib_a-memcpy-stub.o)
                0x02039de8                memcpy
 .text          0x02039edc      0x134 /opt/devkitpro/devkitARM/lib/gcc/arm-none-eabi/4.7.1/../../../../arm-none-eabi/lib/libc.a(lib_a-memmove.o)
                0x02039edc                memmove
 .text          0x0203a010       0xf8 /opt/devkitpro/devkitARM/lib/gcc/arm-none-eabi/4.7.1/../../../../arm-none-eabi/lib/libc.a(lib_a-memset.o)
                0x0203a010                memset
 .text          0x0203a108        0x8 /opt/devkitpro/devkitARM/lib/gcc/arm-none-eabi/4.7.1/../../../../arm-none-eabi/lib/libc.a(lib_a-mlock.o)
                0x0203a108                __malloc_lock
                0x0203a10c                __malloc_unlock
 .text          0x0203a110      0x170 /opt/devkitpro/devkitARM/lib/gcc/arm-none-eabi/4.7.1/../../../../arm-none-eabi/lib/libc.a(lib_a-putc.o)
                0x0203a110                _putc_r
                0x0203a1c0                putc
 .text          0x0203a280       0x78 /opt/devkitpro/devkitARM/lib/gcc/arm-none-eabi/4.7.1/../../../../arm-none-eabi/lib/libc.a(lib_a-rand.o)
                0x0203a280                srand
                0x0203a29c                rand
 .text          0x0203a2f8       0x28 /opt/devkitpro/devkitARM/lib/gcc/arm-none-eabi/4.7.1/../../../../arm-none-eabi/lib/libc.a(lib_a-realloc.o)
                0x0203a2f8                realloc
 .text          0x0203a320      0x574 /opt/devkitpro/devkitARM/lib/gcc/arm-none-eabi/4.7.1/../../../../arm-none-eabi/lib/libc.a(lib_a-reallocr.o)
                0x0203a320                _realloc_r
 .text          0x0203a894      0x24c /opt/devkitpro/devkitARM/lib/gcc/arm-none-eabi/4.7.1/../../../../arm-none-eabi/lib/libc.a(lib_a-signal.o)
                0x0203a894                _init_signal_r
                0x0203a8f4                _signal_r
                0x0203a960                _raise_r
                0x0203a9f8                __sigtramp_r
                0x0203aa8c                raise
                0x0203aaa0                signal
                0x0203aabc                _init_signal
                0x0203aacc                __sigtramp
 .text          0x0203aae0      0x130 /opt/devkitpro/devkitARM/lib/gcc/arm-none-eabi/4.7.1/../../../../arm-none-eabi/lib/libc.a(lib_a-snprintf.o)
                0x0203aae0                _snprintf_r
                0x0203ab74                snprintf
 .text          0x0203ac10       0xdc /opt/devkitpro/devkitARM/lib/gcc/arm-none-eabi/4.7.1/../../../../arm-none-eabi/lib/libc.a(lib_a-sprintf.o)
                0x0203ac10                _sprintf_r
                0x0203ac78                sprintf
 .text          0x0203acec      0x100 /opt/devkitpro/devkitARM/lib/gcc/arm-none-eabi/4.7.1/../../../../arm-none-eabi/lib/libc.a(lib_a-sscanf.o)
                0x0203acec                sscanf
                0x0203ad6c                _sscanf_r
 .text          0x0203adec       0xdc /opt/devkitpro/devkitARM/lib/gcc/arm-none-eabi/4.7.1/../../../../arm-none-eabi/lib/libc.a(lib_a-stdio.o)
                0x0203adec                __sread
                0x0203ae20                __seofread
                0x0203ae28                __swrite
                0x0203ae80                __sseek
                0x0203aeb4                __sclose
 .text          0x0203aec8       0x84 /opt/devkitpro/devkitARM/lib/gcc/arm-none-eabi/4.7.1/../../../../arm-none-eabi/lib/libc.a(lib_a-stpcpy.o)
                0x0203aec8                stpcpy
 .text          0x0203af4c       0xa0 /opt/devkitpro/devkitARM/lib/gcc/arm-none-eabi/4.7.1/../../../../arm-none-eabi/lib/libc.a(lib_a-strcat.o)
                0x0203af4c                strcat
 .text          0x0203afec      0x1dc /opt/devkitpro/devkitARM/lib/gcc/arm-none-eabi/4.7.1/../../../../arm-none-eabi/lib/libc.a(lib_a-strchr.o)
                0x0203afec                strchr
 .text          0x0203b1c8      0x230 /opt/devkitpro/devkitARM/lib/gcc/arm-none-eabi/4.7.1/../../../../arm-none-eabi/lib/libc.a(lib_a-strcmp.o)
                0x0203b1c8                strcmp
 .text          0x0203b3f8       0x10 /opt/devkitpro/devkitARM/lib/gcc/arm-none-eabi/4.7.1/../../../../arm-none-eabi/lib/libc.a(lib_a-strcoll.o)
                0x0203b3f8                strcoll
 .text          0x0203b408       0xf0 /opt/devkitpro/devkitARM/lib/gcc/arm-none-eabi/4.7.1/../../../../arm-none-eabi/lib/libc.a(lib_a-strcpy.o)
                0x0203b408                strcpy
 .text          0x0203b4f8       0x68 /opt/devkitpro/devkitARM/lib/gcc/arm-none-eabi/4.7.1/../../../../arm-none-eabi/lib/libc.a(lib_a-strcspn.o)
                0x0203b4f8                strcspn
 .text          0x0203b560       0x60 /opt/devkitpro/devkitARM/lib/gcc/arm-none-eabi/4.7.1/../../../../arm-none-eabi/lib/libc.a(lib_a-strlen.o)
                0x0203b560                strlen
 .text          0x0203b5c0       0xc0 /opt/devkitpro/devkitARM/lib/gcc/arm-none-eabi/4.7.1/../../../../arm-none-eabi/lib/libc.a(lib_a-strncat.o)
                0x0203b5c0                strncat
 .text          0x0203b680      0x140 /opt/devkitpro/devkitARM/lib/gcc/arm-none-eabi/4.7.1/../../../../arm-none-eabi/lib/libc.a(lib_a-strncmp.o)
                0x0203b680                strncmp
 .text          0x0203b7c0       0xc8 /opt/devkitpro/devkitARM/lib/gcc/arm-none-eabi/4.7.1/../../../../arm-none-eabi/lib/libc.a(lib_a-strncpy.o)
                0x0203b7c0                strncpy
 .text          0x0203b888       0x9c /opt/devkitpro/devkitARM/lib/gcc/arm-none-eabi/4.7.1/../../../../arm-none-eabi/lib/libc.a(lib_a-strpbrk.o)
                0x0203b888                strpbrk
 .text          0x0203b924       0x4c /opt/devkitpro/devkitARM/lib/gcc/arm-none-eabi/4.7.1/../../../../arm-none-eabi/lib/libc.a(lib_a-strrchr.o)
                0x0203b924                strrchr
 .text          0x0203b970       0x80 /opt/devkitpro/devkitARM/lib/gcc/arm-none-eabi/4.7.1/../../../../arm-none-eabi/lib/libc.a(lib_a-strspn.o)
                0x0203b970                strspn
 .text          0x0203b9f0      0x7c4 /opt/devkitpro/devkitARM/lib/gcc/arm-none-eabi/4.7.1/../../../../arm-none-eabi/lib/libc.a(lib_a-strstr.o)
                0x0203be68                strstr
 *fill*         0x0203c1b4        0x4 ff
 .text          0x0203c1b8     0x1710 /opt/devkitpro/devkitARM/lib/gcc/arm-none-eabi/4.7.1/../../../../arm-none-eabi/lib/libc.a(lib_a-strtod.o)
                0x0203c1b8                _strtod_r
                0x0203d858                strtod
                0x0203d874                strtof
 .text          0x0203d8c8       0x24 /opt/devkitpro/devkitARM/lib/gcc/arm-none-eabi/4.7.1/../../../../arm-none-eabi/lib/libc.a(lib_a-strtok.o)
                0x0203d8c8                strtok
 .text          0x0203d8ec       0xb8 /opt/devkitpro/devkitARM/lib/gcc/arm-none-eabi/4.7.1/../../../../arm-none-eabi/lib/libc.a(lib_a-strtok_r.o)
                0x0203d8ec                __strtok_r
                0x0203d99c                strtok_r
 .text          0x0203d9a4      0x1f8 /opt/devkitpro/devkitARM/lib/gcc/arm-none-eabi/4.7.1/../../../../arm-none-eabi/lib/libc.a(lib_a-strtol.o)
                0x0203d9a4                _strtol_r
                0x0203db70                strtol
 .text          0x0203db9c       0x30 /opt/devkitpro/devkitARM/lib/gcc/arm-none-eabi/4.7.1/../../../../arm-none-eabi/lib/libc.a(lib_a-strtoll.o)
                0x0203db9c                strtoll
 .text          0x0203dbcc      0x2b4 /opt/devkitpro/devkitARM/lib/gcc/arm-none-eabi/4.7.1/../../../../arm-none-eabi/lib/libc.a(lib_a-strtoll_r.o)
                0x0203dbcc                _strtoll_r
 .text          0x0203de80       0x84 /opt/devkitpro/devkitARM/lib/gcc/arm-none-eabi/4.7.1/../../../../arm-none-eabi/lib/libc.a(lib_a-strxfrm.o)
                0x0203de80                strxfrm
 .text          0x0203df04     0x21f0 /opt/devkitpro/devkitARM/lib/gcc/arm-none-eabi/4.7.1/../../../../arm-none-eabi/lib/libc.a(lib_a-svfprintf.o)
                0x0203df04                _svfprintf_r
 .text          0x020400f4     0x15e0 /opt/devkitpro/devkitARM/lib/gcc/arm-none-eabi/4.7.1/../../../../arm-none-eabi/lib/libc.a(lib_a-svfscanf.o)
                0x020400f4                __ssvfscanf_r
 .text          0x020416d4       0x20 /opt/devkitpro/devkitARM/lib/gcc/arm-none-eabi/4.7.1/../../../../arm-none-eabi/lib/libc.a(lib_a-sysclose.o)
                0x020416d4                close
 .text          0x020416f4       0x30 /opt/devkitpro/devkitARM/lib/gcc/arm-none-eabi/4.7.1/../../../../arm-none-eabi/lib/libc.a(lib_a-syslseek.o)
                0x020416f4                lseek
 .text          0x02041724       0x40 /opt/devkitpro/devkitARM/lib/gcc/arm-none-eabi/4.7.1/../../../../arm-none-eabi/lib/libc.a(lib_a-sysopen.o)
                0x02041724                open
 .text          0x02041764       0x30 /opt/devkitpro/devkitARM/lib/gcc/arm-none-eabi/4.7.1/../../../../arm-none-eabi/lib/libc.a(lib_a-sysread.o)
                0x02041764                read
 .text          0x02041794       0x30 /opt/devkitpro/devkitARM/lib/gcc/arm-none-eabi/4.7.1/../../../../arm-none-eabi/lib/libc.a(lib_a-syswrite.o)
                0x02041794                write
 .text          0x020417c4       0x24 /opt/devkitpro/devkitARM/lib/gcc/arm-none-eabi/4.7.1/../../../../arm-none-eabi/lib/libc.a(lib_a-toupper.o)
                0x020417c4                toupper
 .text          0x020417e8     0x15d8 /opt/devkitpro/devkitARM/lib/gcc/arm-none-eabi/4.7.1/../../../../arm-none-eabi/lib/libc.a(lib_a-vfiprintf.o)
                0x020417e8                __sprint_r
                0x020418a8                _vfiprintf_r
                0x02042d94                vfiprintf
 .text          0x02042dc0       0xc8 /opt/devkitpro/devkitARM/lib/gcc/arm-none-eabi/4.7.1/../../../../arm-none-eabi/lib/libc.a(lib_a-vsnprintf.o)
                0x02042dc0                _vsnprintf_r
                0x02042e44                vsnprintf
 .text          0x02042e88      0x134 /opt/devkitpro/devkitARM/lib/gcc/arm-none-eabi/4.7.1/../../../../arm-none-eabi/lib/libc.a(lib_a-wbuf.o)
                0x02042e88                __swbuf_r
                0x02042fa0                __swbuf
 .text          0x02042fbc      0x13c /opt/devkitpro/devkitARM/lib/gcc/arm-none-eabi/4.7.1/../../../../arm-none-eabi/lib/libc.a(lib_a-wcrtomb.o)
                0x02042fbc                _wcrtomb_r
                0x02043054                wcrtomb
 .text          0x020430f8       0x68 /opt/devkitpro/devkitARM/lib/gcc/arm-none-eabi/4.7.1/../../../../arm-none-eabi/lib/libc.a(lib_a-wcsrtombs.o)
                0x020430f8                _wcsrtombs_r
                0x02043120                wcsrtombs
 .text          0x02043160      0x38c /opt/devkitpro/devkitARM/lib/gcc/arm-none-eabi/4.7.1/../../../../arm-none-eabi/lib/libc.a(lib_a-wctomb_r.o)
                0x02043160                __utf8_wctomb
                0x02043254                _wctomb_r
                0x020432a4                __ascii_wctomb
                0x020432d0                __sjis_wctomb
                0x02043358                __eucjp_wctomb
                0x02043418                __jis_wctomb
 .text          0x020434ec      0x15c /opt/devkitpro/devkitARM/lib/gcc/arm-none-eabi/4.7.1/../../../../arm-none-eabi/lib/libc.a(lib_a-wsetup.o)
                0x020434ec                __swsetup_r
 .text          0x02043648     0x1888 /opt/devkitpro/devkitARM/lib/gcc/arm-none-eabi/4.7.1/../../../../arm-none-eabi/lib/libc.a(lib_a-dtoa.o)
                0x02043828                _dtoa_r
 .text          0x02044ed0      0x2c4 /opt/devkitpro/devkitARM/lib/gcc/arm-none-eabi/4.7.1/../../../../arm-none-eabi/lib/libc.a(lib_a-fflush.o)
                0x02044ed0                __sflush_r
                0x02045100                _fflush_r
                0x02045154                fflush
 .text          0x02045194      0x2c4 /opt/devkitpro/devkitARM/lib/gcc/arm-none-eabi/4.7.1/../../../../arm-none-eabi/lib/libc.a(lib_a-findfp.o)
                0x020451a4                _cleanup_r
                0x02045238                __sfmoreglue
                0x02045280                _cleanup
                0x02045290                __sinit
                0x02045308                __sfp
                0x02045400                __sfp_lock_acquire
                0x02045404                __sfp_lock_release
                0x02045408                __sinit_lock_acquire
                0x0204540c                __sinit_lock_release
                0x02045410                __fp_lock_all
                0x02045434                __fp_unlock_all
 .text          0x02045458      0x19c /opt/devkitpro/devkitARM/lib/gcc/arm-none-eabi/4.7.1/../../../../arm-none-eabi/lib/libc.a(lib_a-fputwc.o)
                0x02045458                _fputwc_r
                0x020455a8                fputwc
 .text          0x020455f4      0x368 /opt/devkitpro/devkitARM/lib/gcc/arm-none-eabi/4.7.1/../../../../arm-none-eabi/lib/libc.a(lib_a-freer.o)
                0x020455f4                _malloc_trim_r
                0x020456f0                _free_r
 .text          0x0204595c      0x110 /opt/devkitpro/devkitARM/lib/gcc/arm-none-eabi/4.7.1/../../../../arm-none-eabi/lib/libc.a(lib_a-fwalk.o)
                0x0204595c                _fwalk
                0x020459e0                _fwalk_reent
 .text          0x02045a6c      0x9d0 /opt/devkitpro/devkitARM/lib/gcc/arm-none-eabi/4.7.1/../../../../arm-none-eabi/lib/libc.a(lib_a-gdtoa-gethex.o)
                0x02045b74                __hexdig_init
                0x02045bf8                __gethex
 .text          0x0204643c      0x2a8 /opt/devkitpro/devkitARM/lib/gcc/arm-none-eabi/4.7.1/../../../../arm-none-eabi/lib/libc.a(lib_a-gdtoa-hexnan.o)
                0x0204643c                __hexnan
 .text          0x020466e4       0x78 /opt/devkitpro/devkitARM/lib/gcc/arm-none-eabi/4.7.1/../../../../arm-none-eabi/lib/libc.a(lib_a-iswspace.o)
                0x020466e4                iswspace
 .text          0x0204675c      0x2c8 /opt/devkitpro/devkitARM/lib/gcc/arm-none-eabi/4.7.1/../../../../arm-none-eabi/lib/libc.a(lib_a-jp2uc.o)
                0x0204699c                _jp2uc
 .text          0x02046a24      0xd68 /opt/devkitpro/devkitARM/lib/gcc/arm-none-eabi/4.7.1/../../../../arm-none-eabi/lib/libc.a(lib_a-locale.o)
                0x02047428                _setlocale_r
                0x02047720                __locale_charset
                0x0204772c                __locale_mb_cur_max
                0x0204773c                __locale_msgcharset
                0x02047748                __locale_cjk_lang
                0x02047758                _localeconv_r
                0x02047764                setlocale
                0x02047780                localeconv
 .text          0x0204778c      0x15c /opt/devkitpro/devkitARM/lib/gcc/arm-none-eabi/4.7.1/../../../../arm-none-eabi/lib/libc.a(lib_a-makebuf.o)
                0x0204778c                __smakebuf_r
 .text          0x020478e8      0x150 /opt/devkitpro/devkitARM/lib/gcc/arm-none-eabi/4.7.1/../../../../arm-none-eabi/lib/libc.a(lib_a-mbrtowc.o)
                0x020478e8                _mbrtowc_r
                0x0204798c                mbrtowc
 .text          0x02047a38      0x728 /opt/devkitpro/devkitARM/lib/gcc/arm-none-eabi/4.7.1/../../../../arm-none-eabi/lib/libc.a(lib_a-mbtowc_r.o)
                0x02047a38                __utf8_mbtowc
                0x02047d3c                _mbtowc_r
                0x02047d90                __ascii_mbtowc
                0x02047dd8                __sjis_mbtowc
                0x02047ea8                __eucjp_mbtowc
                0x02047fd4                __jis_mbtowc
 .text          0x02048160      0xd20 /opt/devkitpro/devkitARM/lib/gcc/arm-none-eabi/4.7.1/../../../../arm-none-eabi/lib/libc.a(lib_a-mprec.o)
                0x02048160                _Balloc
                0x020481ec                _Bfree
                0x02048208                __multadd
                0x020482e4                __s2b
                0x020483d4                __hi0bits
                0x02048424                __lo0bits
                0x020484b8                __i2b
                0x020484dc                __multiply
                0x020486c0                __pow5mult
                0x020487b4                __lshift
                0x020488b8                __mcmp
                0x0204891c                __mdiff
                0x02048a68                __ulp
                0x02048acc                __b2d
                0x02048b98                __d2b
                0x02048ca0                __ratio
                0x02048d30                _mprec_log10
                0x02048d84                __copybits
                0x02048df8                __any_on
 .text          0x02048e80       0xcc /opt/devkitpro/devkitARM/lib/gcc/arm-none-eabi/4.7.1/../../../../arm-none-eabi/lib/libc.a(lib_a-sccl.o)
                0x02048e80                __sccl
 .text          0x02048f4c        0xc /opt/devkitpro/devkitARM/lib/gcc/arm-none-eabi/4.7.1/../../../../arm-none-eabi/lib/libc.a(lib_a-sf_nan.o)
                0x02048f4c                nanf
 .text          0x02048f58       0x5c /opt/devkitpro/devkitARM/lib/gcc/arm-none-eabi/4.7.1/../../../../arm-none-eabi/lib/libc.a(lib_a-strcasecmp.o)
                0x02048f58                strcasecmp
 .text          0x02048fb4       0x84 /opt/devkitpro/devkitARM/lib/gcc/arm-none-eabi/4.7.1/../../../../arm-none-eabi/lib/libc.a(lib_a-strlcpy.o)
                0x02048fb4                strlcpy
 .text          0x02049038       0x78 /opt/devkitpro/devkitARM/lib/gcc/arm-none-eabi/4.7.1/../../../../arm-none-eabi/lib/libc.a(lib_a-strncasecmp.o)
                0x02049038                strncasecmp
 .text          0x020490b0      0x20c /opt/devkitpro/devkitARM/lib/gcc/arm-none-eabi/4.7.1/../../../../arm-none-eabi/lib/libc.a(lib_a-strtoul.o)
                0x020490b0                _strtoul_r
                0x02049290                strtoul
 *fill*         0x020492bc        0x4 ff
 .text          0x020492c0      0x2b8 /opt/devkitpro/devkitARM/lib/gcc/arm-none-eabi/4.7.1/../../../../arm-none-eabi/lib/libc.a(lib_a-strtoull_r.o)
                0x020492c0                _strtoull_r
 .text          0x02049578     0x14d8 /opt/devkitpro/devkitARM/lib/gcc/arm-none-eabi/4.7.1/../../../../arm-none-eabi/lib/libc.a(lib_a-svfiprintf.o)
                0x02049578                __ssprint_r
                0x0204971c                _svfiprintf_r
 .text          0x0204aa50     0x1254 /opt/devkitpro/devkitARM/lib/gcc/arm-none-eabi/4.7.1/../../../../arm-none-eabi/lib/libc.a(lib_a-svfiscanf.o)
                0x0204aa50                _sungetc_r
                0x0204ab38                __ssrefill_r
                0x0204aba4                _sfread_r
                0x0204ac64                __ssvfiscanf_r
 .text          0x0204bca4      0x240 /opt/devkitpro/devkitARM/lib/gcc/arm-none-eabi/4.7.1/../../../../arm-none-eabi/lib/libc.a(lib_a-ungetc.o)
                0x0204bca4                __submore
                0x0204bd50                _ungetc_r
                0x0204bec8                ungetc
 .text          0x0204bee4      0x1e4 /opt/devkitpro/devkitARM/lib/gcc/arm-none-eabi/4.7.1/../../../../arm-none-eabi/lib/libc.a(lib_a-wcsnrtombs.o)
                0x0204bee4                _wcsnrtombs_r
                0x0204c07c                wcsnrtombs
 .text          0x0204c0c8      0x100 /opt/devkitpro/devkitARM/lib/gcc/arm-none-eabi/4.7.1/../../../../arm-none-eabi/lib/libc.a(lib_a-fclose.o)
                0x0204c0c8                _fclose_r
                0x0204c1b4                fclose
 .text          0x0204c1c8       0xf0 /opt/devkitpro/devkitARM/lib/gcc/arm-none-eabi/4.7.1/../../../../arm-none-eabi/lib/libc.a(lib_a-getenv_r.o)
                0x0204c1c8                _findenv_r
                0x0204c29c                _getenv_r
 .text          0x0204c2b8        0x0 /opt/devkitpro/devkitARM/lib/gcc/arm-none-eabi/4.7.1/../../../../arm-none-eabi/lib/libc.a(lib_a-environ.o)
 .text          0x0204c2b8        0x8 /opt/devkitpro/devkitARM/lib/gcc/arm-none-eabi/4.7.1/../../../../arm-none-eabi/lib/libc.a(lib_a-envlock.o)
                0x0204c2b8                __env_lock
                0x0204c2bc                __env_unlock
 .text          0x0204c2c0       0x74 /opt/devkitpro/devkitARM/lib/gcc/arm-none-eabi/4.7.1/../../../../arm-none-eabi/lib/libsysbase.a(close.o)
                0x0204c2c0                _close_r
 .text          0x0204c334       0x88 /opt/devkitpro/devkitARM/lib/gcc/arm-none-eabi/4.7.1/../../../../arm-none-eabi/lib/libsysbase.a(fstat.o)
                0x0204c334                _fstat_r
 .text          0x0204c3bc       0x10 /opt/devkitpro/devkitARM/lib/gcc/arm-none-eabi/4.7.1/../../../../arm-none-eabi/lib/libsysbase.a(getpid.o)
                0x0204c3bc                _getpid_r
 .text          0x0204c3cc        0x8 /opt/devkitpro/devkitARM/lib/gcc/arm-none-eabi/4.7.1/../../../../arm-none-eabi/lib/libsysbase.a(isatty.o)
                0x0204c3cc                _isatty_r
 .text          0x0204c3d4       0x10 /opt/devkitpro/devkitARM/lib/gcc/arm-none-eabi/4.7.1/../../../../arm-none-eabi/lib/libsysbase.a(kill.o)
                0x0204c3d4                _kill_r
 .text          0x0204c3e4       0x88 /opt/devkitpro/devkitARM/lib/gcc/arm-none-eabi/4.7.1/../../../../arm-none-eabi/lib/libsysbase.a(lseek.o)
                0x0204c3e4                _lseek_r
 .text          0x0204c46c       0xd0 /opt/devkitpro/devkitARM/lib/gcc/arm-none-eabi/4.7.1/../../../../arm-none-eabi/lib/libsysbase.a(open.o)
                0x0204c46c                _open_r
 .text          0x0204c53c       0x88 /opt/devkitpro/devkitARM/lib/gcc/arm-none-eabi/4.7.1/../../../../arm-none-eabi/lib/libsysbase.a(read.o)
                0x0204c53c                _read_r
 .text          0x0204c5c4       0x74 /opt/devkitpro/devkitARM/lib/gcc/arm-none-eabi/4.7.1/../../../../arm-none-eabi/lib/libsysbase.a(sbrk.o)
                0x0204c5c4                _sbrk_r
 .text          0x0204c638       0x64 /opt/devkitpro/devkitARM/lib/gcc/arm-none-eabi/4.7.1/../../../../arm-none-eabi/lib/libsysbase.a(times.o)
                0x0204c638                _times
                0x0204c654                _times_r
                0x0204c65c                _gettimeofday_r
 .text          0x0204c69c       0x8c /opt/devkitpro/devkitARM/lib/gcc/arm-none-eabi/4.7.1/../../../../arm-none-eabi/lib/libsysbase.a(write.o)
                0x0204c69c                _write_r
 .text          0x0204c728       0x20 /opt/devkitpro/devkitARM/lib/gcc/arm-none-eabi/4.7.1/../../../../arm-none-eabi/lib/libsysbase.a(_exit.o)
                0x0204c728                _exit
 .text          0x0204c748        0x0 /opt/devkitpro/devkitARM/lib/gcc/arm-none-eabi/4.7.1/../../../../arm-none-eabi/lib/libsysbase.a(malloc_vars.o)
 .text          0x0204c748       0x94 /opt/devkitpro/devkitARM/lib/gcc/arm-none-eabi/4.7.1/../../../../arm-none-eabi/lib/libsysbase.a(build_argv.o)
                0x0204c748                build_argv
 .text          0x0204c7dc        0x0 /opt/devkitpro/devkitARM/lib/gcc/arm-none-eabi/4.7.1/../../../../arm-none-eabi/lib/libsysbase.a(syscall_support.o)
 .text          0x0204c7dc       0xac /opt/devkitpro/devkitARM/lib/gcc/arm-none-eabi/4.7.1/../../../../arm-none-eabi/lib/libsysbase.a(handle_manager.o)
                0x0204c7dc                __release_handle
                0x0204c814                __alloc_handle
                0x0204c86c                __get_handle
 .text          0x0204c888      0x1b4 /opt/devkitpro/devkitARM/lib/gcc/arm-none-eabi/4.7.1/../../../../arm-none-eabi/lib/libsysbase.a(iosupport.o)
                0x0204c888                setDefaultDevice
                0x0204c8a0                FindDevice
                0x0204c94c                RemoveDevice
                0x0204c97c                AddDevice
                0x0204ca14                GetDeviceOpTab
 .text          0x0204ca3c        0x0 /opt/devkitpro/devkitARM/lib/gcc/arm-none-eabi/4.7.1/crtend.o
 .text          0x0204ca3c        0x0 /opt/devkitpro/devkitARM/lib/gcc/arm-none-eabi/4.7.1/crtn.o
 *(.text.*)
 .text.unlikely
                0x0204ca3c      0x1d8 proc_DPGPlay.o
 .text._ZNK10Blip_SynthILi12ELi1EE6offsetEiiP11Blip_Buffer
                0x0204cc14      0x174 Ay_Apu.o
                0x0204cc14                Blip_Synth<12, 1>::offset(int, int, Blip_Buffer*) const
 .text._ZN8Gme_File15clear_playlist_Ev
                0x0204cd88        0x4 Ay_Emu.o
                0x0204cd88                Gme_File::clear_playlist_()
 .text._ZN9Music_Emu10set_bufferEP12Multi_Buffer
                0x0204cd8c        0x4 Ay_Emu.o
                0x0204cd8c                Music_Emu::set_buffer(Multi_Buffer*)
 .text._ZN11Classic_Emu10set_bufferEP12Multi_Buffer
                0x0204cd90       0x3c Ay_Emu.o
                0x0204cd90                Classic_Emu::set_buffer(Multi_Buffer*)
 .text._ZNK7Ay_File11track_info_EP12track_info_ti
                0x0204cdcc       0x14 Ay_Emu.o
                0x0204cdcc                Ay_File::track_info_(track_info_t*, int) const
 .text._ZN7Ay_File9load_mem_EPKhl
                0x0204cde0       0x38 Ay_Emu.o
                0x0204cde0                Ay_File::load_mem_(unsigned char const*, long)
 .text._ZN7Ay_FileD2Ev
                0x0204ce18       0x20 Ay_Emu.o
                0x0204ce18                Ay_File::~Ay_File()
                0x0204ce18                Ay_File::~Ay_File()
 .text._ZN7Ay_FileD0Ev
                0x0204ce38       0x28 Ay_Emu.o
                0x0204ce38                Ay_File::~Ay_File()
 .text._ZN8Gbs_File5load_ER11Data_Reader
                0x0204ce60       0x80 Gbs_Emu.o
                0x0204ce60                Gbs_File::load_(Data_Reader&)
 .text._ZNK8Gbs_File11track_info_EP12track_info_ti
                0x0204cee0       0x14 Gbs_Emu.o
                0x0204cee0                Gbs_File::track_info_(track_info_t*, int) const
 .text._ZN8Gbs_FileD2Ev
                0x0204cef4       0x20 Gbs_Emu.o
                0x0204cef4                Gbs_File::~Gbs_File()
                0x0204cef4                Gbs_File::~Gbs_File()
 .text._ZN8Gbs_FileD0Ev
                0x0204cf14       0x28 Gbs_Emu.o
                0x0204cf14                Gbs_File::~Gbs_File()
 .text._ZNK10Blip_SynthILi8ELi1EE6offsetEiiP11Blip_Buffer
                0x0204cf3c       0xf8 Gb_Apu.o
                0x0204cf3c                Blip_Synth<8, 1>::offset(int, int, Blip_Buffer*) const
 .text._ZN8Hes_File5load_ER11Data_Reader
                0x0204d034       0x70 Hes_Emu.o
                0x0204d034                Hes_File::load_(Data_Reader&)
 .text._ZNK8Hes_File11track_info_EP12track_info_ti
                0x0204d0a4       0x20 Hes_Emu.o
                0x0204d0a4                Hes_File::track_info_(track_info_t*, int) const
 .text._ZN8Hes_FileD2Ev
                0x0204d0c4       0x20 Hes_Emu.o
                0x0204d0c4                Hes_File::~Hes_File()
                0x0204d0c4                Hes_File::~Hes_File()
 .text._ZN8Hes_FileD0Ev
                0x0204d0e4       0x28 Hes_Emu.o
                0x0204d0e4                Hes_File::~Hes_File()
 .text._ZN8Kss_File5load_ER11Data_Reader
                0x0204d10c       0x50 Kss_Emu.o
                0x0204d10c                Kss_File::load_(Data_Reader&)
 .text._ZNK8Kss_File11track_info_EP12track_info_ti
                0x0204d15c       0x14 Kss_Emu.o
                0x0204d15c                Kss_File::track_info_(track_info_t*, int) const
 .text._ZN8Kss_FileD2Ev
                0x0204d170       0x20 Kss_Emu.o
                0x0204d170                Kss_File::~Kss_File()
                0x0204d170                Kss_File::~Kss_File()
 .text._ZN8Kss_FileD0Ev
                0x0204d190       0x28 Kss_Emu.o
                0x0204d190                Kss_File::~Kss_File()
 .text._ZN8Nsf_File5load_ER11Data_Reader
                0x0204d1b8       0x90 Nsf_Emu.o
                0x0204d1b8                Nsf_File::load_(Data_Reader&)
 .text._ZNK8Nsf_File11track_info_EP12track_info_ti
                0x0204d248       0x14 Nsf_Emu.o
                0x0204d248                Nsf_File::track_info_(track_info_t*, int) const
 .text._ZN8Nsf_FileD2Ev
                0x0204d25c       0x20 Nsf_Emu.o
                0x0204d25c                Nsf_File::~Nsf_File()
                0x0204d25c                Nsf_File::~Nsf_File()
 .text._ZN8Nsf_FileD0Ev
                0x0204d27c       0x28 Nsf_Emu.o
                0x0204d27c                Nsf_File::~Nsf_File()
 .text._ZNK8Sap_File11track_info_EP12track_info_ti
                0x0204d2a4       0x14 Sap_Emu.o
                0x0204d2a4                Sap_File::track_info_(track_info_t*, int) const
 .text._ZN8Sap_File9load_mem_EPKhl
                0x0204d2b8       0x2c Sap_Emu.o
                0x0204d2b8                Sap_File::load_mem_(unsigned char const*, long)
 .text._ZN8Sap_FileD2Ev
                0x0204d2e4       0x20 Sap_Emu.o
                0x0204d2e4                Sap_File::~Sap_File()
                0x0204d2e4                Sap_File::~Sap_File()
 .text._ZN8Sap_FileD0Ev
                0x0204d304       0x28 Sap_Emu.o
                0x0204d304                Sap_File::~Sap_File()
 .text._ZN11Data_ReaderD2Ev
                0x0204d32c       0x10 Data_Reader.o
                0x0204d32c                Data_Reader::~Data_Reader()
                0x0204d32c                Data_Reader::~Data_Reader()
 .text._ZN11File_ReaderD2Ev
                0x0204d33c       0x10 Data_Reader.o
                0x0204d33c                File_Reader::~File_Reader()
                0x0204d33c                File_Reader::~File_Reader()
 .text._ZN15Callback_ReaderD2Ev
                0x0204d34c       0x10 Data_Reader.o
                0x0204d34c                Callback_Reader::~Callback_Reader()
                0x0204d34c                Callback_Reader::~Callback_Reader()
 .text._ZN16Remaining_ReaderD2Ev
                0x0204d35c       0x10 Data_Reader.o
                0x0204d35c                Remaining_Reader::~Remaining_Reader()
                0x0204d35c                Remaining_Reader::~Remaining_Reader()
 .text._ZN13Subset_ReaderD2Ev
                0x0204d36c       0x10 Data_Reader.o
                0x0204d36c                Subset_Reader::~Subset_Reader()
                0x0204d36c                Subset_Reader::~Subset_Reader()
 .text._ZN15Mem_File_ReaderD2Ev
                0x0204d37c       0x10 Data_Reader.o
                0x0204d37c                Mem_File_Reader::~Mem_File_Reader()
                0x0204d37c                Mem_File_Reader::~Mem_File_Reader()
 .text._ZN15Mem_File_ReaderD0Ev
                0x0204d38c       0x20 Data_Reader.o
                0x0204d38c                Mem_File_Reader::~Mem_File_Reader()
 .text._ZN13Subset_ReaderD0Ev
                0x0204d3ac       0x20 Data_Reader.o
                0x0204d3ac                Subset_Reader::~Subset_Reader()
 .text._ZN16Remaining_ReaderD0Ev
                0x0204d3cc       0x20 Data_Reader.o
                0x0204d3cc                Remaining_Reader::~Remaining_Reader()
 .text._ZN15Callback_ReaderD0Ev
                0x0204d3ec       0x20 Data_Reader.o
                0x0204d3ec                Callback_Reader::~Callback_Reader()
 .text._ZN11File_ReaderD0Ev
                0x0204d40c       0x20 Data_Reader.o
                0x0204d40c                File_Reader::~File_Reader()
 .text._ZN11Data_ReaderD0Ev
                0x0204d42c       0x20 Data_Reader.o
                0x0204d42c                Data_Reader::~Data_Reader()
 .text.unlikely
                0x0204d44c       0x24 Effects_Buffer.o
 .text._ZN12Multi_BufferD2Ev
                0x0204d470       0x10 Multi_Buffer.o
                0x0204d470                Multi_Buffer::~Multi_Buffer()
                0x0204d470                Multi_Buffer::~Multi_Buffer()
 .text._ZNK11Mono_Buffer13samples_availEv
                0x0204d480        0x8 Multi_Buffer.o
                0x0204d480                Mono_Buffer::samples_avail() const
 .text._ZN11Mono_Buffer7channelEii
                0x0204d488       0x18 Multi_Buffer.o
                0x0204d488                Mono_Buffer::channel(int, int)
 .text._ZN13Stereo_Buffer7channelEii
                0x0204d4a0       0x18 Multi_Buffer.o
                0x0204d4a0                Stereo_Buffer::channel(int, int)
 .text._ZNK13Stereo_Buffer13samples_availEv
                0x0204d4b8        0xc Multi_Buffer.o
                0x0204d4b8                Stereo_Buffer::samples_avail() const
 .text._ZN13Silent_Buffer15set_sample_rateEli
                0x0204d4c4       0x10 Multi_Buffer.o
                0x0204d4c4                Silent_Buffer::set_sample_rate(long, int)
 .text._ZN13Silent_Buffer10clock_rateEl
                0x0204d4d4        0x4 Multi_Buffer.o
                0x0204d4d4                Silent_Buffer::clock_rate(long)
 .text._ZN13Silent_Buffer9bass_freqEi
                0x0204d4d8        0x4 Multi_Buffer.o
                0x0204d4d8                Silent_Buffer::bass_freq(int)
 .text._ZN13Silent_Buffer5clearEv
                0x0204d4dc        0x4 Multi_Buffer.o
                0x0204d4dc                Silent_Buffer::clear()
 .text._ZN13Silent_Buffer7channelEii
                0x0204d4e0       0x18 Multi_Buffer.o
                0x0204d4e0                Silent_Buffer::channel(int, int)
 .text._ZN13Silent_Buffer9end_frameEi
                0x0204d4f8        0x4 Multi_Buffer.o
                0x0204d4f8                Silent_Buffer::end_frame(int)
 .text._ZNK13Silent_Buffer13samples_availEv
                0x0204d4fc        0x8 Multi_Buffer.o
                0x0204d4fc                Silent_Buffer::samples_avail() const
 .text._ZN13Silent_Buffer12read_samplesEPsl
                0x0204d504        0x8 Multi_Buffer.o
                0x0204d504                Silent_Buffer::read_samples(short*, long)
 .text._ZN13Silent_BufferD2Ev
                0x0204d50c       0x10 Multi_Buffer.o
                0x0204d50c                Silent_Buffer::~Silent_Buffer()
                0x0204d50c                Silent_Buffer::~Silent_Buffer()
 .text._ZN13Silent_BufferD0Ev
                0x0204d51c       0x20 Multi_Buffer.o
                0x0204d51c                Silent_Buffer::~Silent_Buffer()
 .text._ZN12Multi_BufferD0Ev
                0x0204d53c       0x20 Multi_Buffer.o
                0x0204d53c                Multi_Buffer::~Multi_Buffer()
 .text._ZN11Mono_Buffer9end_frameEi
                0x0204d55c        0x8 Multi_Buffer.o
                0x0204d55c                Mono_Buffer::end_frame(int)
 .text._ZN11Mono_Buffer5clearEv
                0x0204d564        0xc Multi_Buffer.o
                0x0204d564                Mono_Buffer::clear()
 .text._ZN11Mono_Buffer9bass_freqEi
                0x0204d570        0x8 Multi_Buffer.o
                0x0204d570                Mono_Buffer::bass_freq(int)
 .text._ZN11Mono_Buffer10clock_rateEl
                0x0204d578       0x1c Multi_Buffer.o
                0x0204d578                Mono_Buffer::clock_rate(long)
 .text._ZN11Mono_Buffer12read_samplesEPsl
                0x0204d594        0xc Multi_Buffer.o
                0x0204d594                Mono_Buffer::read_samples(short*, long)
 .text._ZN9Music_Emu14set_equalizer_ERK15gme_equalizer_t
                0x0204d5a0        0x4 Music_Emu.o
                0x0204d5a0                Music_Emu::set_equalizer_(gme_equalizer_t const&)
 .text._ZN9Gme_Info_D2Ev
                0x0204d5a4       0x20 Music_Emu.o
                0x0204d5a4                Gme_Info_::~Gme_Info_()
                0x0204d5a4                Gme_Info_::~Gme_Info_()
 .text._ZN9Gme_Info_D0Ev
                0x0204d5c4       0x28 Music_Emu.o
                0x0204d5c4                Gme_Info_::~Gme_Info_()
 .text.unlikely
                0x0204d5ec       0x68 main.o
 .text.startup  0x0204d654       0xc0 main.o
                0x0204d654                main
 .text.unlikely
                0x0204d714       0x24 Dual_Resampler.o
 .text._ZN13Fir_ResamplerILi12EE4readEPsi
                0x0204d738      0x184 Dual_Resampler.o
                0x0204d738                Fir_Resampler<12>::read(short*, int)
 .text.unlikely
                0x0204d8bc       0x24 Fir_Resampler.o
 .text._ZN8Gym_File9load_mem_EPKhl
                0x0204d8e0       0x30 Gym_Emu.o
                0x0204d8e0                Gym_File::load_mem_(unsigned char const*, long)
 .text._ZNK8Gym_File11track_info_EP12track_info_ti
                0x0204d910       0x80 Gym_Emu.o
                0x0204d910                Gym_File::track_info_(track_info_t*, int) const
 .text._ZN8Gym_FileD2Ev
                0x0204d990       0x20 Gym_Emu.o
                0x0204d990                Gym_File::~Gym_File()
                0x0204d990                Gym_File::~Gym_File()
 .text._ZN8Gym_FileD0Ev
                0x0204d9b0       0x28 Gym_Emu.o
                0x0204d9b0                Gym_File::~Gym_File()
 .text.unlikely
                0x0204d9d8       0x6c Nsfe_Emu.o
 .text._ZN9Nsfe_FileD2Ev
                0x0204da44       0x34 Nsfe_Emu.o
                0x0204da44                Nsfe_File::~Nsfe_File()
                0x0204da44                Nsfe_File::~Nsfe_File()
 .text._ZN9Nsfe_FileD0Ev
                0x0204da78       0x3c Nsfe_Emu.o
                0x0204da78                Nsfe_File::~Nsfe_File()
 .text._ZN9Nsfe_File5load_ER11Data_Reader
                0x0204dab4       0x40 Nsfe_Emu.o
                0x0204dab4                Nsfe_File::load_(Data_Reader&)
 .text._ZNK9Nsfe_File11track_info_EP12track_info_ti
                0x0204daf4        0x8 Nsfe_Emu.o
                0x0204daf4                Nsfe_File::track_info_(track_info_t*, int) const
 .text._ZNK8Spc_File11track_info_EP12track_info_ti
                0x0204dafc       0x24 Spc_Emu.o
                0x0204dafc                Spc_File::track_info_(track_info_t*, int) const
 .text._ZN8Spc_File5load_ER11Data_Reader
                0x0204db20       0xf8 Spc_Emu.o
                0x0204db20                Spc_File::load_(Data_Reader&)
 .text._ZN8Spc_FileD2Ev
                0x0204dc18       0x38 Spc_Emu.o
                0x0204dc18                Spc_File::~Spc_File()
                0x0204dc18                Spc_File::~Spc_File()
 .text._ZN8Spc_FileD0Ev
                0x0204dc50       0x40 Spc_Emu.o
                0x0204dc50                Spc_File::~Spc_File()
 .text._ZN13Fir_ResamplerILi24EE4readEPsi
                0x0204dc90      0x198 Spc_Emu.o
                0x0204dc90                Fir_Resampler<24>::read(short*, int)
 .text._ZNK8Vgm_File11track_info_EP12track_info_ti
                0x0204de28       0x38 Vgm_Emu.o
                0x0204de28                Vgm_File::track_info_(track_info_t*, int) const
 .text._ZN8Vgm_File5load_ER11Data_Reader
                0x0204de60      0x148 Vgm_Emu.o
                0x0204de60                Vgm_File::load_(Data_Reader&)
 .text._ZN8Vgm_FileD2Ev
                0x0204dfa8       0x38 Vgm_Emu.o
                0x0204dfa8                Vgm_File::~Vgm_File()
                0x0204dfa8                Vgm_File::~Vgm_File()
 .text._ZN8Vgm_FileD0Ev
                0x0204dfe0       0x40 Vgm_Emu.o
                0x0204dfe0                Vgm_File::~Vgm_File()
 .text._ZN12Vgm_Emu_ImplD2Ev
                0x0204e020       0x60 Vgm_Emu_Impl.o
                0x0204e020                Vgm_Emu_Impl::~Vgm_Emu_Impl()
                0x0204e020                Vgm_Emu_Impl::~Vgm_Emu_Impl()
 .text._ZN12Vgm_Emu_ImplD1Ev
                0x0204e080        0x8 Vgm_Emu_Impl.o
                0x0204e080                non-virtual thunk to Vgm_Emu_Impl::~Vgm_Emu_Impl()
 .text._ZN12Vgm_Emu_ImplD0Ev
                0x0204e088       0x70 Vgm_Emu_Impl.o
                0x0204e088                Vgm_Emu_Impl::~Vgm_Emu_Impl()
                0x0204e0f0                non-virtual thunk to Vgm_Emu_Impl::~Vgm_Emu_Impl()
 .text.unlikely
                0x0204e0f8       0x50 Ym2612_Emu.o
 .text._ZN18ym2612_update_chanILi1EE4funcER8tables_tR9channel_tPsi
                0x0204e148      0x400 Ym2612_Emu.o
                0x0204e148                ym2612_update_chan<1>::func(tables_t&, channel_t&, short*, int)
 .text._ZN18ym2612_update_chanILi0EE4funcER8tables_tR9channel_tPsi
                0x0204e548      0x400 Ym2612_Emu.o
                0x0204e548                ym2612_update_chan<0>::func(tables_t&, channel_t&, short*, int)
 .text._ZN18ym2612_update_chanILi3EE4funcER8tables_tR9channel_tPsi
                0x0204e948      0x3f4 Ym2612_Emu.o
                0x0204e948                ym2612_update_chan<3>::func(tables_t&, channel_t&, short*, int)
 .text._ZN18ym2612_update_chanILi2EE4funcER8tables_tR9channel_tPsi
                0x0204ed3c      0x400 Ym2612_Emu.o
                0x0204ed3c                ym2612_update_chan<2>::func(tables_t&, channel_t&, short*, int)
 .text._ZN18ym2612_update_chanILi5EE4funcER8tables_tR9channel_tPsi
                0x0204f13c      0x438 Ym2612_Emu.o
                0x0204f13c                ym2612_update_chan<5>::func(tables_t&, channel_t&, short*, int)
 .text._ZN18ym2612_update_chanILi4EE4funcER8tables_tR9channel_tPsi
                0x0204f574      0x408 Ym2612_Emu.o
                0x0204f574                ym2612_update_chan<4>::func(tables_t&, channel_t&, short*, int)
 .text._ZN18ym2612_update_chanILi7EE4funcER8tables_tR9channel_tPsi
                0x0204f97c      0x440 Ym2612_Emu.o
                0x0204f97c                ym2612_update_chan<7>::func(tables_t&, channel_t&, short*, int)
 .text._ZN18ym2612_update_chanILi6EE4funcER8tables_tR9channel_tPsi
                0x0204fdbc      0x428 Ym2612_Emu.o
                0x0204fdbc                ym2612_update_chan<6>::func(tables_t&, channel_t&, short*, int)
 .text._ZdlPv   0x020501e4       0x14 /opt/devkitpro/devkitARM/lib/gcc/arm-none-eabi/4.7.1/../../../../arm-none-eabi/lib/libstdc++.a(del_op.o)
                0x020501e4                operator delete(void*)
 .text._Znwj    0x020501f8       0x88 /opt/devkitpro/devkitARM/lib/gcc/arm-none-eabi/4.7.1/../../../../arm-none-eabi/lib/libstdc++.a(new_op.o)
                0x020501f8                operator new(unsigned int)
 .text.__cxa_pure_virtual
                0x02050280       0x1c /opt/devkitpro/devkitARM/lib/gcc/arm-none-eabi/4.7.1/../../../../arm-none-eabi/lib/libstdc++.a(pure.o)
                0x02050280                __cxa_pure_virtual
 .text.__cxa_deleted_virtual
                0x0205029c       0x1c /opt/devkitpro/devkitARM/lib/gcc/arm-none-eabi/4.7.1/../../../../arm-none-eabi/lib/libstdc++.a(pure.o)
                0x0205029c                __cxa_deleted_virtual
 .text._ZNKSt9bad_alloc4whatEv
                0x020502b8        0xc /opt/devkitpro/devkitARM/lib/gcc/arm-none-eabi/4.7.1/../../../../arm-none-eabi/lib/libstdc++.a(bad_alloc.o)
                0x020502b8                std::bad_alloc::what() const
 .text._ZNSt9bad_allocD2Ev
                0x020502c4       0x24 /opt/devkitpro/devkitARM/lib/gcc/arm-none-eabi/4.7.1/../../../../arm-none-eabi/lib/libstdc++.a(bad_alloc.o)
                0x020502c4                std::bad_alloc::~bad_alloc()
                0x020502c4                std::bad_alloc::~bad_alloc()
 .text._ZNSt9bad_allocD0Ev
                0x020502e8       0x20 /opt/devkitpro/devkitARM/lib/gcc/arm-none-eabi/4.7.1/../../../../arm-none-eabi/lib/libstdc++.a(bad_alloc.o)
                0x020502e8                std::bad_alloc::~bad_alloc()
 .text.__cxa_allocate_exception
                0x02050308       0x98 /opt/devkitpro/devkitARM/lib/gcc/arm-none-eabi/4.7.1/../../../../arm-none-eabi/lib/libstdc++.a(eh_alloc.o)
                0x02050308                __cxa_allocate_exception
 .text.__cxa_free_exception
                0x020503a0       0x54 /opt/devkitpro/devkitARM/lib/gcc/arm-none-eabi/4.7.1/../../../../arm-none-eabi/lib/libstdc++.a(eh_alloc.o)
                0x020503a0                __cxa_free_exception
 .text.__cxa_allocate_dependent_exception
                0x020503f4       0x90 /opt/devkitpro/devkitARM/lib/gcc/arm-none-eabi/4.7.1/../../../../arm-none-eabi/lib/libstdc++.a(eh_alloc.o)
                0x020503f4                __cxa_allocate_dependent_exception
 .text.__cxa_free_dependent_exception
                0x02050484       0x5c /opt/devkitpro/devkitARM/lib/gcc/arm-none-eabi/4.7.1/../../../../arm-none-eabi/lib/libstdc++.a(eh_alloc.o)
                0x02050484                __cxa_free_dependent_exception
 .text.__cxa_end_cleanup
                0x020504e0       0x10 /opt/devkitpro/devkitARM/lib/gcc/arm-none-eabi/4.7.1/../../../../arm-none-eabi/lib/libstdc++.a(eh_arm.o)
                0x020504e0                __cxa_end_cleanup
 .text.__cxa_type_match
                0x020504f0      0x14c /opt/devkitpro/devkitARM/lib/gcc/arm-none-eabi/4.7.1/../../../../arm-none-eabi/lib/libstdc++.a(eh_arm.o)
                0x020504f0                __cxa_type_match
 .text.__cxa_begin_cleanup
                0x0205063c       0xb0 /opt/devkitpro/devkitARM/lib/gcc/arm-none-eabi/4.7.1/../../../../arm-none-eabi/lib/libstdc++.a(eh_arm.o)
                0x0205063c                __cxa_begin_cleanup
 .text.__gnu_end_cleanup
                0x020506ec       0xb0 /opt/devkitpro/devkitARM/lib/gcc/arm-none-eabi/4.7.1/../../../../arm-none-eabi/lib/libstdc++.a(eh_arm.o)
                0x020506ec                __gnu_end_cleanup
 .text._ZN10__cxxabiv1L24__is_gxx_exception_classEPc
                0x0205079c       0x70 /opt/devkitpro/devkitARM/lib/gcc/arm-none-eabi/4.7.1/../../../../arm-none-eabi/lib/libstdc++.a(eh_call.o)
 .text.__cxa_call_terminate
                0x0205080c       0x2c /opt/devkitpro/devkitARM/lib/gcc/arm-none-eabi/4.7.1/../../../../arm-none-eabi/lib/libstdc++.a(eh_call.o)
                0x0205080c                __cxa_call_terminate
 .text.__cxa_call_unexpected
                0x02050838      0x134 /opt/devkitpro/devkitARM/lib/gcc/arm-none-eabi/4.7.1/../../../../arm-none-eabi/lib/libstdc++.a(eh_call.o)
                0x02050838                __cxa_call_unexpected
 .text.__cxa_get_exception_ptr
                0x0205096c        0x8 /opt/devkitpro/devkitARM/lib/gcc/arm-none-eabi/4.7.1/../../../../arm-none-eabi/lib/libstdc++.a(eh_catch.o)
                0x0205096c                __cxa_get_exception_ptr
 .text.__cxa_begin_catch
                0x02050974       0xdc /opt/devkitpro/devkitARM/lib/gcc/arm-none-eabi/4.7.1/../../../../arm-none-eabi/lib/libstdc++.a(eh_catch.o)
                0x02050974                __cxa_begin_catch
 .text.__cxa_end_catch
                0x02050a50       0xdc /opt/devkitpro/devkitARM/lib/gcc/arm-none-eabi/4.7.1/../../../../arm-none-eabi/lib/libstdc++.a(eh_catch.o)
                0x02050a50                __cxa_end_catch
 .text._ZSt18uncaught_exceptionv
                0x02050b2c       0x1c /opt/devkitpro/devkitARM/lib/gcc/arm-none-eabi/4.7.1/../../../../arm-none-eabi/lib/libstdc++.a(eh_catch.o)
                0x02050b2c                std::uncaught_exception()
 .text._ZNSt9exceptionD2Ev
                0x02050b48       0x10 /opt/devkitpro/devkitARM/lib/gcc/arm-none-eabi/4.7.1/../../../../arm-none-eabi/lib/libstdc++.a(eh_exception.o)
                0x02050b48                std::exception::~exception()
                0x02050b48                std::exception::~exception()
 .text._ZNSt13bad_exceptionD2Ev
                0x02050b58       0x10 /opt/devkitpro/devkitARM/lib/gcc/arm-none-eabi/4.7.1/../../../../arm-none-eabi/lib/libstdc++.a(eh_exception.o)
                0x02050b58                std::bad_exception::~bad_exception()
                0x02050b58                std::bad_exception::~bad_exception()
 .text._ZN10__cxxabiv115__forced_unwindD2Ev
                0x02050b68       0x10 /opt/devkitpro/devkitARM/lib/gcc/arm-none-eabi/4.7.1/../../../../arm-none-eabi/lib/libstdc++.a(eh_exception.o)
                0x02050b68                __cxxabiv1::__forced_unwind::~__forced_unwind()
                0x02050b68                __cxxabiv1::__forced_unwind::~__forced_unwind()
 .text._ZN10__cxxabiv119__foreign_exceptionD2Ev
                0x02050b78       0x10 /opt/devkitpro/devkitARM/lib/gcc/arm-none-eabi/4.7.1/../../../../arm-none-eabi/lib/libstdc++.a(eh_exception.o)
                0x02050b78                __cxxabiv1::__foreign_exception::~__foreign_exception()
                0x02050b78                __cxxabiv1::__foreign_exception::~__foreign_exception()
 .text._ZNKSt9exception4whatEv
                0x02050b88        0xc /opt/devkitpro/devkitARM/lib/gcc/arm-none-eabi/4.7.1/../../../../arm-none-eabi/lib/libstdc++.a(eh_exception.o)
                0x02050b88                std::exception::what() const
 .text._ZNKSt13bad_exception4whatEv
                0x02050b94        0xc /opt/devkitpro/devkitARM/lib/gcc/arm-none-eabi/4.7.1/../../../../arm-none-eabi/lib/libstdc++.a(eh_exception.o)
                0x02050b94                std::bad_exception::what() const
 .text._ZN10__cxxabiv119__foreign_exceptionD0Ev
                0x02050ba0       0x24 /opt/devkitpro/devkitARM/lib/gcc/arm-none-eabi/4.7.1/../../../../arm-none-eabi/lib/libstdc++.a(eh_exception.o)
                0x02050ba0                __cxxabiv1::__foreign_exception::~__foreign_exception()
 .text._ZN10__cxxabiv115__forced_unwindD0Ev
                0x02050bc4       0x24 /opt/devkitpro/devkitARM/lib/gcc/arm-none-eabi/4.7.1/../../../../arm-none-eabi/lib/libstdc++.a(eh_exception.o)
                0x02050bc4                __cxxabiv1::__forced_unwind::~__forced_unwind()
 .text._ZNSt9exceptionD0Ev
                0x02050be8       0x24 /opt/devkitpro/devkitARM/lib/gcc/arm-none-eabi/4.7.1/../../../../arm-none-eabi/lib/libstdc++.a(eh_exception.o)
                0x02050be8                std::exception::~exception()
 .text._ZNSt13bad_exceptionD0Ev
                0x02050c0c       0x24 /opt/devkitpro/devkitARM/lib/gcc/arm-none-eabi/4.7.1/../../../../arm-none-eabi/lib/libstdc++.a(eh_exception.o)
                0x02050c0c                std::bad_exception::~bad_exception()
 .text.__cxa_get_globals_fast
                0x02050c30        0xc /opt/devkitpro/devkitARM/lib/gcc/arm-none-eabi/4.7.1/../../../../arm-none-eabi/lib/libstdc++.a(eh_globals.o)
                0x02050c30                __cxa_get_globals_fast
 .text.__cxa_get_globals
                0x02050c3c        0xc /opt/devkitpro/devkitARM/lib/gcc/arm-none-eabi/4.7.1/../../../../arm-none-eabi/lib/libstdc++.a(eh_globals.o)
                0x02050c3c                __cxa_get_globals
 .text._ZL12read_sleb128PKhPl
                0x02050c48       0x44 /opt/devkitpro/devkitARM/lib/gcc/arm-none-eabi/4.7.1/../../../../arm-none-eabi/lib/libstdc++.a(eh_personality.o)
 .text._ZL28read_encoded_value_with_basehjPKhPj
                0x02050c8c      0x170 /opt/devkitpro/devkitARM/lib/gcc/arm-none-eabi/4.7.1/../../../../arm-none-eabi/lib/libstdc++.a(eh_personality.o)
 .text._ZL21base_of_encoded_valuehP15_Unwind_Context
                0x02050dfc       0x7c /opt/devkitpro/devkitARM/lib/gcc/arm-none-eabi/4.7.1/../../../../arm-none-eabi/lib/libstdc++.a(eh_personality.o)
 .text._ZL17parse_lsda_headerP15_Unwind_ContextPKhP16lsda_header_info
                0x02050e78       0xd8 /opt/devkitpro/devkitARM/lib/gcc/arm-none-eabi/4.7.1/../../../../arm-none-eabi/lib/libstdc++.a(eh_personality.o)
 .text.__gxx_personality_v0
                0x02050f50      0x5f4 /opt/devkitpro/devkitARM/lib/gcc/arm-none-eabi/4.7.1/../../../../arm-none-eabi/lib/libstdc++.a(eh_personality.o)
                0x02050f50                __gxx_personality_v0
 .text._ZN10__cxxabiv111__terminateEPFvvE
                0x02051544       0x34 /opt/devkitpro/devkitARM/lib/gcc/arm-none-eabi/4.7.1/../../../../arm-none-eabi/lib/libstdc++.a(eh_terminate.o)
                0x02051544                __cxxabiv1::__terminate(void (*)())
 .text._ZSt9terminatev
                0x02051578       0x14 /opt/devkitpro/devkitARM/lib/gcc/arm-none-eabi/4.7.1/../../../../arm-none-eabi/lib/libstdc++.a(eh_terminate.o)
                0x02051578                std::terminate()
 .text._ZN10__cxxabiv112__unexpectedEPFvvE
                0x0205158c       0x10 /opt/devkitpro/devkitARM/lib/gcc/arm-none-eabi/4.7.1/../../../../arm-none-eabi/lib/libstdc++.a(eh_terminate.o)
                0x0205158c                __cxxabiv1::__unexpected(void (*)())
 .text._ZSt10unexpectedv
                0x0205159c       0x14 /opt/devkitpro/devkitARM/lib/gcc/arm-none-eabi/4.7.1/../../../../arm-none-eabi/lib/libstdc++.a(eh_terminate.o)
                0x0205159c                std::unexpected()
 .text._ZSt13set_terminatePFvvE
                0x020515b0       0x18 /opt/devkitpro/devkitARM/lib/gcc/arm-none-eabi/4.7.1/../../../../arm-none-eabi/lib/libstdc++.a(eh_terminate.o)
                0x020515b0                std::set_terminate(void (*)())
 .text._ZSt14set_unexpectedPFvvE
                0x020515c8       0x18 /opt/devkitpro/devkitARM/lib/gcc/arm-none-eabi/4.7.1/../../../../arm-none-eabi/lib/libstdc++.a(eh_terminate.o)
                0x020515c8                std::set_unexpected(void (*)())
 .text._ZL23__gxx_exception_cleanup19_Unwind_Reason_CodeP21_Unwind_Control_Block
                0x020515e0       0x3c /opt/devkitpro/devkitARM/lib/gcc/arm-none-eabi/4.7.1/../../../../arm-none-eabi/lib/libstdc++.a(eh_throw.o)
 .text.__cxa_throw
                0x0205161c       0x94 /opt/devkitpro/devkitARM/lib/gcc/arm-none-eabi/4.7.1/../../../../arm-none-eabi/lib/libstdc++.a(eh_throw.o)
                0x0205161c                __cxa_throw
 .text.__cxa_rethrow
                0x020516b0       0xb0 /opt/devkitpro/devkitARM/lib/gcc/arm-none-eabi/4.7.1/../../../../arm-none-eabi/lib/libstdc++.a(eh_throw.o)
                0x020516b0                __cxa_rethrow
 .text._ZSt15set_new_handlerPFvvE
                0x02051760       0x18 /opt/devkitpro/devkitARM/lib/gcc/arm-none-eabi/4.7.1/../../../../arm-none-eabi/lib/libstdc++.a(new_handler.o)
                0x02051760                std::set_new_handler(void (*)())
 .text._ZNK10__cxxabiv120__si_class_type_info12__do_dyncastEiNS_17__class_type_info10__sub_kindEPKS1_PKvS4_S6_RNS1_16__dyncast_resultE
                0x02051778       0xdc /opt/devkitpro/devkitARM/lib/gcc/arm-none-eabi/4.7.1/../../../../arm-none-eabi/lib/libstdc++.a(si_class_type_info.o)
                0x02051778                __cxxabiv1::__si_class_type_info::__do_dyncast(int, __cxxabiv1::__class_type_info::__sub_kind, __cxxabiv1::__class_type_info const*, void const*, __cxxabiv1::__class_type_info const*, void const*, __cxxabiv1::__class_type_info::__dyncast_result&) const
 .text._ZN10__cxxabiv120__si_class_type_infoD2Ev
                0x02051854       0x24 /opt/devkitpro/devkitARM/lib/gcc/arm-none-eabi/4.7.1/../../../../arm-none-eabi/lib/libstdc++.a(si_class_type_info.o)
                0x02051854                __cxxabiv1::__si_class_type_info::~__si_class_type_info()
                0x02051854                __cxxabiv1::__si_class_type_info::~__si_class_type_info()
 .text._ZN10__cxxabiv120__si_class_type_infoD0Ev
                0x02051878       0x20 /opt/devkitpro/devkitARM/lib/gcc/arm-none-eabi/4.7.1/../../../../arm-none-eabi/lib/libstdc++.a(si_class_type_info.o)
                0x02051878                __cxxabiv1::__si_class_type_info::~__si_class_type_info()
 .text._ZNK10__cxxabiv120__si_class_type_info11__do_upcastEPKNS_17__class_type_infoEPKvRNS1_15__upcast_resultE
                0x02051898       0x4c /opt/devkitpro/devkitARM/lib/gcc/arm-none-eabi/4.7.1/../../../../arm-none-eabi/lib/libstdc++.a(si_class_type_info.o)
                0x02051898                __cxxabiv1::__si_class_type_info::__do_upcast(__cxxabiv1::__class_type_info const*, void const*, __cxxabiv1::__class_type_info::__upcast_result&) const
 .text._ZNK10__cxxabiv120__si_class_type_info20__do_find_public_srcEiPKvPKNS_17__class_type_infoES2_
                0x020518e4       0x6c /opt/devkitpro/devkitARM/lib/gcc/arm-none-eabi/4.7.1/../../../../arm-none-eabi/lib/libstdc++.a(si_class_type_info.o)
                0x020518e4                __cxxabiv1::__si_class_type_info::__do_find_public_src(int, void const*, __cxxabiv1::__class_type_info const*, void const*) const
 .text._ZNSt9type_infoD2Ev
                0x02051950       0x10 /opt/devkitpro/devkitARM/lib/gcc/arm-none-eabi/4.7.1/../../../../arm-none-eabi/lib/libstdc++.a(tinfo.o)
                0x02051950                std::type_info::~type_info()
                0x02051950                std::type_info::~type_info()
 .text._ZNKSt9type_info14__is_pointer_pEv
                0x02051960        0x8 /opt/devkitpro/devkitARM/lib/gcc/arm-none-eabi/4.7.1/../../../../arm-none-eabi/lib/libstdc++.a(tinfo.o)
                0x02051960                std::type_info::__is_pointer_p() const
 .text._ZNKSt9type_info15__is_function_pEv
                0x02051968        0x8 /opt/devkitpro/devkitARM/lib/gcc/arm-none-eabi/4.7.1/../../../../arm-none-eabi/lib/libstdc++.a(tinfo.o)
                0x02051968                std::type_info::__is_function_p() const
 .text._ZNKSt9type_info11__do_upcastEPKN10__cxxabiv117__class_type_infoEPPv
                0x02051970        0x8 /opt/devkitpro/devkitARM/lib/gcc/arm-none-eabi/4.7.1/../../../../arm-none-eabi/lib/libstdc++.a(tinfo.o)
                0x02051970                std::type_info::__do_upcast(__cxxabiv1::__class_type_info const*, void**) const
 .text._ZNSt9type_infoD0Ev
                0x02051978       0x24 /opt/devkitpro/devkitARM/lib/gcc/arm-none-eabi/4.7.1/../../../../arm-none-eabi/lib/libstdc++.a(tinfo.o)
                0x02051978                std::type_info::~type_info()
 .text._ZNKSt9type_infoeqERKS_
                0x0205199c       0x4c /opt/devkitpro/devkitARM/lib/gcc/arm-none-eabi/4.7.1/../../../../arm-none-eabi/lib/libstdc++.a(tinfo.o)
                0x0205199c                std::type_info::operator==(std::type_info const&) const
 .text._ZNKSt9type_info10__do_catchEPKS_PPvj
                0x020519e8        0x4 /opt/devkitpro/devkitARM/lib/gcc/arm-none-eabi/4.7.1/../../../../arm-none-eabi/lib/libstdc++.a(tinfo.o)
                0x020519e8                std::type_info::__do_catch(std::type_info const*, void**, unsigned int) const
 .text._ZNK10__cxxabiv117__class_type_info11__do_upcastEPKS0_PPv
                0x020519ec       0x64 /opt/devkitpro/devkitARM/lib/gcc/arm-none-eabi/4.7.1/../../../../arm-none-eabi/lib/libstdc++.a(class_type_info.o)
                0x020519ec                __cxxabiv1::__class_type_info::__do_upcast(__cxxabiv1::__class_type_info const*, void**) const
 .text._ZNK10__cxxabiv117__class_type_info20__do_find_public_srcEiPKvPKS0_S2_
                0x02051a50       0x14 /opt/devkitpro/devkitARM/lib/gcc/arm-none-eabi/4.7.1/../../../../arm-none-eabi/lib/libstdc++.a(class_type_info.o)
                0x02051a50                __cxxabiv1::__class_type_info::__do_find_public_src(int, void const*, __cxxabiv1::__class_type_info const*, void const*) const
 .text._ZNK10__cxxabiv117__class_type_info11__do_upcastEPKS0_PKvRNS0_15__upcast_resultE
                0x02051a64       0x38 /opt/devkitpro/devkitARM/lib/gcc/arm-none-eabi/4.7.1/../../../../arm-none-eabi/lib/libstdc++.a(class_type_info.o)
                0x02051a64                __cxxabiv1::__class_type_info::__do_upcast(__cxxabiv1::__class_type_info const*, void const*, __cxxabiv1::__class_type_info::__upcast_result&) const
 .text._ZN10__cxxabiv117__class_type_infoD2Ev
                0x02051a9c       0x24 /opt/devkitpro/devkitARM/lib/gcc/arm-none-eabi/4.7.1/../../../../arm-none-eabi/lib/libstdc++.a(class_type_info.o)
                0x02051a9c                __cxxabiv1::__class_type_info::~__class_type_info()
                0x02051a9c                __cxxabiv1::__class_type_info::~__class_type_info()
 .text._ZN10__cxxabiv117__class_type_infoD0Ev
                0x02051ac0       0x20 /opt/devkitpro/devkitARM/lib/gcc/arm-none-eabi/4.7.1/../../../../arm-none-eabi/lib/libstdc++.a(class_type_info.o)
                0x02051ac0                __cxxabiv1::__class_type_info::~__class_type_info()
 .text._ZNK10__cxxabiv117__class_type_info12__do_dyncastEiNS0_10__sub_kindEPKS0_PKvS3_S5_RNS0_16__dyncast_resultE
                0x02051ae0       0x7c /opt/devkitpro/devkitARM/lib/gcc/arm-none-eabi/4.7.1/../../../../arm-none-eabi/lib/libstdc++.a(class_type_info.o)
                0x02051ae0                __cxxabiv1::__class_type_info::__do_dyncast(int, __cxxabiv1::__class_type_info::__sub_kind, __cxxabiv1::__class_type_info const*, void const*, __cxxabiv1::__class_type_info const*, void const*, __cxxabiv1::__class_type_info::__dyncast_result&) const
 .text._ZNK10__cxxabiv117__class_type_info10__do_catchEPKSt9type_infoPPvj
                0x02051b5c       0x54 /opt/devkitpro/devkitARM/lib/gcc/arm-none-eabi/4.7.1/../../../../arm-none-eabi/lib/libstdc++.a(class_type_info.o)
                0x02051b5c                __cxxabiv1::__class_type_info::__do_catch(std::type_info const*, void**, unsigned int) const
 .text._ZN9__gnu_cxx27__verbose_terminate_handlerEv
                0x02051bb0      0x19c /opt/devkitpro/devkitARM/lib/gcc/arm-none-eabi/4.7.1/../../../../arm-none-eabi/lib/libstdc++.a(vterminate.o)
                0x02051bb0                __gnu_cxx::__verbose_terminate_handler()
 .text.__cxa_current_exception_type
                0x02051d4c       0x30 /opt/devkitpro/devkitARM/lib/gcc/arm-none-eabi/4.7.1/../../../../arm-none-eabi/lib/libstdc++.a(eh_type.o)
                0x02051d4c                __cxa_current_exception_type
 *fill*         0x02051d7c        0x4 ff
 .text.__cxa_current_exception_type.stub
                0x02051d80       0x8c linker stubs
 *(.stub)
 *(.gnu.warning)
 *(.gnu.linkonce.t*)
 *(.glue_7)
 .glue_7        0x00000000        0x0 linker stubs
 *(.glue_7t)
 .glue_7t       0x00000000        0x0 linker stubs
                0x02051e0c                . = ALIGN (0x4)

.vfp11_veneer   0x02051e20        0x0
 .vfp11_veneer  0x00000000        0x0 linker stubs

.v4_bx          0x02051e20        0x0
 .v4_bx         0x00000000        0x0 linker stubs

.iplt           0x02051e20        0x0
 .iplt          0x00000000        0x0 cglfont.o

.OVR_AfterSystem1_TEXT
                0x02051e20     0x2400
 .OVR_AfterSystem1_TEXT
                0x02051e20     0x1a5c main.o
                0x02052e38                WaitForVBlank()
                0x02052e60                CallBack_ExecuteVBlankHandler()
                0x02052ecc                CallBack_GetPointer()
                0x02052ed8                Proc_KeyInput_Init()
                0x02052f00                Proc_KeyInput(unsigned int)
                0x020534a0                ScreenMain_Flip_ProcFadeEffect()
 .OVR_AfterSystem1_TEXT
                0x0205387c       0x3c OverlayManager.o
                0x0205387c                OVM_proc_MainPass()
 .OVR_AfterSystem1_TEXT
                0x020538b8      0x958 shell.o
                0x020539d0                Shell_FAT_ReadMSP_Close()
                0x02053a30                Shell_FAT_ReadMSP_ReadHeader(char const*, void*, int)
                0x02053a80                Shell_FAT_ReadMSP_ReadBody(TMM*, char const*, void**, int*)
                0x02053b2c                Shell_FAT_fopen_MIDIData(char const*)
                0x02053b88                Shell_FAT_fopenmodify_Internal(char const*)
                0x02053c30                Shell_FAT_fopencreate_Internal(char const*)
                0x02053cd8                Shell_FAT_fopenreadwrite_Internal(char const*)
                0x02053d80                Shell_FAT_fopenwrite_Internal(char const*)
                0x02053e28                Shell_FAT_ReadMSP_Open()
                0x02053e8c                Shell_FAT_fopenmodify_Root(char const*)
                0x02053f34                Shell_FAT_fopencreate_Root(char const*)
                0x02053fdc                Shell_FAT_fopenreadwrite_Root(char const*)
                0x02054084                Shell_FAT_fopenwrite_Root(char const*)
                0x0205412c                Shell_FAT_fopen_Internal_WithCheckExists(char const*)
                0x0205416c                Shell_FAT_fopen_isExists_Internal(char const*)
                0x0205419c                Shell_FAT_fopen_Root_WithCheckExists(char const*)
                0x020541dc                Shell_GetMemoPathUnicode()
 .OVR_AfterSystem1_TEXT.stub
                0x02054210        0xc linker stubs

.OVR_AfterSystem2_TEXT
                0x02054220      0x848
 .OVR_AfterSystem2_TEXT
                0x02054220      0x848 OverlayManager.o
                0x02054220                OVM_Free()
                0x02054274                OVM_proc_Start(ENextProc)
                0x02054550                OVM_libsnd_mp3()
                0x020545b8                OVM_libsnd_midi()
                0x02054620                OVM_libsnd_gme()
                0x02054688                OVM_libsnd_ogg()
                0x020546f0                OVM_libsnd_wave()
                0x02054758                OVM_libimg_jpeg()
                0x020547c0                OVM_libimg_png()
                0x02054828                OVM_libimg_bmp()
                0x02054890                OVM_libimg_gif()
                0x020548f8                OVM_libimg_psd()
                0x02054960                OVM_libglobal_dpg()
                0x020549e4                OVM_libglobal_ndsrom()

.fini           0x02054a68       0x18
 *(.fini)
 .fini          0x02054a68        0xc /opt/devkitpro/devkitARM/lib/gcc/arm-none-eabi/4.7.1/crti.o
                0x02054a68                _fini
 .fini          0x02054a74        0xc /opt/devkitpro/devkitARM/lib/gcc/arm-none-eabi/4.7.1/crtn.o
                0x02054a80                __text_end = .

.rodata         0x02054a80    0x20fac
 *(.rodata)
 .rodata        0x02054a80       0xd0 ProgramID.o
                0x02054a80                OverlayHeader_ID
                0x02054abc                ROMWEB
                0x02054ad4                ROMENV
                0x02054af0                ROMDATEVERYSHORT
                0x02054afc                ROMDATESHORT
                0x02054b14                ROMDATE
                0x02054b34                ROMVERSION
                0x02054b44                ROMTITLE
 .rodata        0x02054b50       0x14 _console.o
 .rodata        0x02054b64      0x130 main.o
 .rodata        0x02054c94       0x10 cglb15.o
 .rodata        0x02054ca4       0x28 cglcanvas.o
 .rodata        0x02054ccc      0x154 OverlayManager.o
 .rodata        0x02054e20       0xac memtool.o
 .rodata        0x02054ecc      0x29c shell.o
 .rodata        0x02055168       0x20 sndeff_dfs.o
 .rodata        0x02055188       0x14 strtool.o
 .rodata        0x0205519c       0x18 unicode.o
 .rodata        0x020551b4       0x30 zlibhelp.o
 .rodata        0x020551e4       0x68 disc_io.o
 .rodata        0x0205524c       0xac fat2.o
 .rodata        0x020552f8      0x104 gba_nds_fat.o
 *fill*         0x020553fc        0x4 ff
 .rodata        0x02055400       0xe8 Dual_Resampler.o
                0x02055460                vtable for Dual_Resampler
 .rodata        0x020554e8       0x5c Fir_Resampler.o
 *fill*         0x02055544        0x4 ff
 .rodata        0x02055548      0x158 Gym_Emu.o
                0x02055548                vtable for Gym_Emu
                0x020555b4                gme_gym_type
 .rodata        0x020556a0      0x298 Nsfe_Emu.o
                0x020557e8                gme_nsfe_type
                0x02055800                vtable for Nsfe_Emu
 .rodata        0x02055938       0x90 Snes_Spc.o
 .rodata        0x020559c8      0x120 Spc_Cpu.o
 .rodata        0x02055ae8      0x480 Spc_Dsp.o
                0x02055b68                Spc_Dsp::gauss
 .rodata        0x02055f68      0x130 Spc_Emu.o
                0x02055f68                vtable for Spc_Emu
                0x02055fb4                gme_spc_type
 .rodata        0x02056098      0x138 Vgm_Emu.o
                0x020560cc                gme_vgm_type
                0x020560e8                vtable for Vgm_Emu
                0x020561b8                gme_vgz_type
 .rodata        0x020561d0      0x1e0 Vgm_Emu_Impl.o
                0x02056208                vtable for Vgm_Emu_Impl
 .rodata        0x020563b0      0x130 Ym2612_Emu.o
 .rodata        0x020564e0      0x800 _console_font_fixed6x6_packed_bin.o
                0x020564e0                _console_font_fixed6x6_packed_bin
 .rodata        0x02056ce0     0x1608 bootwarn_b8zlib.o
                0x02056ce0                bootwarn_b8zlib
 .rodata        0x020582e8     0x1324 guidxcrcerror_b8zlib.o
                0x020582e8                guidxcrcerror_b8zlib
 .rodata        0x0205960c     0x1220 versionerror_b8zlib.o
                0x0205960c                versionerror_b8zlib
 .rodata        0x0205a82c       0x10 crc32.o
 .rodata        0x0205a83c       0x18 deflate.o
 .rodata        0x0205a854       0x28 infback.o
 .rodata        0x0205a87c       0x28 inflate.o
 .rodata        0x0205a8a4      0x100 inftrees.o
 .rodata        0x0205a9a4      0xa30 trees.o
                0x0205a9a4                _length_code
                0x0205ab8c                _dist_code
 .rodata        0x0205b3d4       0x28 zutil.o
                0x0205b3d4                z_errmsg
 .rodata        0x0205b3fc      0x400 floor_lookup.o
                0x0205b3fc                FLOOR_fromdB_LOOKUP
 .rodata        0x0205b7fc        0xc /opt/devkitpro/libnds/lib/libnds9.a(dldi.o)
                0x0205b7fc                DLDI_MAGIC_STRING_BACKWARDS
                0x0205b804                DLDI_MAGIC_NUMBER
 .rodata        0x0205b808      0x6f8 /opt/devkitpro/devkitARM/lib/gcc/arm-none-eabi/4.7.1/../../../../arm-none-eabi/lib/libstdc++.a(cp-demangle.o)
 .rodata        0x0205bf00       0x10 /opt/devkitpro/devkitARM/lib/gcc/arm-none-eabi/4.7.1/../../../../arm-none-eabi/lib/libm.a(lib_a-e_fmod.o)
 .rodata        0x0205bf10       0x30 /opt/devkitpro/devkitARM/lib/gcc/arm-none-eabi/4.7.1/../../../../arm-none-eabi/lib/libm.a(lib_a-e_pow.o)
 .rodata        0x0205bf40      0x188 /opt/devkitpro/devkitARM/lib/gcc/arm-none-eabi/4.7.1/../../../../arm-none-eabi/lib/libm.a(lib_a-e_rem_pio2.o)
 .rodata        0x0205c0c8       0x50 /opt/devkitpro/devkitARM/lib/gcc/arm-none-eabi/4.7.1/../../../../arm-none-eabi/lib/libm.a(lib_a-k_rem_pio2.o)
 .rodata        0x0205c118       0x10 /opt/devkitpro/devkitARM/lib/gcc/arm-none-eabi/4.7.1/../../../../arm-none-eabi/lib/libm.a(lib_a-s_rint.o)
 .rodata        0x0205c128      0x104 /opt/devkitpro/devkitARM/lib/gcc/arm-none-eabi/4.7.1/../../../../arm-none-eabi/lib/libc.a(lib_a-ctype_.o)
                0x0205c128                _ctype_
 .rodata        0x0205c22c        0x4 /opt/devkitpro/devkitARM/lib/gcc/arm-none-eabi/4.7.1/../../../../arm-none-eabi/lib/libc.a(lib_a-impure.o)
                0x0205c22c                _global_impure_ptr
 .rodata        0x0205c230       0x28 /opt/devkitpro/devkitARM/lib/gcc/arm-none-eabi/4.7.1/../../../../arm-none-eabi/lib/libc.a(lib_a-strtod.o)
 .rodata        0x0205c258       0x20 /opt/devkitpro/devkitARM/lib/gcc/arm-none-eabi/4.7.1/../../../../arm-none-eabi/lib/libc.a(lib_a-svfprintf.o)
 .rodata        0x0205c278       0x24 /opt/devkitpro/devkitARM/lib/gcc/arm-none-eabi/4.7.1/../../../../arm-none-eabi/lib/libc.a(lib_a-svfscanf.o)
 .rodata        0x0205c29c       0x20 /opt/devkitpro/devkitARM/lib/gcc/arm-none-eabi/4.7.1/../../../../arm-none-eabi/lib/libc.a(lib_a-vfiprintf.o)
 .rodata        0x0205c2bc     0x34d0 /opt/devkitpro/devkitARM/lib/gcc/arm-none-eabi/4.7.1/../../../../arm-none-eabi/lib/libc.a(lib_a-jp2uc.o)
 .rodata        0x0205f78c       0x1c /opt/devkitpro/devkitARM/lib/gcc/arm-none-eabi/4.7.1/../../../../arm-none-eabi/lib/libc.a(lib_a-locale.o)
 .rodata        0x0205f7a8       0x90 /opt/devkitpro/devkitARM/lib/gcc/arm-none-eabi/4.7.1/../../../../arm-none-eabi/lib/libc.a(lib_a-mbtowc_r.o)
 .rodata        0x0205f838      0x128 /opt/devkitpro/devkitARM/lib/gcc/arm-none-eabi/4.7.1/../../../../arm-none-eabi/lib/libc.a(lib_a-mprec.o)
                0x0205f848                __mprec_tens
                0x0205f910                __mprec_tinytens
                0x0205f938                __mprec_bigtens
 .rodata        0x0205f960       0x20 /opt/devkitpro/devkitARM/lib/gcc/arm-none-eabi/4.7.1/../../../../arm-none-eabi/lib/libc.a(lib_a-svfiprintf.o)
 .rodata        0x0205f980       0x24 /opt/devkitpro/devkitARM/lib/gcc/arm-none-eabi/4.7.1/../../../../arm-none-eabi/lib/libc.a(lib_a-svfiscanf.o)
 .rodata        0x0205f9a4       0x64 /opt/devkitpro/devkitARM/lib/gcc/arm-none-eabi/4.7.1/../../../../arm-none-eabi/lib/libsysbase.a(iosupport.o)
                0x0205f9a4                dotab_stdnull
 *all.rodata*(*)
 *(.roda)
 *(.rodata.*)
 .rodata.str1.4
                0x0205fa08       0x5b cglfont.o
                                 0x5c (size before relaxing)
 *fill*         0x0205fa63        0x1 ff
 .rodata.str1.4
                0x0205fa64       0x37 cgltgf.o
                                 0x38 (size before relaxing)
 *fill*         0x0205fa9b        0x1 ff
 .rodata.str1.4
                0x0205fa9c      0x41f shell_SystemAfter.o
                                0x450 (size before relaxing)
 *fill*         0x0205febb        0x1 ff
 .rodata.str1.4
                0x0205febc      0x415 dll.o
                                0x424 (size before relaxing)
 *fill*         0x020602d1        0x3 ff
 .rodata.str1.4
                0x020602d4      0x43c dllsound.o
 .rodata.str1.4
                0x02060710      0x87b playlist.o
                                0x8f0 (size before relaxing)
 *fill*         0x02060f8b        0x1 ff
 .rodata.str1.4
                0x02060f8c       0xab plug_lyric.o
                                 0xc4 (size before relaxing)
 *fill*         0x02061037        0x1 ff
 .rodata.str1.4
                0x02061038       0xf9 fpga_helper.o
                                 0xfc (size before relaxing)
 *fill*         0x02061131        0x3 ff
 .rodata.str1.4
                0x02061134      0x1a4 BMPReader.o
 .rodata.str1.4
                0x020612d8       0x10 cfont.o
 .rodata.str1.4
                0x00000000        0x4 component.o
 .rodata.str1.4
                0x020612e8      0x351 ErrorDialog.o
                                0x594 (size before relaxing)
 *fill*         0x02061639        0x3 ff
 .rodata.str1.4
                0x0206163c       0x34 particle.o
 .rodata.str1.4
                0x02061670       0x4f rect.o
                                 0x50 (size before relaxing)
 *fill*         0x020616bf        0x1 ff
 .rodata.str1.4
                0x020616c0     0x140a skin.o
                               0x1468 (size before relaxing)
 *fill*         0x02062aca        0x2 ff
 .rodata.str1.4
                0x02062acc       0xe7 splash.o
                                 0xe8 (size before relaxing)
 *fill*         0x02062bb3        0x1 ff
 .rodata.str1.4
                0x02062bb4      0x1ae VideoResume.o
                                0x1b0 (size before relaxing)
 *fill*         0x02062d62        0x2 ff
 .rodata.str1.4
                0x02062d64      0x1df extmem.o
                                0x1e0 (size before relaxing)
 *fill*         0x02062f43        0x1 ff
 .rodata.str1.4
                0x02062f44      0x141 BootROM.o
                                0x144 (size before relaxing)
 *fill*         0x02063085        0x3 ff
 .rodata.str1.4
                0x02063088       0xf9 extlink.o
                                0x128 (size before relaxing)
 *fill*         0x02063181        0x3 ff
 .rodata.str1.4
                0x02063184       0x36 NDSROMIcon.o
                                 0x48 (size before relaxing)
 *fill*         0x020631ba        0x2 ff
 .rodata.str1.4
                0x020631bc      0x2b0 launchstate.o
                                0x328 (size before relaxing)
 .rodata.str1.4
                0x0206346c      0x256 procstate.o
                                0x29c (size before relaxing)
 *fill*         0x020636c2        0x2 ff
 .rodata.str1.4
                0x020636c4       0x27 resume.o
                                 0x28 (size before relaxing)
 *fill*         0x020636eb        0x1 ff
 .rodata.str1.4
                0x020636ec       0x8a sndeff.o
                                 0x8c (size before relaxing)
 *fill*         0x02063776        0x2 ff
 .rodata.str1.4
                0x02063778      0x275 strpcm.o
                                0x284 (size before relaxing)
 *fill*         0x020639ed        0x3 ff
 .rodata.str1.4
                0x020639f0        0x7 datetime.o
                                  0x8 (size before relaxing)
 *fill*         0x020639f7        0x1 ff
 .rodata.str1.4
                0x020639f8       0xb8 euc2unicode.o
 .rodata.str1.4
                0x02063ab0      0x161 lang.o
                                0x1fc (size before relaxing)
 *fill*         0x02063c11        0x3 ff
 .rodata.str1.4
                0x02063c14      0x337 inifile.o
                                0x3f4 (size before relaxing)
 *fill*         0x02063f4b        0x1 ff
 .rodata.str1.4
                0x02063f4c      0xb6d proc_chkdsk.o
                               0x1020 (size before relaxing)
 *fill*         0x02064ab9        0x3 ff
 .rodata.str1.4
                0x02064abc      0x1ac proc_setup.o
                                0x2cc (size before relaxing)
 .rodata.str1.4
                0x02064c68     0x152e proc_FileList.o
                               0x2034 (size before relaxing)
 *fill*         0x02066196        0x2 ff
 .rodata.str1.4
                0x02066198      0x1b1 NDSFiles.o
                                0x2ac (size before relaxing)
 *fill*         0x02066349        0x3 ff
 .rodata.str1.4
                0x0206634c       0x88 hiddenpaths.o
 .rodata.str1.4
                0x020663d4       0x5f ThumbDPG.o
                                 0x60 (size before relaxing)
 *fill*         0x02066433        0x1 ff
 .rodata.str1.4
                0x02066434      0x17a ThumbIPK.o
                                0x17c (size before relaxing)
 *fill*         0x020665ae        0x2 ff
 .rodata.str1.4
                0x020665b0       0x6b cipk_simple.o
                                 0x6c (size before relaxing)
 *fill*         0x0206661b        0x1 ff
 .rodata.str1.4
                0x0206661c       0xba proc_sysmenu.o
                                0x148 (size before relaxing)
 *fill*         0x020666d6        0x2 ff
 .rodata.str1.4
                0x020666d8      0x324 proc_DPGCustom.o
                                0x52c (size before relaxing)
 .rodata.str1.4
                0x020669fc      0x34d proc_DPGPlay.o
                                0x48c (size before relaxing)
 *fill*         0x02066d49        0x3 ff
 .rodata.str1.4
                0x02066d4c      0x32a proc_ImageCustom.o
                                0x564 (size before relaxing)
 *fill*         0x02067076        0x2 ff
 .rodata.str1.4
                0x02067078      0x71b proc_ImageView.o
                                0x9d8 (size before relaxing)
 *fill*         0x02067793        0x1 ff
 .rodata.str1.4
                0x02067794      0x50d proc_TextCustom.o
                                0x848 (size before relaxing)
 *fill*         0x02067ca1        0x3 ff
 .rodata.str1.4
                0x02067ca4       0xe1 proc_TextMenu.o
                                0x1ac (size before relaxing)
 *fill*         0x02067d85        0x3 ff
 .rodata.str1.4
                0x02067d88      0xbcc proc_TextView.o
                                0xffc (size before relaxing)
 .rodata.str1.4
                0x02068954      0x188 cctf.o
                                0x18c (size before relaxing)
 .rodata.str1.4
                0x02068adc       0xb2 cctf_dfs.o
                                 0xe4 (size before relaxing)
 .rodata.str1.4
                0x00000000       0x10 proc_BinView.o
 *fill*         0x02068b8e        0x2 ff
 .rodata.str1.4
                0x02068b90      0x123 proc_Launch.o
                                0x1f0 (size before relaxing)
 *fill*         0x02068cb3        0x1 ff
 .rodata.str1.4
                0x02068cb4      0x8c4 proc_Custom.o
                                0xf20 (size before relaxing)
 .rodata.str1.4
                0x02069578      0x2b6 proc_MemoEdit.o
                                0x3a4 (size before relaxing)
 .rodata.str1.4
                0x00000000       0x10 proc_MemoList.o
 *fill*         0x0206982e        0x2 ff
 .rodata.str1.4
                0x02069830      0x1ea proc_AudioCustom.o
                                0x324 (size before relaxing)
 *fill*         0x02069a1a        0x2 ff
 .rodata.str1.4
                0x02069a1c      0x212 plug_mp3.o
                                0x21c (size before relaxing)
 *fill*         0x02069c2e        0x2 ff
 .rodata.str1.4
                0x02069c30      0x237 stream.o
                                0x238 (size before relaxing)
 *fill*         0x02069e67        0x1 ff
 .rodata.str1.4
                0x02069e68      0x1e7 plug_midi.o
                                0x1ec (size before relaxing)
 *fill*         0x0206a04f        0x1 ff
 .rodata.str1.4
                0x0206a050       0x59 mtrk.o
                                 0x5c (size before relaxing)
 *fill*         0x0206a0a9        0x3 ff
 .rodata.str1.4
                0x0206a0ac      0x2ba pch.o
                                0x2bc (size before relaxing)
 *fill*         0x0206a366        0x2 ff
 .rodata.str1.4
                0x0206a368      0x2a0 rcplib.o
                                0x2a4 (size before relaxing)
 .rodata.str1.4
                0x0206a608       0x17 smidlib.o
                                 0x18 (size before relaxing)
 *fill*         0x0206a61f        0x1 ff
 .rodata.str1.4
                0x0206a620      0x2bf smidlib_sm.o
                                0x364 (size before relaxing)
 *fill*         0x0206a8df        0x1 ff
 .rodata.str1.4
                0x0206a8e0      0x168 sndfont.o
                                0x1c0 (size before relaxing)
 .rodata.str1.4
                0x0206aa48      0x55d plug_gme.o
                                0x5bc (size before relaxing)
 *fill*         0x0206afa5        0x3 ff
 .rodata.str1.4
                0x0206afa8      0x14c Ay_Apu.o
 .rodata.str1.4
                0x0206b0f4       0x56 Ay_Cpu.o
                                 0x58 (size before relaxing)
 *fill*         0x0206b14a        0x6 ff
 .rodata._ZTV7Ay_File
                0x0206b150       0x50 Ay_Emu.o
                0x0206b150                vtable for Ay_File
 .rodata.str1.4
                0x0206b1a0      0x1fb Ay_Emu.o
                                0x298 (size before relaxing)
 *fill*         0x0206b39b        0x5 ff
 .rodata._ZTV8Gbs_File
                0x0206b3a0       0x50 Gbs_Emu.o
                0x0206b3a0                vtable for Gbs_File
 .rodata.str1.4
                0x0206b3f0      0x146 Gbs_Emu.o
                                0x1c4 (size before relaxing)
 *fill*         0x0206b536        0x2 ff
 .rodata.str1.4
                0x0206b538      0x134 Gb_Apu.o
                                0x1c4 (size before relaxing)
 .rodata.str1.4
                0x0206b66c       0xe6 Gb_Cpu.o
                                 0xf0 (size before relaxing)
 .rodata.str1.4
                0x00000000       0x90 Gb_Oscs.o
 *fill*         0x0206b752        0x2 ff
 .rodata.str1.4
                0x0206b754       0x97 gme.o
                                 0xa4 (size before relaxing)
 *fill*         0x0206b7eb        0x1 ff
 .rodata.str1.4
                0x0206b7ec       0x7b Hes_Apu.o
                                0x12c (size before relaxing)
 *fill*         0x0206b867        0x1 ff
 .rodata.str1.4
                0x0206b868       0x8c Hes_Cpu.o
                                0x14c (size before relaxing)
 *fill*         0x0206b8f4        0x4 ff
 .rodata._ZTV8Hes_File
                0x0206b8f8       0x50 Hes_Emu.o
                0x0206b8f8                vtable for Hes_File
 .rodata.str1.4
                0x0206b948      0x154 Hes_Emu.o
                                0x250 (size before relaxing)
 .rodata.str1.4
                0x0206ba9c       0x6a Kss_Cpu.o
                                 0x8c (size before relaxing)
 *fill*         0x0206bb06        0x2 ff
 .rodata._ZTV8Kss_File
                0x0206bb08       0x50 Kss_Emu.o
                0x0206bb08                vtable for Kss_File
 .rodata.str1.4
                0x0206bb58      0x103 Kss_Emu.o
                                0x2c0 (size before relaxing)
 .rodata.str1.4
                0x00000000       0x90 Kss_Scc_Apu.o
 *fill*         0x0206bc5b        0x1 ff
 .rodata.str1.4
                0x0206bc5c       0xa7 Nes_Apu.o
                                0x160 (size before relaxing)
 *fill*         0x0206bd03        0x1 ff
 .rodata.str1.4
                0x0206bd04       0x79 Nes_Cpu.o
                                0x16c (size before relaxing)
 *fill*         0x0206bd7d        0x3 ff
 .rodata.str1.4
                0x0206bd80       0x57 Nes_Fme7_Apu.o
                                0x100 (size before relaxing)
 *fill*         0x0206bdd7        0x1 ff
 .rodata.str1.4
                0x0206bdd8       0x58 Nes_Namco_Apu.o
                                 0xfc (size before relaxing)
 .rodata.str1.4
                0x0206be30       0x5f Nes_Oscs.o
                                 0xf0 (size before relaxing)
 *fill*         0x0206be8f        0x1 ff
 .rodata.str1.4
                0x0206be90       0x97 Nes_Vrc6_Apu.o
                                0x150 (size before relaxing)
 *fill*         0x0206bf27        0x1 ff
 .rodata._ZTV8Nsf_File
                0x0206bf28       0x50 Nsf_Emu.o
                0x0206bf28                vtable for Nsf_File
 .rodata.str1.4
                0x0206bf78      0x239 Nsf_Emu.o
                                0x3c8 (size before relaxing)
 *fill*         0x0206c1b1        0x3 ff
 .rodata._ZZN7Sap_Apu12calc_periodsEvE9fast_bits
                0x0206c1b4        0x4 Sap_Apu.o
                0x0206c1b4                Sap_Apu::calc_periods()::fast_bits
 .rodata.str1.4
                0x00000000       0x90 Sap_Apu.o
 .rodata.str1.4
                0x00000000       0x68 Sap_Cpu.o
 .rodata._ZTV8Sap_File
                0x0206c1b8       0x50 Sap_Emu.o
                0x0206c1b8                vtable for Sap_File
 .rodata.str1.4
                0x0206c208      0x155 Sap_Emu.o
                                0x26c (size before relaxing)
 *fill*         0x0206c35d        0x3 ff
 .rodata.str1.4
                0x0206c360       0x52 Sms_Apu.o
                                0x188 (size before relaxing)
 *fill*         0x0206c3b2        0x2 ff
 .rodata.str1.4
                0x0206c3b4      0x2dc plug_ogg.o
                                0x2e4 (size before relaxing)
 .rodata.str1.4
                0x0206c690        0x7 info.o
                                  0xc (size before relaxing)
 *fill*         0x0206c697        0x1 ff
 .rodata.str1.4
                0x0206c698      0x1db plug_wav.o
                                0x1ec (size before relaxing)
 *fill*         0x0206c873        0x1 ff
 .rodata.str1.4
                0x0206c874      0x43f plug_jpeg.o
                                0x54c (size before relaxing)
 *fill*         0x0206ccb3        0x1 ff
 .rodata.str1.4
                0x0206ccb4     0x128b jerror.o
                               0x1290 (size before relaxing)
 *fill*         0x0206df3f        0x1 ff
 .rodata.str1.4
                0x0206df40       0xc1 jmemansi.o
                                 0xc8 (size before relaxing)
 *fill*         0x0206e001        0x3 ff
 .rodata.str1.4
                0x0206e004      0x450 plug_png.o
                                0x458 (size before relaxing)
 .rodata.str1.4
                0x0206e454      0x139 png.o
                                0x17c (size before relaxing)
 *fill*         0x0206e58d        0x3 ff
 .rodata.str1.4
                0x0206e590       0x86 pngget.o
                                 0x88 (size before relaxing)
 *fill*         0x0206e616        0x2 ff
 .rodata.str1.4
                0x0206e618        0xf pngmem.o
                                 0x10 (size before relaxing)
 *fill*         0x0206e627        0x1 ff
 .rodata.str1.4
                0x0206e628      0x2e1 pngread.o
                                0x2ec (size before relaxing)
 *fill*         0x0206e909        0x3 ff
 .rodata.str1.4
                0x0206e90c       0x92 pngrio.o
                                 0x94 (size before relaxing)
 *fill*         0x0206e99e        0x2 ff
 .rodata.str1.4
                0x0206e9a0       0xb6 pngrtran.o
                                 0xb8 (size before relaxing)
 *fill*         0x0206ea56        0x2 ff
 .rodata.str1.4
                0x0206ea58      0xdae pngrutil.o
                                0xde0 (size before relaxing)
 *fill*         0x0206f806        0x2 ff
 .rodata.str1.4
                0x0206f808      0x40d pngset.o
                                0x410 (size before relaxing)
 *fill*         0x0206fc15        0x3 ff
 .rodata.str1.4
                0x0206fc18       0xa9 plug_bmp.o
                                0x214 (size before relaxing)
 *fill*         0x0206fcc1        0x3 ff
 .rodata.str1.4
                0x0206fcc4      0x1e2 plug_gif.o
                                0x220 (size before relaxing)
 *fill*         0x0206fea6        0x2 ff
 .rodata.str1.4
                0x0206fea8        0x7 dgif_lib.o
                                  0x8 (size before relaxing)
 *fill*         0x0206feaf        0x1 ff
 .rodata.str1.4
                0x0206feb0      0x1dc plug_psd.o
                                0x21c (size before relaxing)
 .rodata.str1.4
                0x0207008c      0x184 clibdpg.o
 .rodata.str1.4
                0x02070210      0x36d clibmpg.o
                                0x370 (size before relaxing)
 *fill*         0x0207057d        0x3 ff
 .rodata.str1.4
                0x02070580      0x110 plug_dpg.o
 .rodata.str1.4
                0x02070690       0xa0 plug_mp2.o
 .rodata.str1.4
                0x02070730       0x3f _dpgfs.o
                                 0xd0 (size before relaxing)
 *fill*         0x0207076f        0x1 ff
 .rodata.str1.4
                0x02070770       0x7a plug_srttitle.o
                                 0x7c (size before relaxing)
 *fill*         0x020707ea        0x2 ff
 .rodata.str1.4
                0x020707ec      0x4c5 plug_ndsrom.o
                                0x5b8 (size before relaxing)
 *fill*         0x02070cb1        0x3 ff
 .rodata.str1.4
                0x02070cb4       0xec Blip_Buffer.o
                                0x100 (size before relaxing)
 .rodata.str1.4
                0x02070da0       0xa8 Classic_Emu.o
                                0x16c (size before relaxing)
 .rodata.str1.4
                0x02070e48       0x5f Data_Reader.o
                                 0x60 (size before relaxing)
 *fill*         0x02070ea7        0x1 ff
 .rodata.str1.4
                0x02070ea8       0x67 Effects_Buffer.o
                                 0xd0 (size before relaxing)
 *fill*         0x02070f0f        0x1 ff
 .rodata.str1.4
                0x02070f10       0x9e Gme_File.o
                                0x17c (size before relaxing)
 *fill*         0x02070fae        0x2 ff
 .rodata._ZTV13Silent_Buffer
                0x02070fb0       0x38 Multi_Buffer.o
                0x02070fb0                vtable for Silent_Buffer
 .rodata.str1.4
                0x02070fe8       0x59 Multi_Buffer.o
                                 0x5c (size before relaxing)
 *fill*         0x02071041        0x3 ff
 .rodata.str1.4
                0x02071044      0x13c Music_Emu.o
                                0x15c (size before relaxing)
 .rodata.str1.4
                0x02071180       0xb7 _console.o
                                 0xb8 (size before relaxing)
 *fill*         0x02071237        0x1 ff
 .rodata.str1.4
                0x02071238       0x13 _consoleWriteLog.o
                                 0x14 (size before relaxing)
 *fill*         0x0207124b        0x1 ff
 .rodata.str1.4
                0x0207124c      0xa00 main.o
                                0xaf4 (size before relaxing)
 .rodata.str1.4
                0x02071c4c       0x37 cglb15.o
                                 0x38 (size before relaxing)
 *fill*         0x02071c83        0x1 ff
 .rodata.str1.4
                0x02071c84       0x3a cglcanvas.o
                                 0x3c (size before relaxing)
 *fill*         0x02071cbe        0x2 ff
 .rodata.str1.4
                0x02071cc0      0x279 OverlayManager.o
                                0x2cc (size before relaxing)
 *fill*         0x02071f39        0x3 ff
 .rodata.str1.4
                0x02071f3c      0x4ec memtool.o
                                0x510 (size before relaxing)
 .rodata.str1.4
                0x02072428      0x6f6 shell.o
                                0x7b4 (size before relaxing)
 *fill*         0x02072b1e        0x2 ff
 .rodata.str1.4
                0x02072b20       0x8d sndeff_dfs.o
                                 0xdc (size before relaxing)
 *fill*         0x02072bad        0x3 ff
 .rodata.str1.4
                0x02072bb0       0x38 strtool.o
 .rodata.str1.4
                0x02072be8       0x38 unicode.o
 .rodata.str1.4
                0x02072c20      0x15f zlibhelp.o
                                0x168 (size before relaxing)
 *fill*         0x02072d7f        0x1 ff
 .rodata.str1.4
                0x02072d80      0x208 disc_io.o
                                0x26c (size before relaxing)
 .rodata.str1.4
                0x02072f88      0x56a fat2.o
                                0x578 (size before relaxing)
 *fill*         0x020734f2        0x2 ff
 .rodata.str1.4
                0x020734f4     0x109d gba_nds_fat.o
                               0x1140 (size before relaxing)
 *fill*         0x02074591        0x3 ff
 .rodata.str1.4
                0x02074594      0x128 Dual_Resampler.o
                                0x190 (size before relaxing)
 .rodata.str1.4
                0x00000000       0x68 Fir_Resampler.o
 *fill*         0x020746bc        0x4 ff
 .rodata._ZTV8Gym_File
                0x020746c0       0x50 Gym_Emu.o
                0x020746c0                vtable for Gym_File
 .rodata.str1.4
                0x02074710       0xcc Gym_Emu.o
                                0x160 (size before relaxing)
 *fill*         0x020747dc        0x4 ff
 .rodata._ZTV9Nsfe_File
                0x020747e0       0x50 Nsfe_Emu.o
                0x020747e0                vtable for Nsfe_File
 .rodata.str1.4
                0x02074830        0xd Nsfe_Emu.o
                                 0xec (size before relaxing)
 *fill*         0x0207483d        0x3 ff
 .rodata.str1.4
                0x02074840      0x102 Snes_Spc.o
                                0x138 (size before relaxing)
 .rodata.str1.4
                0x00000000       0x68 Spc_Cpu.o
 *fill*         0x02074942        0x2 ff
 .rodata.str1.4
                0x02074944       0x6e Spc_Dsp.o
                                 0xd8 (size before relaxing)
 *fill*         0x020749b2        0x6 ff
 .rodata._ZTV8Spc_File
                0x020749b8       0x50 Spc_Emu.o
                0x020749b8                vtable for Spc_File
 .rodata.str1.4
                0x02074a08       0x56 Spc_Emu.o
                                0x1a4 (size before relaxing)
 *fill*         0x02074a5e        0x2 ff
 .rodata._ZTV8Vgm_File
                0x02074a60       0x50 Vgm_Emu.o
                0x02074a60                vtable for Vgm_File
 .rodata.str1.4
                0x02074ab0       0x48 Vgm_Emu.o
                                0x11c (size before relaxing)
 .rodata.str1.4
                0x02074af8       0xac Vgm_Emu_Impl.o
                                0x198 (size before relaxing)
 .rodata.str1.4
                0x02074ba4       0x79 Ym2612_Emu.o
                                 0xa4 (size before relaxing)
 *fill*         0x02074c1d        0x3 ff
 .rodata.str1.4
                0x02074c20      0x116 infback.o
                                0x118 (size before relaxing)
 .rodata.str1.4
                0x00000000       0x54 inffast.o
 *fill*         0x02074d36        0x2 ff
 .rodata.str1.4
                0x02074d38       0x5d inflate.o
                                0x178 (size before relaxing)
 *fill*         0x02074d95        0x3 ff
 .rodata.str1.4
                0x02074d98       0x7d zutil.o
                                 0x8c (size before relaxing)
 *fill*         0x02074e15        0x3 ff
 .rodata.str1.4
                0x02074e18       0x3b /opt/devkitpro/devkitARM/lib/gcc/arm-none-eabi/4.7.1/../../../../arm-none-eabi/lib/libstdc++.a(pure.o)
                                 0x3c (size before relaxing)
 *fill*         0x02074e53        0x5 ff
 .rodata._ZTVSt9bad_alloc
                0x02074e58       0x18 /opt/devkitpro/devkitARM/lib/gcc/arm-none-eabi/4.7.1/../../../../arm-none-eabi/lib/libstdc++.a(bad_alloc.o)
                0x02074e58                vtable for std::bad_alloc
 .rodata._ZTISt9bad_alloc
                0x02074e70        0xc /opt/devkitpro/devkitARM/lib/gcc/arm-none-eabi/4.7.1/../../../../arm-none-eabi/lib/libstdc++.a(bad_alloc.o)
                0x02074e70                typeinfo for std::bad_alloc
 .rodata.str1.4
                0x02074e7c        0xf /opt/devkitpro/devkitARM/lib/gcc/arm-none-eabi/4.7.1/../../../../arm-none-eabi/lib/libstdc++.a(bad_alloc.o)
                                 0x10 (size before relaxing)
 *fill*         0x02074e8b        0x1 ff
 .rodata._ZTSSt9bad_alloc
                0x02074e8c       0x10 /opt/devkitpro/devkitARM/lib/gcc/arm-none-eabi/4.7.1/../../../../arm-none-eabi/lib/libstdc++.a(bad_alloc.o)
                0x02074e8c                typeinfo name for std::bad_alloc
 *fill*         0x02074e9c        0x4 ff
 .rodata._ZTVN10__cxxabiv115__forced_unwindE
                0x02074ea0       0x18 /opt/devkitpro/devkitARM/lib/gcc/arm-none-eabi/4.7.1/../../../../arm-none-eabi/lib/libstdc++.a(eh_exception.o)
                0x02074ea0                vtable for __cxxabiv1::__forced_unwind
 .rodata._ZTVSt9exception
                0x02074eb8       0x18 /opt/devkitpro/devkitARM/lib/gcc/arm-none-eabi/4.7.1/../../../../arm-none-eabi/lib/libstdc++.a(eh_exception.o)
                0x02074eb8                vtable for std::exception
 .rodata._ZTIN10__cxxabiv115__forced_unwindE
                0x02074ed0        0x8 /opt/devkitpro/devkitARM/lib/gcc/arm-none-eabi/4.7.1/../../../../arm-none-eabi/lib/libstdc++.a(eh_exception.o)
                0x02074ed0                typeinfo for __cxxabiv1::__forced_unwind
 .rodata._ZTISt9exception
                0x02074ed8        0x8 /opt/devkitpro/devkitARM/lib/gcc/arm-none-eabi/4.7.1/../../../../arm-none-eabi/lib/libstdc++.a(eh_exception.o)
                0x02074ed8                typeinfo for std::exception
 .rodata._ZTSSt13bad_exception
                0x02074ee0       0x14 /opt/devkitpro/devkitARM/lib/gcc/arm-none-eabi/4.7.1/../../../../arm-none-eabi/lib/libstdc++.a(eh_exception.o)
                0x02074ee0                typeinfo name for std::bad_exception
 .rodata.str1.4
                0x02074ef4       0x23 /opt/devkitpro/devkitARM/lib/gcc/arm-none-eabi/4.7.1/../../../../arm-none-eabi/lib/libstdc++.a(eh_exception.o)
                                 0x24 (size before relaxing)
 *fill*         0x02074f17        0x1 ff
 .rodata._ZTSN10__cxxabiv119__foreign_exceptionE
                0x02074f18       0x24 /opt/devkitpro/devkitARM/lib/gcc/arm-none-eabi/4.7.1/../../../../arm-none-eabi/lib/libstdc++.a(eh_exception.o)
                0x02074f18                typeinfo name for __cxxabiv1::__foreign_exception
 .rodata._ZTIN10__cxxabiv119__foreign_exceptionE
                0x02074f3c        0x8 /opt/devkitpro/devkitARM/lib/gcc/arm-none-eabi/4.7.1/../../../../arm-none-eabi/lib/libstdc++.a(eh_exception.o)
                0x02074f3c                typeinfo for __cxxabiv1::__foreign_exception
 *fill*         0x02074f44        0x4 ff
 .rodata._ZTVSt13bad_exception
                0x02074f48       0x18 /opt/devkitpro/devkitARM/lib/gcc/arm-none-eabi/4.7.1/../../../../arm-none-eabi/lib/libstdc++.a(eh_exception.o)
                0x02074f48                vtable for std::bad_exception
 .rodata._ZTSSt9exception
                0x02074f60       0x10 /opt/devkitpro/devkitARM/lib/gcc/arm-none-eabi/4.7.1/../../../../arm-none-eabi/lib/libstdc++.a(eh_exception.o)
                0x02074f60                typeinfo name for std::exception
 .rodata._ZTVN10__cxxabiv119__foreign_exceptionE
                0x02074f70       0x18 /opt/devkitpro/devkitARM/lib/gcc/arm-none-eabi/4.7.1/../../../../arm-none-eabi/lib/libstdc++.a(eh_exception.o)
                0x02074f70                vtable for __cxxabiv1::__foreign_exception
 .rodata._ZTSN10__cxxabiv115__forced_unwindE
                0x02074f88       0x20 /opt/devkitpro/devkitARM/lib/gcc/arm-none-eabi/4.7.1/../../../../arm-none-eabi/lib/libstdc++.a(eh_exception.o)
                0x02074f88                typeinfo name for __cxxabiv1::__forced_unwind
 .rodata._ZTISt13bad_exception
                0x02074fa8        0xc /opt/devkitpro/devkitARM/lib/gcc/arm-none-eabi/4.7.1/../../../../arm-none-eabi/lib/libstdc++.a(eh_exception.o)
                0x02074fa8                typeinfo for std::bad_exception
 .rodata._ZSt7nothrow
                0x02074fb4        0x4 /opt/devkitpro/devkitARM/lib/gcc/arm-none-eabi/4.7.1/../../../../arm-none-eabi/lib/libstdc++.a(new_handler.o)
                0x02074fb4                std::nothrow
 .rodata._ZTVN10__cxxabiv120__si_class_type_infoE
                0x02074fb8       0x30 /opt/devkitpro/devkitARM/lib/gcc/arm-none-eabi/4.7.1/../../../../arm-none-eabi/lib/libstdc++.a(si_class_type_info.o)
                0x02074fb8                vtable for __cxxabiv1::__si_class_type_info
 .rodata._ZTIN10__cxxabiv120__si_class_type_infoE
                0x02074fe8        0xc /opt/devkitpro/devkitARM/lib/gcc/arm-none-eabi/4.7.1/../../../../arm-none-eabi/lib/libstdc++.a(si_class_type_info.o)
                0x02074fe8                typeinfo for __cxxabiv1::__si_class_type_info
 .rodata._ZTSN10__cxxabiv120__si_class_type_infoE
                0x02074ff4       0x28 /opt/devkitpro/devkitARM/lib/gcc/arm-none-eabi/4.7.1/../../../../arm-none-eabi/lib/libstdc++.a(si_class_type_info.o)
                0x02074ff4                typeinfo name for __cxxabiv1::__si_class_type_info
 .rodata._ZTISt9type_info
                0x0207501c        0x8 /opt/devkitpro/devkitARM/lib/gcc/arm-none-eabi/4.7.1/../../../../arm-none-eabi/lib/libstdc++.a(tinfo.o)
                0x0207501c                typeinfo for std::type_info
 .rodata._ZTSSt9type_info
                0x02075024       0x10 /opt/devkitpro/devkitARM/lib/gcc/arm-none-eabi/4.7.1/../../../../arm-none-eabi/lib/libstdc++.a(tinfo.o)
                0x02075024                typeinfo name for std::type_info
 *fill*         0x02075034        0x4 ff
 .rodata._ZTVSt9type_info
                0x02075038       0x20 /opt/devkitpro/devkitARM/lib/gcc/arm-none-eabi/4.7.1/../../../../arm-none-eabi/lib/libstdc++.a(tinfo.o)
                0x02075038                vtable for std::type_info
 .rodata._ZTVN10__cxxabiv117__class_type_infoE
                0x02075058       0x30 /opt/devkitpro/devkitARM/lib/gcc/arm-none-eabi/4.7.1/../../../../arm-none-eabi/lib/libstdc++.a(class_type_info.o)
                0x02075058                vtable for __cxxabiv1::__class_type_info
 .rodata._ZTIN10__cxxabiv117__class_type_infoE
                0x02075088        0xc /opt/devkitpro/devkitARM/lib/gcc/arm-none-eabi/4.7.1/../../../../arm-none-eabi/lib/libstdc++.a(class_type_info.o)
                0x02075088                typeinfo for __cxxabiv1::__class_type_info
 .rodata._ZTSN10__cxxabiv117__class_type_infoE
                0x02075094       0x24 /opt/devkitpro/devkitARM/lib/gcc/arm-none-eabi/4.7.1/../../../../arm-none-eabi/lib/libstdc++.a(class_type_info.o)
                0x02075094                typeinfo name for __cxxabiv1::__class_type_info
 .rodata.str1.4
                0x020750b8       0x90 /opt/devkitpro/devkitARM/lib/gcc/arm-none-eabi/4.7.1/../../../../arm-none-eabi/lib/libstdc++.a(vterminate.o)
                                 0x94 (size before relaxing)
 .rodata.str1.4
                0x02075148      0x6fb /opt/devkitpro/devkitARM/lib/gcc/arm-none-eabi/4.7.1/../../../../arm-none-eabi/lib/libstdc++.a(cp-demangle.o)
                                0x7b4 (size before relaxing)
 *fill*         0x02075843        0x1 ff
 .rodata.str1.4
                0x02075844        0x5 /opt/devkitpro/devkitARM/lib/gcc/arm-none-eabi/4.7.1/../../../../arm-none-eabi/lib/libm.a(lib_a-w_fmod.o)
                                  0x8 (size before relaxing)
 *fill*         0x02075849        0x3 ff
 .rodata.str1.4
                0x0207584c        0x6 /opt/devkitpro/devkitARM/lib/gcc/arm-none-eabi/4.7.1/../../../../arm-none-eabi/lib/libm.a(lib_a-w_log10.o)
                                  0xc (size before relaxing)
 *fill*         0x02075852        0x2 ff
 .rodata.str1.4
                0x02075854        0x4 /opt/devkitpro/devkitARM/lib/gcc/arm-none-eabi/4.7.1/../../../../arm-none-eabi/lib/libm.a(lib_a-w_pow.o)
 .rodata.str1.4
                0x00000000        0x4 /opt/devkitpro/devkitARM/lib/gcc/arm-none-eabi/4.7.1/../../../../arm-none-eabi/lib/libm.a(lib_a-e_pow.o)
 .rodata.str1.4
                0x02075858       0x3f /opt/devkitpro/devkitARM/lib/gcc/arm-none-eabi/4.7.1/../../../../arm-none-eabi/lib/libc.a(lib_a-assert.o)
                                 0x44 (size before relaxing)
 .rodata.str1.4
                0x00000000       0x3f /opt/devkitpro/devkitARM/lib/gcc/arm-none-eabi/4.7.1/../../../../arm-none-eabi/lib/libc.a(lib_a-impure.o)
                                  0x4 (size before relaxing)
 *fill*         0x02075897        0x1 ff
 .rodata.str1.4
                0x02075898        0xa /opt/devkitpro/devkitARM/lib/gcc/arm-none-eabi/4.7.1/../../../../arm-none-eabi/lib/libc.a(lib_a-strtod.o)
                                 0x10 (size before relaxing)
 *fill*         0x020758a2        0x2 ff
 .rodata.str1.4
                0x020758a4       0x3f /opt/devkitpro/devkitARM/lib/gcc/arm-none-eabi/4.7.1/../../../../arm-none-eabi/lib/libc.a(lib_a-svfprintf.o)
                                 0x44 (size before relaxing)
 *fill*         0x020758e3        0x1 ff
 .rodata.str1.4
                0x020758e4        0x5 /opt/devkitpro/devkitARM/lib/gcc/arm-none-eabi/4.7.1/../../../../arm-none-eabi/lib/libc.a(lib_a-svfscanf.o)
                                  0x8 (size before relaxing)
 .rodata.str1.4
                0x00000000       0x30 /opt/devkitpro/devkitARM/lib/gcc/arm-none-eabi/4.7.1/../../../../arm-none-eabi/lib/libc.a(lib_a-vfiprintf.o)
 *fill*         0x020758e9        0x3 ff
 .rodata.str1.4
                0x020758ec       0x10 /opt/devkitpro/devkitARM/lib/gcc/arm-none-eabi/4.7.1/../../../../arm-none-eabi/lib/libc.a(lib_a-dtoa.o)
                                 0x14 (size before relaxing)
 .rodata.str1.4
                0x020758fc       0x1b /opt/devkitpro/devkitARM/lib/gcc/arm-none-eabi/4.7.1/../../../../arm-none-eabi/lib/libc.a(lib_a-gdtoa-gethex.o)
                                 0x1c (size before relaxing)
 *fill*         0x02075917        0x1 ff
 .rodata.str1.4
                0x02075918       0x12 /opt/devkitpro/devkitARM/lib/gcc/arm-none-eabi/4.7.1/../../../../arm-none-eabi/lib/libc.a(lib_a-jp2uc.o)
                                 0x14 (size before relaxing)
 *fill*         0x0207592a        0x2 ff
 .rodata.str1.4
                0x0207592c       0xf8 /opt/devkitpro/devkitARM/lib/gcc/arm-none-eabi/4.7.1/../../../../arm-none-eabi/lib/libc.a(lib_a-locale.o)
                                0x130 (size before relaxing)
 .rodata.str1.4
                0x00000000        0x4 /opt/devkitpro/devkitARM/lib/gcc/arm-none-eabi/4.7.1/../../../../arm-none-eabi/lib/libc.a(lib_a-mbrtowc.o)
 .rodata.str1.4
                0x00000000       0x30 /opt/devkitpro/devkitARM/lib/gcc/arm-none-eabi/4.7.1/../../../../arm-none-eabi/lib/libc.a(lib_a-svfiprintf.o)
 .rodata.str1.4
                0x02075a24        0x8 /opt/devkitpro/devkitARM/lib/gcc/arm-none-eabi/4.7.1/../../../../arm-none-eabi/lib/libsysbase.a(iosupport.o)
 *(.gnu.linkonce.r*)
                0x02075a2c                . = ALIGN (0x4)

.mtcmset.const  0x02075a40      0x788
 .mtcmset.const
                0x02075a40       0x80 header.o
 .mtcmset.const
                0x02075ac0      0x708 slice.o

.OVR_AfterSystem_CONST
                0x020761c8       0xf8
 .OVR_AfterSystem_CONST
                0x020761c8       0xf8 main.o

.ARM.extab      0x020762c0      0x130
 *(.ARM.extab* .gnu.linkonce.armextab.*)
 .ARM.extab.text._ZdlPv
                0x020762c0        0x0 /opt/devkitpro/devkitARM/lib/gcc/arm-none-eabi/4.7.1/../../../../arm-none-eabi/lib/libstdc++.a(del_op.o)
 .ARM.extab.text._Znwj
                0x020762c0       0x20 /opt/devkitpro/devkitARM/lib/gcc/arm-none-eabi/4.7.1/../../../../arm-none-eabi/lib/libstdc++.a(new_op.o)
 .ARM.extab.text.__cxa_pure_virtual
                0x020762e0        0xc /opt/devkitpro/devkitARM/lib/gcc/arm-none-eabi/4.7.1/../../../../arm-none-eabi/lib/libstdc++.a(pure.o)
 .ARM.extab.text.__cxa_deleted_virtual
                0x020762ec        0xc /opt/devkitpro/devkitARM/lib/gcc/arm-none-eabi/4.7.1/../../../../arm-none-eabi/lib/libstdc++.a(pure.o)
 .ARM.extab.text._ZNKSt9bad_alloc4whatEv
                0x020762f8        0x0 /opt/devkitpro/devkitARM/lib/gcc/arm-none-eabi/4.7.1/../../../../arm-none-eabi/lib/libstdc++.a(bad_alloc.o)
 .ARM.extab.text._ZNSt9bad_allocD2Ev
                0x020762f8        0x0 /opt/devkitpro/devkitARM/lib/gcc/arm-none-eabi/4.7.1/../../../../arm-none-eabi/lib/libstdc++.a(bad_alloc.o)
 .ARM.extab.text._ZNSt9bad_allocD0Ev
                0x020762f8        0x0 /opt/devkitpro/devkitARM/lib/gcc/arm-none-eabi/4.7.1/../../../../arm-none-eabi/lib/libstdc++.a(bad_alloc.o)
 .ARM.extab.text.__cxa_allocate_exception
                0x020762f8        0x0 /opt/devkitpro/devkitARM/lib/gcc/arm-none-eabi/4.7.1/../../../../arm-none-eabi/lib/libstdc++.a(eh_alloc.o)
 .ARM.extab.text.__cxa_free_exception
                0x020762f8        0x0 /opt/devkitpro/devkitARM/lib/gcc/arm-none-eabi/4.7.1/../../../../arm-none-eabi/lib/libstdc++.a(eh_alloc.o)
 .ARM.extab.text.__cxa_allocate_dependent_exception
                0x020762f8        0x0 /opt/devkitpro/devkitARM/lib/gcc/arm-none-eabi/4.7.1/../../../../arm-none-eabi/lib/libstdc++.a(eh_alloc.o)
 .ARM.extab.text.__cxa_free_dependent_exception
                0x020762f8        0x0 /opt/devkitpro/devkitARM/lib/gcc/arm-none-eabi/4.7.1/../../../../arm-none-eabi/lib/libstdc++.a(eh_alloc.o)
 .ARM.extab.text.__cxa_type_match
                0x020762f8        0x0 /opt/devkitpro/devkitARM/lib/gcc/arm-none-eabi/4.7.1/../../../../arm-none-eabi/lib/libstdc++.a(eh_arm.o)
 .ARM.extab.text.__cxa_begin_cleanup
                0x020762f8        0x0 /opt/devkitpro/devkitARM/lib/gcc/arm-none-eabi/4.7.1/../../../../arm-none-eabi/lib/libstdc++.a(eh_arm.o)
 .ARM.extab.text.__gnu_end_cleanup
                0x020762f8        0x0 /opt/devkitpro/devkitARM/lib/gcc/arm-none-eabi/4.7.1/../../../../arm-none-eabi/lib/libstdc++.a(eh_arm.o)
 .ARM.extab.text._ZN10__cxxabiv1L24__is_gxx_exception_classEPc
                0x020762f8        0x0 /opt/devkitpro/devkitARM/lib/gcc/arm-none-eabi/4.7.1/../../../../arm-none-eabi/lib/libstdc++.a(eh_call.o)
 .ARM.extab.text.__cxa_call_terminate
                0x020762f8        0x0 /opt/devkitpro/devkitARM/lib/gcc/arm-none-eabi/4.7.1/../../../../arm-none-eabi/lib/libstdc++.a(eh_call.o)
 .ARM.extab.text.__cxa_call_unexpected
                0x020762f8       0x28 /opt/devkitpro/devkitARM/lib/gcc/arm-none-eabi/4.7.1/../../../../arm-none-eabi/lib/libstdc++.a(eh_call.o)
 .ARM.extab.text.__cxa_get_exception_ptr
                0x02076320        0x0 /opt/devkitpro/devkitARM/lib/gcc/arm-none-eabi/4.7.1/../../../../arm-none-eabi/lib/libstdc++.a(eh_catch.o)
 .ARM.extab.text.__cxa_begin_catch
                0x02076320       0x20 /opt/devkitpro/devkitARM/lib/gcc/arm-none-eabi/4.7.1/../../../../arm-none-eabi/lib/libstdc++.a(eh_catch.o)
 .ARM.extab.text.__cxa_end_catch
                0x02076340        0xc /opt/devkitpro/devkitARM/lib/gcc/arm-none-eabi/4.7.1/../../../../arm-none-eabi/lib/libstdc++.a(eh_catch.o)
 .ARM.extab.text._ZSt18uncaught_exceptionv
                0x0207634c        0x0 /opt/devkitpro/devkitARM/lib/gcc/arm-none-eabi/4.7.1/../../../../arm-none-eabi/lib/libstdc++.a(eh_catch.o)
 .ARM.extab.text._ZNSt9exceptionD2Ev
                0x0207634c        0x0 /opt/devkitpro/devkitARM/lib/gcc/arm-none-eabi/4.7.1/../../../../arm-none-eabi/lib/libstdc++.a(eh_exception.o)
 .ARM.extab.text._ZNSt13bad_exceptionD2Ev
                0x0207634c        0x0 /opt/devkitpro/devkitARM/lib/gcc/arm-none-eabi/4.7.1/../../../../arm-none-eabi/lib/libstdc++.a(eh_exception.o)
 .ARM.extab.text._ZN10__cxxabiv115__forced_unwindD2Ev
                0x0207634c        0x0 /opt/devkitpro/devkitARM/lib/gcc/arm-none-eabi/4.7.1/../../../../arm-none-eabi/lib/libstdc++.a(eh_exception.o)
 .ARM.extab.text._ZN10__cxxabiv119__foreign_exceptionD2Ev
                0x0207634c        0x0 /opt/devkitpro/devkitARM/lib/gcc/arm-none-eabi/4.7.1/../../../../arm-none-eabi/lib/libstdc++.a(eh_exception.o)
 .ARM.extab.text._ZNKSt9exception4whatEv
                0x0207634c        0x0 /opt/devkitpro/devkitARM/lib/gcc/arm-none-eabi/4.7.1/../../../../arm-none-eabi/lib/libstdc++.a(eh_exception.o)
 .ARM.extab.text._ZNKSt13bad_exception4whatEv
                0x0207634c        0x0 /opt/devkitpro/devkitARM/lib/gcc/arm-none-eabi/4.7.1/../../../../arm-none-eabi/lib/libstdc++.a(eh_exception.o)
 .ARM.extab.text._ZN10__cxxabiv119__foreign_exceptionD0Ev
                0x0207634c        0x0 /opt/devkitpro/devkitARM/lib/gcc/arm-none-eabi/4.7.1/../../../../arm-none-eabi/lib/libstdc++.a(eh_exception.o)
 .ARM.extab.text._ZN10__cxxabiv115__forced_unwindD0Ev
                0x0207634c        0x0 /opt/devkitpro/devkitARM/lib/gcc/arm-none-eabi/4.7.1/../../../../arm-none-eabi/lib/libstdc++.a(eh_exception.o)
 .ARM.extab.text._ZNSt9exceptionD0Ev
                0x0207634c        0x0 /opt/devkitpro/devkitARM/lib/gcc/arm-none-eabi/4.7.1/../../../../arm-none-eabi/lib/libstdc++.a(eh_exception.o)
 .ARM.extab.text._ZNSt13bad_exceptionD0Ev
                0x0207634c        0x0 /opt/devkitpro/devkitARM/lib/gcc/arm-none-eabi/4.7.1/../../../../arm-none-eabi/lib/libstdc++.a(eh_exception.o)
 .ARM.extab.text.__cxa_get_globals_fast
                0x0207634c        0x0 /opt/devkitpro/devkitARM/lib/gcc/arm-none-eabi/4.7.1/../../../../arm-none-eabi/lib/libstdc++.a(eh_globals.o)
 .ARM.extab.text.__cxa_get_globals
                0x0207634c        0x0 /opt/devkitpro/devkitARM/lib/gcc/arm-none-eabi/4.7.1/../../../../arm-none-eabi/lib/libstdc++.a(eh_globals.o)
 .ARM.extab.text._ZL12read_sleb128PKhPl
                0x0207634c        0x0 /opt/devkitpro/devkitARM/lib/gcc/arm-none-eabi/4.7.1/../../../../arm-none-eabi/lib/libstdc++.a(eh_personality.o)
 .ARM.extab.text._ZL28read_encoded_value_with_basehjPKhPj
                0x0207634c        0x0 /opt/devkitpro/devkitARM/lib/gcc/arm-none-eabi/4.7.1/../../../../arm-none-eabi/lib/libstdc++.a(eh_personality.o)
 .ARM.extab.text._ZL21base_of_encoded_valuehP15_Unwind_Context
                0x0207634c        0xc /opt/devkitpro/devkitARM/lib/gcc/arm-none-eabi/4.7.1/../../../../arm-none-eabi/lib/libstdc++.a(eh_personality.o)
 .ARM.extab.text._ZL17parse_lsda_headerP15_Unwind_ContextPKhP16lsda_header_info
                0x02076358        0x0 /opt/devkitpro/devkitARM/lib/gcc/arm-none-eabi/4.7.1/../../../../arm-none-eabi/lib/libstdc++.a(eh_personality.o)
 .ARM.extab.text.__gxx_personality_v0
                0x02076358       0x20 /opt/devkitpro/devkitARM/lib/gcc/arm-none-eabi/4.7.1/../../../../arm-none-eabi/lib/libstdc++.a(eh_personality.o)
 .ARM.extab.text._ZN10__cxxabiv111__terminateEPFvvE
                0x02076378       0x2c /opt/devkitpro/devkitARM/lib/gcc/arm-none-eabi/4.7.1/../../../../arm-none-eabi/lib/libstdc++.a(eh_terminate.o)
 .ARM.extab.text._ZSt9terminatev
                0x020763a4        0x0 /opt/devkitpro/devkitARM/lib/gcc/arm-none-eabi/4.7.1/../../../../arm-none-eabi/lib/libstdc++.a(eh_terminate.o)
 .ARM.extab.text._ZN10__cxxabiv112__unexpectedEPFvvE
                0x020763a4        0xc /opt/devkitpro/devkitARM/lib/gcc/arm-none-eabi/4.7.1/../../../../arm-none-eabi/lib/libstdc++.a(eh_terminate.o)
 .ARM.extab.text._ZSt10unexpectedv
                0x020763b0        0xc /opt/devkitpro/devkitARM/lib/gcc/arm-none-eabi/4.7.1/../../../../arm-none-eabi/lib/libstdc++.a(eh_terminate.o)
 .ARM.extab.text._ZSt13set_terminatePFvvE
                0x020763bc        0x0 /opt/devkitpro/devkitARM/lib/gcc/arm-none-eabi/4.7.1/../../../../arm-none-eabi/lib/libstdc++.a(eh_terminate.o)
 .ARM.extab.text._ZSt14set_unexpectedPFvvE
                0x020763bc        0x0 /opt/devkitpro/devkitARM/lib/gcc/arm-none-eabi/4.7.1/../../../../arm-none-eabi/lib/libstdc++.a(eh_terminate.o)
 .ARM.extab.text._ZL23__gxx_exception_cleanup19_Unwind_Reason_CodeP21_Unwind_Control_Block
                0x020763bc        0x0 /opt/devkitpro/devkitARM/lib/gcc/arm-none-eabi/4.7.1/../../../../arm-none-eabi/lib/libstdc++.a(eh_throw.o)
 .ARM.extab.text.__cxa_throw
                0x020763bc        0x0 /opt/devkitpro/devkitARM/lib/gcc/arm-none-eabi/4.7.1/../../../../arm-none-eabi/lib/libstdc++.a(eh_throw.o)
 .ARM.extab.text.__cxa_rethrow
                0x020763bc        0x0 /opt/devkitpro/devkitARM/lib/gcc/arm-none-eabi/4.7.1/../../../../arm-none-eabi/lib/libstdc++.a(eh_throw.o)
 .ARM.extab.text._ZSt15set_new_handlerPFvvE
                0x020763bc        0x0 /opt/devkitpro/devkitARM/lib/gcc/arm-none-eabi/4.7.1/../../../../arm-none-eabi/lib/libstdc++.a(new_handler.o)
 .ARM.extab.text._ZNK10__cxxabiv120__si_class_type_info12__do_dyncastEiNS_17__class_type_info10__sub_kindEPKS1_PKvS4_S6_RNS1_16__dyncast_resultE
                0x020763bc        0x0 /opt/devkitpro/devkitARM/lib/gcc/arm-none-eabi/4.7.1/../../../../arm-none-eabi/lib/libstdc++.a(si_class_type_info.o)
 .ARM.extab.text._ZN10__cxxabiv120__si_class_type_infoD2Ev
                0x020763bc        0x0 /opt/devkitpro/devkitARM/lib/gcc/arm-none-eabi/4.7.1/../../../../arm-none-eabi/lib/libstdc++.a(si_class_type_info.o)
 .ARM.extab.text._ZN10__cxxabiv120__si_class_type_infoD0Ev
                0x020763bc        0x0 /opt/devkitpro/devkitARM/lib/gcc/arm-none-eabi/4.7.1/../../../../arm-none-eabi/lib/libstdc++.a(si_class_type_info.o)
 .ARM.extab.text._ZNK10__cxxabiv120__si_class_type_info11__do_upcastEPKNS_17__class_type_infoEPKvRNS1_15__upcast_resultE
                0x020763bc        0x0 /opt/devkitpro/devkitARM/lib/gcc/arm-none-eabi/4.7.1/../../../../arm-none-eabi/lib/libstdc++.a(si_class_type_info.o)
 .ARM.extab.text._ZNK10__cxxabiv120__si_class_type_info20__do_find_public_srcEiPKvPKNS_17__class_type_infoES2_
                0x020763bc        0x0 /opt/devkitpro/devkitARM/lib/gcc/arm-none-eabi/4.7.1/../../../../arm-none-eabi/lib/libstdc++.a(si_class_type_info.o)
 .ARM.extab.text._ZNSt9type_infoD2Ev
                0x020763bc        0x0 /opt/devkitpro/devkitARM/lib/gcc/arm-none-eabi/4.7.1/../../../../arm-none-eabi/lib/libstdc++.a(tinfo.o)
 .ARM.extab.text._ZNKSt9type_info14__is_pointer_pEv
                0x020763bc        0x0 /opt/devkitpro/devkitARM/lib/gcc/arm-none-eabi/4.7.1/../../../../arm-none-eabi/lib/libstdc++.a(tinfo.o)
 .ARM.extab.text._ZNKSt9type_info15__is_function_pEv
                0x020763bc        0x0 /opt/devkitpro/devkitARM/lib/gcc/arm-none-eabi/4.7.1/../../../../arm-none-eabi/lib/libstdc++.a(tinfo.o)
 .ARM.extab.text._ZNKSt9type_info11__do_upcastEPKN10__cxxabiv117__class_type_infoEPPv
                0x020763bc        0x0 /opt/devkitpro/devkitARM/lib/gcc/arm-none-eabi/4.7.1/../../../../arm-none-eabi/lib/libstdc++.a(tinfo.o)
 .ARM.extab.text._ZNSt9type_infoD0Ev
                0x020763bc        0x0 /opt/devkitpro/devkitARM/lib/gcc/arm-none-eabi/4.7.1/../../../../arm-none-eabi/lib/libstdc++.a(tinfo.o)
 .ARM.extab.text._ZNKSt9type_infoeqERKS_
                0x020763bc        0x0 /opt/devkitpro/devkitARM/lib/gcc/arm-none-eabi/4.7.1/../../../../arm-none-eabi/lib/libstdc++.a(tinfo.o)
 .ARM.extab.text._ZNKSt9type_info10__do_catchEPKS_PPvj
                0x020763bc        0x0 /opt/devkitpro/devkitARM/lib/gcc/arm-none-eabi/4.7.1/../../../../arm-none-eabi/lib/libstdc++.a(tinfo.o)
 .ARM.extab.text._ZNK10__cxxabiv117__class_type_info11__do_upcastEPKS0_PPv
                0x020763bc        0x0 /opt/devkitpro/devkitARM/lib/gcc/arm-none-eabi/4.7.1/../../../../arm-none-eabi/lib/libstdc++.a(class_type_info.o)
 .ARM.extab.text._ZNK10__cxxabiv117__class_type_info20__do_find_public_srcEiPKvPKS0_S2_
                0x020763bc        0x0 /opt/devkitpro/devkitARM/lib/gcc/arm-none-eabi/4.7.1/../../../../arm-none-eabi/lib/libstdc++.a(class_type_info.o)
 .ARM.extab.text._ZNK10__cxxabiv117__class_type_info11__do_upcastEPKS0_PKvRNS0_15__upcast_resultE
                0x020763bc        0x0 /opt/devkitpro/devkitARM/lib/gcc/arm-none-eabi/4.7.1/../../../../arm-none-eabi/lib/libstdc++.a(class_type_info.o)
 .ARM.extab.text._ZN10__cxxabiv117__class_type_infoD2Ev
                0x020763bc        0x0 /opt/devkitpro/devkitARM/lib/gcc/arm-none-eabi/4.7.1/../../../../arm-none-eabi/lib/libstdc++.a(class_type_info.o)
 .ARM.extab.text._ZN10__cxxabiv117__class_type_infoD0Ev
                0x020763bc        0x0 /opt/devkitpro/devkitARM/lib/gcc/arm-none-eabi/4.7.1/../../../../arm-none-eabi/lib/libstdc++.a(class_type_info.o)
 .ARM.extab.text._ZNK10__cxxabiv117__class_type_info12__do_dyncastEiNS0_10__sub_kindEPKS0_PKvS3_S5_RNS0_16__dyncast_resultE
                0x020763bc        0x0 /opt/devkitpro/devkitARM/lib/gcc/arm-none-eabi/4.7.1/../../../../arm-none-eabi/lib/libstdc++.a(class_type_info.o)
 .ARM.extab.text._ZNK10__cxxabiv117__class_type_info10__do_catchEPKSt9type_infoPPvj
                0x020763bc        0x0 /opt/devkitpro/devkitARM/lib/gcc/arm-none-eabi/4.7.1/../../../../arm-none-eabi/lib/libstdc++.a(class_type_info.o)
 .ARM.extab.text._ZN9__gnu_cxx27__verbose_terminate_handlerEv
                0x020763bc       0x34 /opt/devkitpro/devkitARM/lib/gcc/arm-none-eabi/4.7.1/../../../../arm-none-eabi/lib/libstdc++.a(vterminate.o)
 .ARM.extab.text.__cxa_current_exception_type
                0x020763f0        0x0 /opt/devkitpro/devkitARM/lib/gcc/arm-none-eabi/4.7.1/../../../../arm-none-eabi/lib/libstdc++.a(eh_type.o)
                0x020763f0                __exidx_start = .

ARM.exidx       0x020763f0      0x130
 *(.ARM.exidx* .gnu.linkonce.armexidx.*)
 .ARM.exidx.text._ZdlPv
                0x020763f0        0x8 /opt/devkitpro/devkitARM/lib/gcc/arm-none-eabi/4.7.1/../../../../arm-none-eabi/lib/libstdc++.a(del_op.o)
 .ARM.exidx.text._Znwj
                0x020763f8        0x8 /opt/devkitpro/devkitARM/lib/gcc/arm-none-eabi/4.7.1/../../../../arm-none-eabi/lib/libstdc++.a(new_op.o)
 .ARM.exidx.text.__cxa_pure_virtual
                0x02076400        0x8 /opt/devkitpro/devkitARM/lib/gcc/arm-none-eabi/4.7.1/../../../../arm-none-eabi/lib/libstdc++.a(pure.o)
 .ARM.exidx.text.__cxa_deleted_virtual
                0x02076408        0x8 /opt/devkitpro/devkitARM/lib/gcc/arm-none-eabi/4.7.1/../../../../arm-none-eabi/lib/libstdc++.a(pure.o)
 .ARM.exidx.text._ZNKSt9bad_alloc4whatEv
                0x02076410        0x8 /opt/devkitpro/devkitARM/lib/gcc/arm-none-eabi/4.7.1/../../../../arm-none-eabi/lib/libstdc++.a(bad_alloc.o)
 .ARM.exidx.text._ZNSt9bad_allocD2Ev
                0x02076418        0x0 /opt/devkitpro/devkitARM/lib/gcc/arm-none-eabi/4.7.1/../../../../arm-none-eabi/lib/libstdc++.a(bad_alloc.o)
                                  0x8 (size before relaxing)
 .ARM.exidx.text._ZNSt9bad_allocD0Ev
                0x02076418        0x0 /opt/devkitpro/devkitARM/lib/gcc/arm-none-eabi/4.7.1/../../../../arm-none-eabi/lib/libstdc++.a(bad_alloc.o)
                                  0x8 (size before relaxing)
 .ARM.exidx.text.__cxa_allocate_exception
                0x02076418        0x0 /opt/devkitpro/devkitARM/lib/gcc/arm-none-eabi/4.7.1/../../../../arm-none-eabi/lib/libstdc++.a(eh_alloc.o)
                                  0x8 (size before relaxing)
 .ARM.exidx.text.__cxa_free_exception
                0x02076418        0x0 /opt/devkitpro/devkitARM/lib/gcc/arm-none-eabi/4.7.1/../../../../arm-none-eabi/lib/libstdc++.a(eh_alloc.o)
                                  0x8 (size before relaxing)
 .ARM.exidx.text.__cxa_allocate_dependent_exception
                0x02076418        0x0 /opt/devkitpro/devkitARM/lib/gcc/arm-none-eabi/4.7.1/../../../../arm-none-eabi/lib/libstdc++.a(eh_alloc.o)
                                  0x8 (size before relaxing)
 .ARM.exidx.text.__cxa_free_dependent_exception
                0x02076418        0x0 /opt/devkitpro/devkitARM/lib/gcc/arm-none-eabi/4.7.1/../../../../arm-none-eabi/lib/libstdc++.a(eh_alloc.o)
                                  0x8 (size before relaxing)
 .ARM.exidx.text.__cxa_type_match
                0x02076418        0x8 /opt/devkitpro/devkitARM/lib/gcc/arm-none-eabi/4.7.1/../../../../arm-none-eabi/lib/libstdc++.a(eh_arm.o)
 .ARM.exidx.text.__cxa_begin_cleanup
                0x02076420        0x8 /opt/devkitpro/devkitARM/lib/gcc/arm-none-eabi/4.7.1/../../../../arm-none-eabi/lib/libstdc++.a(eh_arm.o)
 .ARM.exidx.text.__gnu_end_cleanup
                0x02076428        0x0 /opt/devkitpro/devkitARM/lib/gcc/arm-none-eabi/4.7.1/../../../../arm-none-eabi/lib/libstdc++.a(eh_arm.o)
                                  0x8 (size before relaxing)
 .ARM.exidx.text._ZN10__cxxabiv1L24__is_gxx_exception_classEPc
                0x02076428        0x0 /opt/devkitpro/devkitARM/lib/gcc/arm-none-eabi/4.7.1/../../../../arm-none-eabi/lib/libstdc++.a(eh_call.o)
                                  0x8 (size before relaxing)
 .ARM.exidx.text.__cxa_call_terminate
                0x02076428        0x0 /opt/devkitpro/devkitARM/lib/gcc/arm-none-eabi/4.7.1/../../../../arm-none-eabi/lib/libstdc++.a(eh_call.o)
                                  0x8 (size before relaxing)
 .ARM.exidx.text.__cxa_call_unexpected
                0x02076428        0x8 /opt/devkitpro/devkitARM/lib/gcc/arm-none-eabi/4.7.1/../../../../arm-none-eabi/lib/libstdc++.a(eh_call.o)
 .ARM.exidx.text.__cxa_get_exception_ptr
                0x02076430        0x8 /opt/devkitpro/devkitARM/lib/gcc/arm-none-eabi/4.7.1/../../../../arm-none-eabi/lib/libstdc++.a(eh_catch.o)
 .ARM.exidx.text.__cxa_begin_catch
                0x02076438        0x8 /opt/devkitpro/devkitARM/lib/gcc/arm-none-eabi/4.7.1/../../../../arm-none-eabi/lib/libstdc++.a(eh_catch.o)
 .ARM.exidx.text.__cxa_end_catch
                0x02076440        0x8 /opt/devkitpro/devkitARM/lib/gcc/arm-none-eabi/4.7.1/../../../../arm-none-eabi/lib/libstdc++.a(eh_catch.o)
 .ARM.exidx.text._ZSt18uncaught_exceptionv
                0x02076448        0x8 /opt/devkitpro/devkitARM/lib/gcc/arm-none-eabi/4.7.1/../../../../arm-none-eabi/lib/libstdc++.a(eh_catch.o)
 .ARM.exidx.text._ZNSt9exceptionD2Ev
                0x02076450        0x0 /opt/devkitpro/devkitARM/lib/gcc/arm-none-eabi/4.7.1/../../../../arm-none-eabi/lib/libstdc++.a(eh_exception.o)
                                  0x8 (size before relaxing)
 .ARM.exidx.text._ZNSt13bad_exceptionD2Ev
                0x02076450        0x0 /opt/devkitpro/devkitARM/lib/gcc/arm-none-eabi/4.7.1/../../../../arm-none-eabi/lib/libstdc++.a(eh_exception.o)
                                  0x8 (size before relaxing)
 .ARM.exidx.text._ZN10__cxxabiv115__forced_unwindD2Ev
                0x02076450        0x0 /opt/devkitpro/devkitARM/lib/gcc/arm-none-eabi/4.7.1/../../../../arm-none-eabi/lib/libstdc++.a(eh_exception.o)
                                  0x8 (size before relaxing)
 .ARM.exidx.text._ZN10__cxxabiv119__foreign_exceptionD2Ev
                0x02076450        0x0 /opt/devkitpro/devkitARM/lib/gcc/arm-none-eabi/4.7.1/../../../../arm-none-eabi/lib/libstdc++.a(eh_exception.o)
                                  0x8 (size before relaxing)
 .ARM.exidx.text._ZNKSt9exception4whatEv
                0x02076450        0x0 /opt/devkitpro/devkitARM/lib/gcc/arm-none-eabi/4.7.1/../../../../arm-none-eabi/lib/libstdc++.a(eh_exception.o)
                                  0x8 (size before relaxing)
 .ARM.exidx.text._ZNKSt13bad_exception4whatEv
                0x02076450        0x0 /opt/devkitpro/devkitARM/lib/gcc/arm-none-eabi/4.7.1/../../../../arm-none-eabi/lib/libstdc++.a(eh_exception.o)
                                  0x8 (size before relaxing)
 .ARM.exidx.text._ZN10__cxxabiv119__foreign_exceptionD0Ev
                0x02076450        0x0 /opt/devkitpro/devkitARM/lib/gcc/arm-none-eabi/4.7.1/../../../../arm-none-eabi/lib/libstdc++.a(eh_exception.o)
                                  0x8 (size before relaxing)
 .ARM.exidx.text._ZN10__cxxabiv115__forced_unwindD0Ev
                0x02076450        0x0 /opt/devkitpro/devkitARM/lib/gcc/arm-none-eabi/4.7.1/../../../../arm-none-eabi/lib/libstdc++.a(eh_exception.o)
                                  0x8 (size before relaxing)
 .ARM.exidx.text._ZNSt9exceptionD0Ev
                0x02076450        0x0 /opt/devkitpro/devkitARM/lib/gcc/arm-none-eabi/4.7.1/../../../../arm-none-eabi/lib/libstdc++.a(eh_exception.o)
                                  0x8 (size before relaxing)
 .ARM.exidx.text._ZNSt13bad_exceptionD0Ev
                0x02076450        0x0 /opt/devkitpro/devkitARM/lib/gcc/arm-none-eabi/4.7.1/../../../../arm-none-eabi/lib/libstdc++.a(eh_exception.o)
                                  0x8 (size before relaxing)
 .ARM.exidx.text.__cxa_get_globals_fast
                0x02076450        0x0 /opt/devkitpro/devkitARM/lib/gcc/arm-none-eabi/4.7.1/../../../../arm-none-eabi/lib/libstdc++.a(eh_globals.o)
                                  0x8 (size before relaxing)
 .ARM.exidx.text.__cxa_get_globals
                0x02076450        0x0 /opt/devkitpro/devkitARM/lib/gcc/arm-none-eabi/4.7.1/../../../../arm-none-eabi/lib/libstdc++.a(eh_globals.o)
                                  0x8 (size before relaxing)
 .ARM.exidx.text._ZL12read_sleb128PKhPl
                0x02076450        0x0 /opt/devkitpro/devkitARM/lib/gcc/arm-none-eabi/4.7.1/../../../../arm-none-eabi/lib/libstdc++.a(eh_personality.o)
                                  0x8 (size before relaxing)
 .ARM.exidx.text._ZL28read_encoded_value_with_basehjPKhPj
                0x02076450        0x8 /opt/devkitpro/devkitARM/lib/gcc/arm-none-eabi/4.7.1/../../../../arm-none-eabi/lib/libstdc++.a(eh_personality.o)
 .ARM.exidx.text._ZL21base_of_encoded_valuehP15_Unwind_Context
                0x02076458        0x8 /opt/devkitpro/devkitARM/lib/gcc/arm-none-eabi/4.7.1/../../../../arm-none-eabi/lib/libstdc++.a(eh_personality.o)
 .ARM.exidx.text._ZL17parse_lsda_headerP15_Unwind_ContextPKhP16lsda_header_info
                0x02076460        0x8 /opt/devkitpro/devkitARM/lib/gcc/arm-none-eabi/4.7.1/../../../../arm-none-eabi/lib/libstdc++.a(eh_personality.o)
 .ARM.exidx.text.__gxx_personality_v0
                0x02076468        0x8 /opt/devkitpro/devkitARM/lib/gcc/arm-none-eabi/4.7.1/../../../../arm-none-eabi/lib/libstdc++.a(eh_personality.o)
 .ARM.exidx.text._ZN10__cxxabiv111__terminateEPFvvE
                0x02076470        0x8 /opt/devkitpro/devkitARM/lib/gcc/arm-none-eabi/4.7.1/../../../../arm-none-eabi/lib/libstdc++.a(eh_terminate.o)
 .ARM.exidx.text._ZSt9terminatev
                0x02076478        0x8 /opt/devkitpro/devkitARM/lib/gcc/arm-none-eabi/4.7.1/../../../../arm-none-eabi/lib/libstdc++.a(eh_terminate.o)
 .ARM.exidx.text._ZN10__cxxabiv112__unexpectedEPFvvE
                0x02076480        0x8 /opt/devkitpro/devkitARM/lib/gcc/arm-none-eabi/4.7.1/../../../../arm-none-eabi/lib/libstdc++.a(eh_terminate.o)
 .ARM.exidx.text._ZSt10unexpectedv
                0x02076488        0x8 /opt/devkitpro/devkitARM/lib/gcc/arm-none-eabi/4.7.1/../../../../arm-none-eabi/lib/libstdc++.a(eh_terminate.o)
 .ARM.exidx.text._ZSt13set_terminatePFvvE
                0x02076490        0x8 /opt/devkitpro/devkitARM/lib/gcc/arm-none-eabi/4.7.1/../../../../arm-none-eabi/lib/libstdc++.a(eh_terminate.o)
 .ARM.exidx.text._ZSt14set_unexpectedPFvvE
                0x02076498        0x0 /opt/devkitpro/devkitARM/lib/gcc/arm-none-eabi/4.7.1/../../../../arm-none-eabi/lib/libstdc++.a(eh_terminate.o)
                                  0x8 (size before relaxing)
 .ARM.exidx.text._ZL23__gxx_exception_cleanup19_Unwind_Reason_CodeP21_Unwind_Control_Block
                0x02076498        0x8 /opt/devkitpro/devkitARM/lib/gcc/arm-none-eabi/4.7.1/../../../../arm-none-eabi/lib/libstdc++.a(eh_throw.o)
 .ARM.exidx.text.__cxa_throw
                0x020764a0        0x8 /opt/devkitpro/devkitARM/lib/gcc/arm-none-eabi/4.7.1/../../../../arm-none-eabi/lib/libstdc++.a(eh_throw.o)
 .ARM.exidx.text.__cxa_rethrow
                0x020764a8        0x8 /opt/devkitpro/devkitARM/lib/gcc/arm-none-eabi/4.7.1/../../../../arm-none-eabi/lib/libstdc++.a(eh_throw.o)
 .ARM.exidx.text._ZSt15set_new_handlerPFvvE
                0x020764b0        0x8 /opt/devkitpro/devkitARM/lib/gcc/arm-none-eabi/4.7.1/../../../../arm-none-eabi/lib/libstdc++.a(new_handler.o)
 .ARM.exidx.text._ZNK10__cxxabiv120__si_class_type_info12__do_dyncastEiNS_17__class_type_info10__sub_kindEPKS1_PKvS4_S6_RNS1_16__dyncast_resultE
                0x020764b8        0x8 /opt/devkitpro/devkitARM/lib/gcc/arm-none-eabi/4.7.1/../../../../arm-none-eabi/lib/libstdc++.a(si_class_type_info.o)
 .ARM.exidx.text._ZN10__cxxabiv120__si_class_type_infoD2Ev
                0x020764c0        0x8 /opt/devkitpro/devkitARM/lib/gcc/arm-none-eabi/4.7.1/../../../../arm-none-eabi/lib/libstdc++.a(si_class_type_info.o)
 .ARM.exidx.text._ZN10__cxxabiv120__si_class_type_infoD0Ev
                0x020764c8        0x0 /opt/devkitpro/devkitARM/lib/gcc/arm-none-eabi/4.7.1/../../../../arm-none-eabi/lib/libstdc++.a(si_class_type_info.o)
                                  0x8 (size before relaxing)
 .ARM.exidx.text._ZNK10__cxxabiv120__si_class_type_info11__do_upcastEPKNS_17__class_type_infoEPKvRNS1_15__upcast_resultE
                0x020764c8        0x8 /opt/devkitpro/devkitARM/lib/gcc/arm-none-eabi/4.7.1/../../../../arm-none-eabi/lib/libstdc++.a(si_class_type_info.o)
 .ARM.exidx.text._ZNK10__cxxabiv120__si_class_type_info20__do_find_public_srcEiPKvPKNS_17__class_type_infoES2_
                0x020764d0        0x8 /opt/devkitpro/devkitARM/lib/gcc/arm-none-eabi/4.7.1/../../../../arm-none-eabi/lib/libstdc++.a(si_class_type_info.o)
 .ARM.exidx.text._ZNSt9type_infoD2Ev
                0x020764d8        0x8 /opt/devkitpro/devkitARM/lib/gcc/arm-none-eabi/4.7.1/../../../../arm-none-eabi/lib/libstdc++.a(tinfo.o)
 .ARM.exidx.text._ZNKSt9type_info14__is_pointer_pEv
                0x020764e0        0x0 /opt/devkitpro/devkitARM/lib/gcc/arm-none-eabi/4.7.1/../../../../arm-none-eabi/lib/libstdc++.a(tinfo.o)
                                  0x8 (size before relaxing)
 .ARM.exidx.text._ZNKSt9type_info15__is_function_pEv
                0x020764e0        0x0 /opt/devkitpro/devkitARM/lib/gcc/arm-none-eabi/4.7.1/../../../../arm-none-eabi/lib/libstdc++.a(tinfo.o)
                                  0x8 (size before relaxing)
 .ARM.exidx.text._ZNKSt9type_info11__do_upcastEPKN10__cxxabiv117__class_type_infoEPPv
                0x020764e0        0x0 /opt/devkitpro/devkitARM/lib/gcc/arm-none-eabi/4.7.1/../../../../arm-none-eabi/lib/libstdc++.a(tinfo.o)
                                  0x8 (size before relaxing)
 .ARM.exidx.text._ZNSt9type_infoD0Ev
                0x020764e0        0x0 /opt/devkitpro/devkitARM/lib/gcc/arm-none-eabi/4.7.1/../../../../arm-none-eabi/lib/libstdc++.a(tinfo.o)
                                  0x8 (size before relaxing)
 .ARM.exidx.text._ZNKSt9type_infoeqERKS_
                0x020764e0        0x0 /opt/devkitpro/devkitARM/lib/gcc/arm-none-eabi/4.7.1/../../../../arm-none-eabi/lib/libstdc++.a(tinfo.o)
                                  0x8 (size before relaxing)
 .ARM.exidx.text._ZNKSt9type_info10__do_catchEPKS_PPvj
                0x020764e0        0x0 /opt/devkitpro/devkitARM/lib/gcc/arm-none-eabi/4.7.1/../../../../arm-none-eabi/lib/libstdc++.a(tinfo.o)
                                  0x8 (size before relaxing)
 .ARM.exidx.text._ZNK10__cxxabiv117__class_type_info11__do_upcastEPKS0_PPv
                0x020764e0        0x8 /opt/devkitpro/devkitARM/lib/gcc/arm-none-eabi/4.7.1/../../../../arm-none-eabi/lib/libstdc++.a(class_type_info.o)
 .ARM.exidx.text._ZNK10__cxxabiv117__class_type_info20__do_find_public_srcEiPKvPKS0_S2_
                0x020764e8        0x8 /opt/devkitpro/devkitARM/lib/gcc/arm-none-eabi/4.7.1/../../../../arm-none-eabi/lib/libstdc++.a(class_type_info.o)
 .ARM.exidx.text._ZNK10__cxxabiv117__class_type_info11__do_upcastEPKS0_PKvRNS0_15__upcast_resultE
                0x020764f0        0x8 /opt/devkitpro/devkitARM/lib/gcc/arm-none-eabi/4.7.1/../../../../arm-none-eabi/lib/libstdc++.a(class_type_info.o)
 .ARM.exidx.text._ZN10__cxxabiv117__class_type_infoD2Ev
                0x020764f8        0x8 /opt/devkitpro/devkitARM/lib/gcc/arm-none-eabi/4.7.1/../../../../arm-none-eabi/lib/libstdc++.a(class_type_info.o)
 .ARM.exidx.text._ZN10__cxxabiv117__class_type_infoD0Ev
                0x02076500        0x0 /opt/devkitpro/devkitARM/lib/gcc/arm-none-eabi/4.7.1/../../../../arm-none-eabi/lib/libstdc++.a(class_type_info.o)
                                  0x8 (size before relaxing)
 .ARM.exidx.text._ZNK10__cxxabiv117__class_type_info12__do_dyncastEiNS0_10__sub_kindEPKS0_PKvS3_S5_RNS0_16__dyncast_resultE
                0x02076500        0x8 /opt/devkitpro/devkitARM/lib/gcc/arm-none-eabi/4.7.1/../../../../arm-none-eabi/lib/libstdc++.a(class_type_info.o)
 .ARM.exidx.text._ZNK10__cxxabiv117__class_type_info10__do_catchEPKSt9type_infoPPvj
                0x02076508        0x8 /opt/devkitpro/devkitARM/lib/gcc/arm-none-eabi/4.7.1/../../../../arm-none-eabi/lib/libstdc++.a(class_type_info.o)
 .ARM.exidx.text._ZN9__gnu_cxx27__verbose_terminate_handlerEv
                0x02076510        0x8 /opt/devkitpro/devkitARM/lib/gcc/arm-none-eabi/4.7.1/../../../../arm-none-eabi/lib/libstdc++.a(vterminate.o)
 .ARM.exidx.text.__cxa_current_exception_type
                0x02076518        0x8 /opt/devkitpro/devkitARM/lib/gcc/arm-none-eabi/4.7.1/../../../../arm-none-eabi/lib/libstdc++.a(eh_type.o)
                0x02076520                __exidx_end = .

.rel.dyn        0x02076520        0x0
 .rel.iplt      0x00000000        0x0 cglfont.o
                0x02076520                . = ALIGN (0x4)
                0x02076520                PROVIDE (__preinit_array_start, .)

.preinit_array
 *(.preinit_array)
                0x02076520                PROVIDE (__preinit_array_end, .)
                0x02076520                PROVIDE (__init_array_start, .)

.init_array     0x02076520        0x4
 *(SORT(.init_array.*))
 *(.init_array)
 .init_array    0x02076520        0x4 /opt/devkitpro/devkitARM/lib/gcc/arm-none-eabi/4.7.1/crtbegin.o
                0x02076524                PROVIDE (__init_array_end, .)
                0x02076524                PROVIDE (__fini_array_start, .)

.fini_array     0x02076524        0x4
 *(.fini_array)
 .fini_array    0x02076524        0x4 /opt/devkitpro/devkitARM/lib/gcc/arm-none-eabi/4.7.1/crtbegin.o
 *(SORT(.fini_array.*))
                0x02076528                PROVIDE (__fini_array_end, .)

.ctors          0x02076528        0x0
 *crtbegin.o(.ctors)
 *(EXCLUDE_FILE(*crtend.o) .ctors)
 *(SORT(.ctors.*))
 *(.ctors)
                0x02076528                . = ALIGN (0x4)

.dtors          0x02076528        0x0
 *crtbegin.o(.dtors)
 *(EXCLUDE_FILE(*crtend.o) .dtors)
 *(SORT(.dtors.*))
 *(.dtors)
                0x02076528                . = ALIGN (0x4)

.eh_frame       0x02076528        0x4
 *(.eh_frame)
 .eh_frame      0x02076528        0x0 /opt/devkitpro/devkitARM/lib/gcc/arm-none-eabi/4.7.1/crtbegin.o
 .eh_frame      0x02076528        0x4 /opt/devkitpro/devkitARM/lib/gcc/arm-none-eabi/4.7.1/crtend.o
                0x0207652c                . = ALIGN (0x4)

.gcc_except_table
                0x0207652c        0x0
 *(.gcc_except_table)
                0x0207652c                . = ALIGN (0x4)

.jcr            0x0207652c        0x4
 *(.jcr)
 .jcr           0x0207652c        0x0 /opt/devkitpro/devkitARM/lib/gcc/arm-none-eabi/4.7.1/crtbegin.o
 .jcr           0x0207652c        0x4 /opt/devkitpro/devkitARM/lib/gcc/arm-none-eabi/4.7.1/crtend.o

.got
 *(.got.plt)
 *(.got)
 *(.rel.got)

.ewram          0x02076530        0x0
                0x02076530                __ewram_start = ABSOLUTE (.)
 *(.ewram)
 *ewram.*(.text)
                0x02076530                . = ALIGN (0x4)

.data           0x02076530     0x1380
                0x02076530                __data_start = ABSOLUTE (.)
 *(.data)
 .data          0x02076530        0x0 ProgramID.o
 .data          0x02076530        0x0 romeo2_ncd.o
 .data          0x02076530        0x0 cglfont.o
 .data          0x02076530        0x0 cglstream.o
 .data          0x02076530        0x0 cgltgf.o
 .data          0x02076530        0x0 cstream.o
 .data          0x02076530        0x0 cstream_fs.o
 .data          0x02076530        0x0 shell_SystemAfter.o
 .data          0x02076530        0x0 dll.o
 .data          0x02076530        0x0 dllsound.o
 .data          0x02076530        0x0 playlist.o
 .data          0x02076530        0x0 plug_lyric.o
 .data          0x02076530        0x0 fpga_helper.o
 .data          0x02076530        0x0 BMPReader.o
 .data          0x02076530        0x0 cfont.o
 .data          0x02076530        0x0 component.o
 .data          0x02076530        0x0 ErrorDialog.o
 .data          0x02076530        0x0 msgwin.o
 .data          0x02076530        0x0 particle.o
 .data          0x02076530        0x0 rect.o
 .data          0x02076530        0x0 skin.o
 .data          0x02076530        0x0 splash.o
 .data          0x02076530        0x0 VideoResume.o
 .data          0x02076530        0x0 vramcache.o
 .data          0x02076530        0x0 extmem.o
 .data          0x02076530        0x0 extmem_DSBM.o
 .data          0x02076530        0x0 extmem_EZ3in1.o
 .data          0x02076530        0x0 extmem_M3ExtPack.o
 .data          0x02076530        0x0 extmem_RawMem.o
 .data          0x02076530        0x0 extmem_SuperCard.o
 .data          0x02076530        0x0 BootROM.o
 .data          0x02076530        0x0 extlink.o
 .data          0x02076530        0x0 NDSROMIcon.o
 .data          0x02076530        0x0 launchstate.o
 .data          0x02076530        0x0 procstate.o
 .data          0x02076530        0x0 resume.o
 .data          0x02076530        0x0 sndeff.o
 .data          0x02076530        0x0 strpcm.o
 .data          0x02076530        0x0 snd_click_long_c_bin.o
 .data          0x02076530        0x0 snd_click_short_c_bin.o
 .data          0x02076530        0x0 datetime.o
 .data          0x02076530        0x0 md5c.o
 .data          0x02076530        0x0 fastlzss16decpalasm_body.o
 .data          0x02076530        0x0 fastlzss16decpalasm.o
 .data          0x02076530        0x0 euc2unicode.o
 .data          0x02076530        0x0 lang.o
 .data          0x02076530        0x0 inifile.o
 .data          0x02076530        0x0 proc_chkdsk.o
 .data          0x02076530        0x0 proc_setup.o
 .data          0x02076530        0x0 proc_FileList.o
 .data          0x02076530        0x0 NDSFiles.o
 .data          0x02076530        0x0 hiddenpaths.o
 .data          0x02076530        0x0 ThumbDPG.o
 .data          0x02076530        0x0 ThumbIPK.o
 .data          0x02076530        0x0 cipk_simple.o
 .data          0x02076530        0x0 proc_sysmenu.o
 .data          0x02076530        0x0 proc_DPGCustom.o
 .data          0x02076530        0x0 proc_DPGPlay.o
 .data          0x02076530        0x0 proc_ImageCustom.o
 .data          0x02076530        0x0 proc_ImageView.o
 .data          0x02076530        0x0 proc_TextCustom.o
 .data          0x02076530        0x0 proc_TextMenu.o
 .data          0x02076530        0x0 proc_TextView.o
 .data          0x02076530        0x0 cctf.o
 .data          0x02076530        0x0 cctf_dfs.o
 .data          0x02076530        0x0 proc_BinView.o
 .data          0x02076530        0x0 proc_Launch.o
 .data          0x02076530        0x0 proc_Custom.o
 .data          0x02076530        0x0 proc_BootROM.o
 .data          0x02076530        0x0 proc_MemoEdit.o
 .data          0x02076530        0x0 proc_MemoList.o
 .data          0x02076530        0x0 proc_AudioCustom.o
 .data          0x02076530        0x0 plug_mp3.o
 .data          0x02076530        0x0 bit.o
 .data          0x02076530        0x0 decoder.o
 .data          0x02076530        0x0 fixed.o
 .data          0x02076530        0x0 frame.o
 .data          0x02076530        0x0 huffman.o
 .data          0x02076530        0x0 layer12.o
 .data          0x02076530        0x0 layer3.o
 .data          0x02076530        0x0 stream.o
 .data          0x02076530        0x0 synth.o
 .data          0x02076530        0x0 timer.o
 .data          0x02076530        0x0 version.o
 .data          0x02076530        0x0 plug_midi.o
 .data          0x02076530        0x0 mtrk.o
 .data          0x02076530        0x0 pch.o
 .data          0x02076530        0x0 rcplib.o
 .data          0x02076530        0x0 smidlib.o
 .data          0x02076530        0x0 smidlib_sm.o
 .data          0x02076530        0x0 sndfont.o
 .data          0x02076530        0x0 plug_gme.o
 .data          0x02076530        0x0 Ay_Apu.o
 .data          0x02076530        0x0 Ay_Cpu.o
 .data          0x02076530        0x0 Ay_Emu.o
 .data          0x02076530        0x0 Gbs_Emu.o
 .data          0x02076530        0x0 Gb_Apu.o
 .data          0x02076530        0x0 Gb_Cpu.o
 .data          0x02076530        0x0 Gb_Oscs.o
 .data          0x02076530        0x0 gme.o
 .data          0x02076530        0x0 Hes_Apu.o
 .data          0x02076530        0x0 Hes_Cpu.o
 .data          0x02076530        0x0 Hes_Emu.o
 .data          0x02076530        0x0 Kss_Cpu.o
 .data          0x02076530        0x0 Kss_Emu.o
 .data          0x02076530        0x0 Kss_Scc_Apu.o
 .data          0x02076530        0x0 Nes_Apu.o
 .data          0x02076530        0x0 Nes_Cpu.o
 .data          0x02076530        0x0 Nes_Fme7_Apu.o
 .data          0x02076530        0x0 Nes_Namco_Apu.o
 .data          0x02076530        0x0 Nes_Oscs.o
 .data          0x02076530        0x0 Nes_Vrc6_Apu.o
 .data          0x02076530        0x0 Nsf_Emu.o
 .data          0x02076530        0x0 Sap_Apu.o
 .data          0x02076530        0x0 Sap_Cpu.o
 .data          0x02076530        0x0 Sap_Emu.o
 .data          0x02076530        0x0 Sms_Apu.o
 .data          0x02076530        0x0 plug_ogg.o
 .data          0x02076530        0x0 bitwise.o
 .data          0x02076530        0x0 codebook.o
 .data          0x02076530        0x0 floor0.o
 .data          0x02076530        0x0 floor1.o
 .data          0x02076530        0x0 framing.o
 .data          0x02076530        0x0 info.o
 .data          0x02076530        0x0 mapping0.o
 .data          0x02076530        0x0 _libogg_misc.o
 .data          0x02076530        0x0 res012.o
 .data          0x02076530        0x0 vorbisfile.o
 .data          0x02076530        0x0 _libogg_dsp.o
 .data          0x02076530        0x0 _libogg_mdct.o
 .data          0x02076530        0x0 plug_wav.o
 .data          0x02076530        0x0 plug_jpeg.o
 .data          0x02076530        0x0 jcomapi.o
 .data          0x02076530        0x0 jdapimin.o
 .data          0x02076530        0x0 jdapistd.o
 .data          0x02076530        0x0 jdatasrc.o
 .data          0x02076530        0x0 jdcoefct.o
 .data          0x02076530        0x0 jdcolor.o
 .data          0x02076530        0x0 jddctmgr.o
 .data          0x02076530        0x0 jdhuff.o
 .data          0x02076530        0x0 jdinput.o
 .data          0x02076530        0x0 jdmainct.o
 .data          0x02076530        0x0 jdmarker.o
 .data          0x02076530        0x0 jdmaster.o
 .data          0x02076530        0x0 jdmerge.o
 .data          0x02076530        0x0 jdphuff.o
 .data          0x02076530        0x0 jdpostct.o
 .data          0x02076530        0x0 jdsample.o
 .data          0x02076530        0x0 jerror.o
 .data          0x02076530        0x0 jidctfst.o
 .data          0x02076530        0x0 jidctred.o
 .data          0x02076530        0x0 jmemansi.o
 .data          0x02076530        0x0 jmemmgr.o
 .data          0x02076530        0x0 jquant1.o
 .data          0x02076530        0x0 jutils.o
 .data          0x02076530        0x8 plug_png.o
 .data          0x02076538        0x0 png.o
 .data          0x02076538        0x0 pngerror.o
 .data          0x02076538        0x0 pngget.o
 .data          0x02076538        0x0 pngmem.o
 .data          0x02076538        0x0 pngread.o
 .data          0x02076538        0x0 pngrio.o
 .data          0x02076538        0x0 pngrtran.o
 .data          0x02076538       0x20 pngrutil.o
 .data          0x02076558        0x0 pngset.o
 .data          0x02076558        0x0 pngtrans.o
 .data          0x02076558        0x0 plug_bmp.o
 .data          0x02076558        0x0 plug_gif.o
 .data          0x02076558        0x0 dgif_lib.o
 .data          0x02076558        0x0 gif_err.o
 .data          0x02076558        0x0 gifalloc.o
 .data          0x02076558       0xa0 plug_psd.o
                0x02076558                PSDMODE_NAME
 .data          0x020765f8        0x0 alloc.o
 .data          0x020765f8        0x0 clibdpg.o
 .data          0x020765f8        0x0 clibmpg.o
 .data          0x020765f8        0x0 decode.o
 .data          0x020765f8        0x0 header.o
 .data          0x020765f8        0x0 idct.o
 .data          0x020765f8        0x0 motion_comp.o
 .data          0x020765f8        0x0 motion_comp_arm.o
 .data          0x020765f8        0x0 plug_dpg.o
 .data          0x020765f8        0x0 plug_mp2.o
 .data          0x020765f8        0x0 slice.o
 .data          0x020765f8        0x0 _dpgfs.o
 .data          0x020765f8        0x0 plug_srttitle.o
 .data          0x020765f8        0xc plug_ndsrom.o
                0x020765f8                dldiMagicString
 .data          0x02076604        0x0 Blip_Buffer.o
 .data          0x02076604        0x0 Classic_Emu.o
 .data          0x02076604        0x0 Data_Reader.o
 .data          0x02076604        0x0 Effects_Buffer.o
 .data          0x02076604        0x0 Gme_File.o
 .data          0x02076604        0x0 Multi_Buffer.o
 .data          0x02076604        0x0 Music_Emu.o
 .data          0x02076604        0x0 /opt/devkitpro/devkitARM/lib/gcc/arm-none-eabi/4.7.1/../../../../arm-none-eabi/lib/ds_arm9_crt0.o
 .data          0x02076604        0x0 /opt/devkitpro/devkitARM/lib/gcc/arm-none-eabi/4.7.1/crti.o
 .data          0x02076604        0x4 /opt/devkitpro/devkitARM/lib/gcc/arm-none-eabi/4.7.1/crtbegin.o
                0x02076604                __dso_handle
 .data          0x02076608        0x2 _console.o
                0x02076609                VerboseDebugLog
 .data          0x0207660a        0x0 _consoleWriteLog.o
 .data          0x0207660a        0x0 main.o
 .data          0x0207660a        0x0 cglb15.o
 .data          0x0207660a        0x0 cglcanvas.o
 .data          0x0207660a        0x0 cglscreenmain.o
 .data          0x0207660a        0x0 cglscreenoverlay.o
 .data          0x0207660a        0x0 cglscreensub.o
 .data          0x0207660a        0x0 glglobal.o
 .data          0x0207660a        0x0 glmemtool.o
 .data          0x0207660a        0x0 OverlayManager.o
 .data          0x0207660a        0x0 memtool.o
 *fill*         0x0207660a        0x2 ff
 .data          0x0207660c       0x14 shell.o
 .data          0x02076620        0x0 sndeff_dfs.o
 .data          0x02076620        0x0 strtool.o
 .data          0x02076620        0x0 unicode.o
 .data          0x02076620        0x0 zlibhelp.o
 .data          0x02076620       0x14 disc_io.o
                0x02076620                DIMediaID
                0x02076628                DIMediaName
                0x0207662c                DIMediaType
 .data          0x02076634        0x0 fat2.o
 .data          0x02076634        0x1 gba_nds_fat.o
 .data          0x02076635        0x0 Dual_Resampler.o
 .data          0x02076635        0x0 Fir_Resampler.o
 .data          0x02076635        0x0 Gym_Emu.o
 .data          0x02076635        0x0 M3u_Playlist.o
 .data          0x02076635        0x0 Nsfe_Emu.o
 .data          0x02076635        0x0 Snes_Spc.o
 .data          0x02076635        0x0 Spc_Cpu.o
 .data          0x02076635        0x0 Spc_Dsp.o
 .data          0x02076635        0x0 Spc_Emu.o
 .data          0x02076635        0x0 Vgm_Emu.o
 .data          0x02076635        0x0 Vgm_Emu_Impl.o
 .data          0x02076635        0x0 Ym2413_Emu.o
 .data          0x02076635        0x0 Ym2612_Emu.o
 .data          0x02076635        0x0 _console_font_fixed6x6_packed_bin.o
 .data          0x02076635        0x0 bootwarn_b8zlib.o
 .data          0x02076635        0x0 guidxcrcerror_b8zlib.o
 .data          0x02076635        0x0 versionerror_b8zlib.o
 .data          0x02076635        0x0 adler32.o
 *fill*         0x02076635        0x3 ff
 .data          0x02076638        0x8 crc32.o
 .data          0x02076640        0x0 deflate.o
 .data          0x02076640        0x4 infback.o
 .data          0x02076644        0x0 inffast.o
 .data          0x02076644        0x4 inflate.o
 .data          0x02076648        0x0 inftrees.o
 .data          0x02076648       0x3c trees.o
 .data          0x02076684        0x0 zutil.o
 .data          0x02076684        0x0 floor_lookup.o
 .data          0x02076684        0x0 motion_comp_arm_s.o
 .data          0x02076684        0x0 jpeg_idct_ifast_clip_asm.o
 .data          0x02076684        0x0 /opt/devkitpro/libnds/lib/libnds9.a(system.o)
 .data          0x02076684        0x0 /opt/devkitpro/libnds/lib/libnds9.a(video.o)
 .data          0x02076684        0x4 /opt/devkitpro/libnds/lib/libnds9.a(dldi.o)
                0x02076684                io_dldi_data
 .data          0x02076688        0x0 /opt/devkitpro/libnds/lib/libnds9.a(initSystem.o)
 .data          0x02076688       0x10 /opt/devkitpro/libnds/lib/libnds9.a(fifosystem.o)
                0x02076688                fifo_buffer_free
                0x0207668c                fifo_freewords
                0x02076690                fifo_send_queue
                0x02076694                fifo_receive_queue
 .data          0x02076698        0x0 /opt/devkitpro/libnds/lib/libnds9.a(interrupts.o)
 .data          0x02076698        0x0 /opt/devkitpro/libnds/lib/libnds9.a(libnds_exit.arm.o)
 .data          0x02076698        0x0 /opt/devkitpro/libnds/lib/libnds9.a(dcache.o)
 .data          0x02076698        0x0 /opt/devkitpro/libnds/lib/libnds9.a(icache.o)
 .data          0x02076698        0x0 /opt/devkitpro/libnds/lib/libnds9.a(dldi_stub.o)
 .data          0x02076698        0x0 /opt/devkitpro/libnds/lib/libnds9.a(mpu_setup.o)
 .data          0x02076698        0x0 /opt/devkitpro/libnds/lib/libnds9.a(biosCalls.o)
 .data          0x02076698        0x0 /opt/devkitpro/libnds/lib/libnds9.a(debugprint.o)
 .data          0x02076698        0x0 /opt/devkitpro/libnds/lib/libnds9.a(interruptDispatcher.o)
 .data          0x02076698        0x0 /opt/devkitpro/libnds/lib/libnds9.a(swiSoftReset.o)
 .data          0x02076698        0x0 /opt/devkitpro/devkitARM/lib/gcc/arm-none-eabi/4.7.1/../../../../arm-none-eabi/lib/libstdc++.a(del_op.o)
 .data          0x02076698        0x0 /opt/devkitpro/devkitARM/lib/gcc/arm-none-eabi/4.7.1/../../../../arm-none-eabi/lib/libstdc++.a(new_op.o)
 .data          0x02076698        0x0 /opt/devkitpro/devkitARM/lib/gcc/arm-none-eabi/4.7.1/../../../../arm-none-eabi/lib/libstdc++.a(pure.o)
 .data          0x02076698        0x0 /opt/devkitpro/devkitARM/lib/gcc/arm-none-eabi/4.7.1/../../../../arm-none-eabi/lib/libstdc++.a(bad_alloc.o)
 .data          0x02076698        0x0 /opt/devkitpro/devkitARM/lib/gcc/arm-none-eabi/4.7.1/../../../../arm-none-eabi/lib/libstdc++.a(eh_alloc.o)
 .data          0x02076698        0x0 /opt/devkitpro/devkitARM/lib/gcc/arm-none-eabi/4.7.1/../../../../arm-none-eabi/lib/libstdc++.a(eh_arm.o)
 .data          0x02076698        0x0 /opt/devkitpro/devkitARM/lib/gcc/arm-none-eabi/4.7.1/../../../../arm-none-eabi/lib/libstdc++.a(eh_call.o)
 .data          0x02076698        0x0 /opt/devkitpro/devkitARM/lib/gcc/arm-none-eabi/4.7.1/../../../../arm-none-eabi/lib/libstdc++.a(eh_catch.o)
 .data          0x02076698        0x0 /opt/devkitpro/devkitARM/lib/gcc/arm-none-eabi/4.7.1/../../../../arm-none-eabi/lib/libstdc++.a(eh_exception.o)
 .data          0x02076698        0x0 /opt/devkitpro/devkitARM/lib/gcc/arm-none-eabi/4.7.1/../../../../arm-none-eabi/lib/libstdc++.a(eh_globals.o)
 .data          0x02076698        0x0 /opt/devkitpro/devkitARM/lib/gcc/arm-none-eabi/4.7.1/../../../../arm-none-eabi/lib/libstdc++.a(eh_personality.o)
 .data          0x02076698        0x0 /opt/devkitpro/devkitARM/lib/gcc/arm-none-eabi/4.7.1/../../../../arm-none-eabi/lib/libstdc++.a(eh_terminate.o)
 .data          0x02076698        0x0 /opt/devkitpro/devkitARM/lib/gcc/arm-none-eabi/4.7.1/../../../../arm-none-eabi/lib/libstdc++.a(eh_throw.o)
 .data          0x02076698        0x0 /opt/devkitpro/devkitARM/lib/gcc/arm-none-eabi/4.7.1/../../../../arm-none-eabi/lib/libstdc++.a(eh_unex_handler.o)
 .data          0x02076698        0x0 /opt/devkitpro/devkitARM/lib/gcc/arm-none-eabi/4.7.1/../../../../arm-none-eabi/lib/libstdc++.a(new_handler.o)
 .data          0x02076698        0x0 /opt/devkitpro/devkitARM/lib/gcc/arm-none-eabi/4.7.1/../../../../arm-none-eabi/lib/libstdc++.a(si_class_type_info.o)
 .data          0x02076698        0x0 /opt/devkitpro/devkitARM/lib/gcc/arm-none-eabi/4.7.1/../../../../arm-none-eabi/lib/libstdc++.a(tinfo.o)
 .data          0x02076698        0x0 /opt/devkitpro/devkitARM/lib/gcc/arm-none-eabi/4.7.1/../../../../arm-none-eabi/lib/libstdc++.a(class_type_info.o)
 .data          0x02076698        0x0 /opt/devkitpro/devkitARM/lib/gcc/arm-none-eabi/4.7.1/../../../../arm-none-eabi/lib/libstdc++.a(eh_term_handler.o)
 .data          0x02076698        0x0 /opt/devkitpro/devkitARM/lib/gcc/arm-none-eabi/4.7.1/../../../../arm-none-eabi/lib/libstdc++.a(vterminate.o)
 .data          0x02076698        0x0 /opt/devkitpro/devkitARM/lib/gcc/arm-none-eabi/4.7.1/../../../../arm-none-eabi/lib/libstdc++.a(cp-demangle.o)
 .data          0x02076698        0x0 /opt/devkitpro/devkitARM/lib/gcc/arm-none-eabi/4.7.1/../../../../arm-none-eabi/lib/libstdc++.a(eh_type.o)
 .data          0x02076698        0x0 /opt/devkitpro/devkitARM/lib/gcc/arm-none-eabi/4.7.1/../../../../arm-none-eabi/lib/libm.a(lib_a-s_cos.o)
 .data          0x02076698        0x0 /opt/devkitpro/devkitARM/lib/gcc/arm-none-eabi/4.7.1/../../../../arm-none-eabi/lib/libm.a(lib_a-s_fabs.o)
 .data          0x02076698        0x0 /opt/devkitpro/devkitARM/lib/gcc/arm-none-eabi/4.7.1/../../../../arm-none-eabi/lib/libm.a(lib_a-s_floor.o)
 .data          0x02076698        0x0 /opt/devkitpro/devkitARM/lib/gcc/arm-none-eabi/4.7.1/../../../../arm-none-eabi/lib/libm.a(lib_a-s_sin.o)
 .data          0x02076698        0x0 /opt/devkitpro/devkitARM/lib/gcc/arm-none-eabi/4.7.1/../../../../arm-none-eabi/lib/libm.a(lib_a-sf_fabs.o)
 .data          0x02076698        0x0 /opt/devkitpro/devkitARM/lib/gcc/arm-none-eabi/4.7.1/../../../../arm-none-eabi/lib/libm.a(lib_a-w_fmod.o)
 .data          0x02076698        0x0 /opt/devkitpro/devkitARM/lib/gcc/arm-none-eabi/4.7.1/../../../../arm-none-eabi/lib/libm.a(lib_a-w_log10.o)
 .data          0x02076698        0x0 /opt/devkitpro/devkitARM/lib/gcc/arm-none-eabi/4.7.1/../../../../arm-none-eabi/lib/libm.a(lib_a-w_pow.o)
 .data          0x02076698        0x0 /opt/devkitpro/devkitARM/lib/gcc/arm-none-eabi/4.7.1/../../../../arm-none-eabi/lib/libm.a(lib_a-e_fmod.o)
 .data          0x02076698        0x0 /opt/devkitpro/devkitARM/lib/gcc/arm-none-eabi/4.7.1/../../../../arm-none-eabi/lib/libm.a(lib_a-e_log10.o)
 .data          0x02076698        0x0 /opt/devkitpro/devkitARM/lib/gcc/arm-none-eabi/4.7.1/../../../../arm-none-eabi/lib/libm.a(lib_a-e_pow.o)
 .data          0x02076698        0x0 /opt/devkitpro/devkitARM/lib/gcc/arm-none-eabi/4.7.1/../../../../arm-none-eabi/lib/libm.a(lib_a-e_rem_pio2.o)
 .data          0x02076698        0x0 /opt/devkitpro/devkitARM/lib/gcc/arm-none-eabi/4.7.1/../../../../arm-none-eabi/lib/libm.a(lib_a-e_sqrt.o)
 .data          0x02076698        0x0 /opt/devkitpro/devkitARM/lib/gcc/arm-none-eabi/4.7.1/../../../../arm-none-eabi/lib/libm.a(lib_a-k_cos.o)
 .data          0x02076698        0x0 /opt/devkitpro/devkitARM/lib/gcc/arm-none-eabi/4.7.1/../../../../arm-none-eabi/lib/libm.a(lib_a-k_rem_pio2.o)
 .data          0x02076698        0x0 /opt/devkitpro/devkitARM/lib/gcc/arm-none-eabi/4.7.1/../../../../arm-none-eabi/lib/libm.a(lib_a-k_sin.o)
 .data          0x02076698        0x0 /opt/devkitpro/devkitARM/lib/gcc/arm-none-eabi/4.7.1/../../../../arm-none-eabi/lib/libm.a(lib_a-s_finite.o)
 .data          0x02076698        0x0 /opt/devkitpro/devkitARM/lib/gcc/arm-none-eabi/4.7.1/../../../../arm-none-eabi/lib/libm.a(lib_a-s_fpclassify.o)
 .data          0x02076698        0x1 /opt/devkitpro/devkitARM/lib/gcc/arm-none-eabi/4.7.1/../../../../arm-none-eabi/lib/libm.a(lib_a-s_lib_ver.o)
                0x02076698                __fdlib_version
 .data          0x02076699        0x0 /opt/devkitpro/devkitARM/lib/gcc/arm-none-eabi/4.7.1/../../../../arm-none-eabi/lib/libm.a(lib_a-s_matherr.o)
 .data          0x02076699        0x0 /opt/devkitpro/devkitARM/lib/gcc/arm-none-eabi/4.7.1/../../../../arm-none-eabi/lib/libm.a(lib_a-s_nan.o)
 .data          0x02076699        0x0 /opt/devkitpro/devkitARM/lib/gcc/arm-none-eabi/4.7.1/../../../../arm-none-eabi/lib/libm.a(lib_a-s_rint.o)
 .data          0x02076699        0x0 /opt/devkitpro/devkitARM/lib/gcc/arm-none-eabi/4.7.1/../../../../arm-none-eabi/lib/libm.a(lib_a-s_scalbn.o)
 .data          0x02076699        0x0 /opt/devkitpro/devkitARM/lib/gcc/arm-none-eabi/4.7.1/../../../../arm-none-eabi/lib/libm.a(lib_a-e_log.o)
 .data          0x02076699        0x0 /opt/devkitpro/devkitARM/lib/gcc/arm-none-eabi/4.7.1/../../../../arm-none-eabi/lib/libm.a(lib_a-s_copysign.o)
 .data          0x02076699        0x0 /opt/devkitpro/devkitARM/lib/gcc/arm-none-eabi/4.7.1/libgcc.a(_udivsi3.o)
 .data          0x02076699        0x0 /opt/devkitpro/devkitARM/lib/gcc/arm-none-eabi/4.7.1/libgcc.a(_divsi3.o)
 .data          0x02076699        0x0 /opt/devkitpro/devkitARM/lib/gcc/arm-none-eabi/4.7.1/libgcc.a(_dvmd_tls.o)
 .data          0x02076699        0x0 /opt/devkitpro/devkitARM/lib/gcc/arm-none-eabi/4.7.1/libgcc.a(_arm_addsubdf3.o)
 .data          0x02076699        0x0 /opt/devkitpro/devkitARM/lib/gcc/arm-none-eabi/4.7.1/libgcc.a(_arm_muldivdf3.o)
 .data          0x02076699        0x0 /opt/devkitpro/devkitARM/lib/gcc/arm-none-eabi/4.7.1/libgcc.a(_arm_cmpdf2.o)
 .data          0x02076699        0x0 /opt/devkitpro/devkitARM/lib/gcc/arm-none-eabi/4.7.1/libgcc.a(_arm_fixdfsi.o)
 .data          0x02076699        0x0 /opt/devkitpro/devkitARM/lib/gcc/arm-none-eabi/4.7.1/libgcc.a(_arm_fixunsdfsi.o)
 .data          0x02076699        0x0 /opt/devkitpro/devkitARM/lib/gcc/arm-none-eabi/4.7.1/libgcc.a(_arm_truncdfsf2.o)
 .data          0x02076699        0x0 /opt/devkitpro/devkitARM/lib/gcc/arm-none-eabi/4.7.1/libgcc.a(_arm_addsubsf3.o)
 .data          0x02076699        0x0 /opt/devkitpro/devkitARM/lib/gcc/arm-none-eabi/4.7.1/libgcc.a(_arm_muldivsf3.o)
 .data          0x02076699        0x0 /opt/devkitpro/devkitARM/lib/gcc/arm-none-eabi/4.7.1/libgcc.a(_arm_cmpsf2.o)
 .data          0x02076699        0x0 /opt/devkitpro/devkitARM/lib/gcc/arm-none-eabi/4.7.1/libgcc.a(_arm_fixsfsi.o)
 .data          0x02076699        0x0 /opt/devkitpro/devkitARM/lib/gcc/arm-none-eabi/4.7.1/libgcc.a(_arm_fixunssfsi.o)
 .data          0x02076699        0x0 /opt/devkitpro/devkitARM/lib/gcc/arm-none-eabi/4.7.1/libgcc.a(_aeabi_ldivmod.o)
 .data          0x02076699        0x0 /opt/devkitpro/devkitARM/lib/gcc/arm-none-eabi/4.7.1/libgcc.a(_aeabi_uldivmod.o)
 .data          0x02076699        0x0 /opt/devkitpro/devkitARM/lib/gcc/arm-none-eabi/4.7.1/libgcc.a(bpabi.o)
 .data          0x02076699        0x0 /opt/devkitpro/devkitARM/lib/gcc/arm-none-eabi/4.7.1/libgcc.a(unwind-arm.o)
 .data          0x02076699        0x0 /opt/devkitpro/devkitARM/lib/gcc/arm-none-eabi/4.7.1/libgcc.a(libunwind.o)
 .data          0x02076699        0x0 /opt/devkitpro/devkitARM/lib/gcc/arm-none-eabi/4.7.1/libgcc.a(pr-support.o)
 .data          0x02076699        0x0 /opt/devkitpro/devkitARM/lib/gcc/arm-none-eabi/4.7.1/libgcc.a(_divdi3.o)
 .data          0x02076699        0x0 /opt/devkitpro/devkitARM/lib/gcc/arm-none-eabi/4.7.1/libgcc.a(_udivdi3.o)
 .data          0x02076699        0x0 /opt/devkitpro/devkitARM/lib/gcc/arm-none-eabi/4.7.1/libgcc.a(_clzsi2.o)
 .data          0x02076699        0x0 /opt/devkitpro/devkitARM/lib/gcc/arm-none-eabi/4.7.1/../../../../arm-none-eabi/lib/libc.a(lib_a-abort.o)
 .data          0x02076699        0x0 /opt/devkitpro/devkitARM/lib/gcc/arm-none-eabi/4.7.1/../../../../arm-none-eabi/lib/libc.a(lib_a-abs.o)
 .data          0x02076699        0x0 /opt/devkitpro/devkitARM/lib/gcc/arm-none-eabi/4.7.1/../../../../arm-none-eabi/lib/libc.a(lib_a-assert.o)
 .data          0x02076699        0x0 /opt/devkitpro/devkitARM/lib/gcc/arm-none-eabi/4.7.1/../../../../arm-none-eabi/lib/libc.a(lib_a-atof.o)
 .data          0x02076699        0x0 /opt/devkitpro/devkitARM/lib/gcc/arm-none-eabi/4.7.1/../../../../arm-none-eabi/lib/libc.a(lib_a-atoi.o)
 .data          0x02076699        0x0 /opt/devkitpro/devkitARM/lib/gcc/arm-none-eabi/4.7.1/../../../../arm-none-eabi/lib/libc.a(lib_a-atol.o)
 .data          0x02076699        0x0 /opt/devkitpro/devkitARM/lib/gcc/arm-none-eabi/4.7.1/../../../../arm-none-eabi/lib/libc.a(lib_a-atoll.o)
 .data          0x02076699        0x0 /opt/devkitpro/devkitARM/lib/gcc/arm-none-eabi/4.7.1/../../../../arm-none-eabi/lib/libc.a(lib_a-calloc.o)
 .data          0x02076699        0x0 /opt/devkitpro/devkitARM/lib/gcc/arm-none-eabi/4.7.1/../../../../arm-none-eabi/lib/libc.a(lib_a-callocr.o)
 *fill*         0x02076699        0x3 ff
 .data          0x0207669c        0x4 /opt/devkitpro/devkitARM/lib/gcc/arm-none-eabi/4.7.1/../../../../arm-none-eabi/lib/libc.a(lib_a-ctype_.o)
                0x0207669c                __ctype_ptr__
 .data          0x020766a0        0x0 /opt/devkitpro/devkitARM/lib/gcc/arm-none-eabi/4.7.1/../../../../arm-none-eabi/lib/libc.a(lib_a-errno.o)
 .data          0x020766a0        0x0 /opt/devkitpro/devkitARM/lib/gcc/arm-none-eabi/4.7.1/../../../../arm-none-eabi/lib/libc.a(lib_a-fiprintf.o)
 .data          0x020766a0        0x0 /opt/devkitpro/devkitARM/lib/gcc/arm-none-eabi/4.7.1/../../../../arm-none-eabi/lib/libc.a(lib_a-fputc.o)
 .data          0x020766a0        0x0 /opt/devkitpro/devkitARM/lib/gcc/arm-none-eabi/4.7.1/../../../../arm-none-eabi/lib/libc.a(lib_a-fputs.o)
 .data          0x020766a0        0x0 /opt/devkitpro/devkitARM/lib/gcc/arm-none-eabi/4.7.1/../../../../arm-none-eabi/lib/libc.a(lib_a-fvwrite.o)
 .data          0x020766a0        0x0 /opt/devkitpro/devkitARM/lib/gcc/arm-none-eabi/4.7.1/../../../../arm-none-eabi/lib/libc.a(lib_a-fwrite.o)
 .data          0x020766a0      0x430 /opt/devkitpro/devkitARM/lib/gcc/arm-none-eabi/4.7.1/../../../../arm-none-eabi/lib/libc.a(lib_a-impure.o)
                0x020766a0                _impure_ptr
 .data          0x02076ad0        0x0 /opt/devkitpro/devkitARM/lib/gcc/arm-none-eabi/4.7.1/../../../../arm-none-eabi/lib/libc.a(lib_a-init.o)
 .data          0x02076ad0        0x0 /opt/devkitpro/devkitARM/lib/gcc/arm-none-eabi/4.7.1/../../../../arm-none-eabi/lib/libc.a(lib_a-labs.o)
 .data          0x02076ad0        0x0 /opt/devkitpro/devkitARM/lib/gcc/arm-none-eabi/4.7.1/../../../../arm-none-eabi/lib/libc.a(lib_a-llabs.o)
 .data          0x02076ad0        0x0 /opt/devkitpro/devkitARM/lib/gcc/arm-none-eabi/4.7.1/../../../../arm-none-eabi/lib/libc.a(lib_a-malloc.o)
 .data          0x02076ad0      0x410 /opt/devkitpro/devkitARM/lib/gcc/arm-none-eabi/4.7.1/../../../../arm-none-eabi/lib/libc.a(lib_a-mallocr.o)
                0x02076ad0                __malloc_av_
                0x02076ed8                __malloc_sbrk_base
                0x02076edc                __malloc_trim_threshold
 .data          0x02076ee0        0x0 /opt/devkitpro/devkitARM/lib/gcc/arm-none-eabi/4.7.1/../../../../arm-none-eabi/lib/libc.a(lib_a-memchr-stub.o)
 .data          0x02076ee0        0x0 /opt/devkitpro/devkitARM/lib/gcc/arm-none-eabi/4.7.1/../../../../arm-none-eabi/lib/libc.a(lib_a-memcmp.o)
 .data          0x02076ee0        0x0 /opt/devkitpro/devkitARM/lib/gcc/arm-none-eabi/4.7.1/../../../../arm-none-eabi/lib/libc.a(lib_a-memcpy-stub.o)
 .data          0x02076ee0        0x0 /opt/devkitpro/devkitARM/lib/gcc/arm-none-eabi/4.7.1/../../../../arm-none-eabi/lib/libc.a(lib_a-memmove.o)
 .data          0x02076ee0        0x0 /opt/devkitpro/devkitARM/lib/gcc/arm-none-eabi/4.7.1/../../../../arm-none-eabi/lib/libc.a(lib_a-memset.o)
 .data          0x02076ee0        0x0 /opt/devkitpro/devkitARM/lib/gcc/arm-none-eabi/4.7.1/../../../../arm-none-eabi/lib/libc.a(lib_a-mlock.o)
 .data          0x02076ee0        0x0 /opt/devkitpro/devkitARM/lib/gcc/arm-none-eabi/4.7.1/../../../../arm-none-eabi/lib/libc.a(lib_a-putc.o)
 .data          0x02076ee0        0x0 /opt/devkitpro/devkitARM/lib/gcc/arm-none-eabi/4.7.1/../../../../arm-none-eabi/lib/libc.a(lib_a-rand.o)
 .data          0x02076ee0        0x0 /opt/devkitpro/devkitARM/lib/gcc/arm-none-eabi/4.7.1/../../../../arm-none-eabi/lib/libc.a(lib_a-realloc.o)
 .data          0x02076ee0        0x0 /opt/devkitpro/devkitARM/lib/gcc/arm-none-eabi/4.7.1/../../../../arm-none-eabi/lib/libc.a(lib_a-reallocr.o)
 .data          0x02076ee0        0x0 /opt/devkitpro/devkitARM/lib/gcc/arm-none-eabi/4.7.1/../../../../arm-none-eabi/lib/libc.a(lib_a-signal.o)
 .data          0x02076ee0        0x0 /opt/devkitpro/devkitARM/lib/gcc/arm-none-eabi/4.7.1/../../../../arm-none-eabi/lib/libc.a(lib_a-snprintf.o)
 .data          0x02076ee0        0x0 /opt/devkitpro/devkitARM/lib/gcc/arm-none-eabi/4.7.1/../../../../arm-none-eabi/lib/libc.a(lib_a-sprintf.o)
 .data          0x02076ee0        0x0 /opt/devkitpro/devkitARM/lib/gcc/arm-none-eabi/4.7.1/../../../../arm-none-eabi/lib/libc.a(lib_a-sscanf.o)
 .data          0x02076ee0        0x0 /opt/devkitpro/devkitARM/lib/gcc/arm-none-eabi/4.7.1/../../../../arm-none-eabi/lib/libc.a(lib_a-stdio.o)
 .data          0x02076ee0        0x0 /opt/devkitpro/devkitARM/lib/gcc/arm-none-eabi/4.7.1/../../../../arm-none-eabi/lib/libc.a(lib_a-stpcpy.o)
 .data          0x02076ee0        0x0 /opt/devkitpro/devkitARM/lib/gcc/arm-none-eabi/4.7.1/../../../../arm-none-eabi/lib/libc.a(lib_a-strcat.o)
 .data          0x02076ee0        0x0 /opt/devkitpro/devkitARM/lib/gcc/arm-none-eabi/4.7.1/../../../../arm-none-eabi/lib/libc.a(lib_a-strchr.o)
 .data          0x02076ee0        0x0 /opt/devkitpro/devkitARM/lib/gcc/arm-none-eabi/4.7.1/../../../../arm-none-eabi/lib/libc.a(lib_a-strcmp.o)
 .data          0x02076ee0        0x0 /opt/devkitpro/devkitARM/lib/gcc/arm-none-eabi/4.7.1/../../../../arm-none-eabi/lib/libc.a(lib_a-strcoll.o)
 .data          0x02076ee0        0x0 /opt/devkitpro/devkitARM/lib/gcc/arm-none-eabi/4.7.1/../../../../arm-none-eabi/lib/libc.a(lib_a-strcpy.o)
 .data          0x02076ee0        0x0 /opt/devkitpro/devkitARM/lib/gcc/arm-none-eabi/4.7.1/../../../../arm-none-eabi/lib/libc.a(lib_a-strcspn.o)
 .data          0x02076ee0        0x0 /opt/devkitpro/devkitARM/lib/gcc/arm-none-eabi/4.7.1/../../../../arm-none-eabi/lib/libc.a(lib_a-strlen.o)
 .data          0x02076ee0        0x0 /opt/devkitpro/devkitARM/lib/gcc/arm-none-eabi/4.7.1/../../../../arm-none-eabi/lib/libc.a(lib_a-strncat.o)
 .data          0x02076ee0        0x0 /opt/devkitpro/devkitARM/lib/gcc/arm-none-eabi/4.7.1/../../../../arm-none-eabi/lib/libc.a(lib_a-strncmp.o)
 .data          0x02076ee0        0x0 /opt/devkitpro/devkitARM/lib/gcc/arm-none-eabi/4.7.1/../../../../arm-none-eabi/lib/libc.a(lib_a-strncpy.o)
 .data          0x02076ee0        0x0 /opt/devkitpro/devkitARM/lib/gcc/arm-none-eabi/4.7.1/../../../../arm-none-eabi/lib/libc.a(lib_a-strpbrk.o)
 .data          0x02076ee0        0x0 /opt/devkitpro/devkitARM/lib/gcc/arm-none-eabi/4.7.1/../../../../arm-none-eabi/lib/libc.a(lib_a-strrchr.o)
 .data          0x02076ee0        0x0 /opt/devkitpro/devkitARM/lib/gcc/arm-none-eabi/4.7.1/../../../../arm-none-eabi/lib/libc.a(lib_a-strspn.o)
 .data          0x02076ee0        0x0 /opt/devkitpro/devkitARM/lib/gcc/arm-none-eabi/4.7.1/../../../../arm-none-eabi/lib/libc.a(lib_a-strstr.o)
 .data          0x02076ee0       0x28 /opt/devkitpro/devkitARM/lib/gcc/arm-none-eabi/4.7.1/../../../../arm-none-eabi/lib/libc.a(lib_a-strtod.o)
 .data          0x02076f08        0x0 /opt/devkitpro/devkitARM/lib/gcc/arm-none-eabi/4.7.1/../../../../arm-none-eabi/lib/libc.a(lib_a-strtok.o)
 .data          0x02076f08        0x0 /opt/devkitpro/devkitARM/lib/gcc/arm-none-eabi/4.7.1/../../../../arm-none-eabi/lib/libc.a(lib_a-strtok_r.o)
 .data          0x02076f08        0x0 /opt/devkitpro/devkitARM/lib/gcc/arm-none-eabi/4.7.1/../../../../arm-none-eabi/lib/libc.a(lib_a-strtol.o)
 .data          0x02076f08        0x0 /opt/devkitpro/devkitARM/lib/gcc/arm-none-eabi/4.7.1/../../../../arm-none-eabi/lib/libc.a(lib_a-strtoll.o)
 .data          0x02076f08        0x0 /opt/devkitpro/devkitARM/lib/gcc/arm-none-eabi/4.7.1/../../../../arm-none-eabi/lib/libc.a(lib_a-strtoll_r.o)
 .data          0x02076f08        0x0 /opt/devkitpro/devkitARM/lib/gcc/arm-none-eabi/4.7.1/../../../../arm-none-eabi/lib/libc.a(lib_a-strxfrm.o)
 .data          0x02076f08        0x0 /opt/devkitpro/devkitARM/lib/gcc/arm-none-eabi/4.7.1/../../../../arm-none-eabi/lib/libc.a(lib_a-svfprintf.o)
 .data          0x02076f08        0x0 /opt/devkitpro/devkitARM/lib/gcc/arm-none-eabi/4.7.1/../../../../arm-none-eabi/lib/libc.a(lib_a-svfscanf.o)
 .data          0x02076f08        0x0 /opt/devkitpro/devkitARM/lib/gcc/arm-none-eabi/4.7.1/../../../../arm-none-eabi/lib/libc.a(lib_a-sysclose.o)
 .data          0x02076f08        0x0 /opt/devkitpro/devkitARM/lib/gcc/arm-none-eabi/4.7.1/../../../../arm-none-eabi/lib/libc.a(lib_a-syslseek.o)
 .data          0x02076f08        0x0 /opt/devkitpro/devkitARM/lib/gcc/arm-none-eabi/4.7.1/../../../../arm-none-eabi/lib/libc.a(lib_a-sysopen.o)
 .data          0x02076f08        0x0 /opt/devkitpro/devkitARM/lib/gcc/arm-none-eabi/4.7.1/../../../../arm-none-eabi/lib/libc.a(lib_a-sysread.o)
 .data          0x02076f08        0x0 /opt/devkitpro/devkitARM/lib/gcc/arm-none-eabi/4.7.1/../../../../arm-none-eabi/lib/libc.a(lib_a-syswrite.o)
 .data          0x02076f08        0x0 /opt/devkitpro/devkitARM/lib/gcc/arm-none-eabi/4.7.1/../../../../arm-none-eabi/lib/libc.a(lib_a-toupper.o)
 .data          0x02076f08        0x0 /opt/devkitpro/devkitARM/lib/gcc/arm-none-eabi/4.7.1/../../../../arm-none-eabi/lib/libc.a(lib_a-vfiprintf.o)
 .data          0x02076f08        0x0 /opt/devkitpro/devkitARM/lib/gcc/arm-none-eabi/4.7.1/../../../../arm-none-eabi/lib/libc.a(lib_a-vsnprintf.o)
 .data          0x02076f08        0x0 /opt/devkitpro/devkitARM/lib/gcc/arm-none-eabi/4.7.1/../../../../arm-none-eabi/lib/libc.a(lib_a-wbuf.o)
 .data          0x02076f08        0x0 /opt/devkitpro/devkitARM/lib/gcc/arm-none-eabi/4.7.1/../../../../arm-none-eabi/lib/libc.a(lib_a-wcrtomb.o)
 .data          0x02076f08        0x0 /opt/devkitpro/devkitARM/lib/gcc/arm-none-eabi/4.7.1/../../../../arm-none-eabi/lib/libc.a(lib_a-wcsrtombs.o)
 .data          0x02076f08        0x4 /opt/devkitpro/devkitARM/lib/gcc/arm-none-eabi/4.7.1/../../../../arm-none-eabi/lib/libc.a(lib_a-wctomb_r.o)
                0x02076f08                __wctomb
 .data          0x02076f0c        0x0 /opt/devkitpro/devkitARM/lib/gcc/arm-none-eabi/4.7.1/../../../../arm-none-eabi/lib/libc.a(lib_a-wsetup.o)
 .data          0x02076f0c        0x0 /opt/devkitpro/devkitARM/lib/gcc/arm-none-eabi/4.7.1/../../../../arm-none-eabi/lib/libc.a(lib_a-dtoa.o)
 .data          0x02076f0c        0x0 /opt/devkitpro/devkitARM/lib/gcc/arm-none-eabi/4.7.1/../../../../arm-none-eabi/lib/libc.a(lib_a-fflush.o)
 .data          0x02076f0c        0x0 /opt/devkitpro/devkitARM/lib/gcc/arm-none-eabi/4.7.1/../../../../arm-none-eabi/lib/libc.a(lib_a-findfp.o)
 .data          0x02076f0c        0x0 /opt/devkitpro/devkitARM/lib/gcc/arm-none-eabi/4.7.1/../../../../arm-none-eabi/lib/libc.a(lib_a-fputwc.o)
 .data          0x02076f0c        0x0 /opt/devkitpro/devkitARM/lib/gcc/arm-none-eabi/4.7.1/../../../../arm-none-eabi/lib/libc.a(lib_a-freer.o)
 .data          0x02076f0c        0x0 /opt/devkitpro/devkitARM/lib/gcc/arm-none-eabi/4.7.1/../../../../arm-none-eabi/lib/libc.a(lib_a-fwalk.o)
 .data          0x02076f0c        0x0 /opt/devkitpro/devkitARM/lib/gcc/arm-none-eabi/4.7.1/../../../../arm-none-eabi/lib/libc.a(lib_a-gdtoa-gethex.o)
 .data          0x02076f0c        0x0 /opt/devkitpro/devkitARM/lib/gcc/arm-none-eabi/4.7.1/../../../../arm-none-eabi/lib/libc.a(lib_a-gdtoa-hexnan.o)
 .data          0x02076f0c        0x0 /opt/devkitpro/devkitARM/lib/gcc/arm-none-eabi/4.7.1/../../../../arm-none-eabi/lib/libc.a(lib_a-iswspace.o)
 .data          0x02076f0c        0x0 /opt/devkitpro/devkitARM/lib/gcc/arm-none-eabi/4.7.1/../../../../arm-none-eabi/lib/libc.a(lib_a-jp2uc.o)
 .data          0x02076f0c      0x17c /opt/devkitpro/devkitARM/lib/gcc/arm-none-eabi/4.7.1/../../../../arm-none-eabi/lib/libc.a(lib_a-locale.o)
                0x02076f0c                __default_locale
                0x0207702c                __mb_cur_max
 .data          0x02077088        0x0 /opt/devkitpro/devkitARM/lib/gcc/arm-none-eabi/4.7.1/../../../../arm-none-eabi/lib/libc.a(lib_a-makebuf.o)
 .data          0x02077088        0x0 /opt/devkitpro/devkitARM/lib/gcc/arm-none-eabi/4.7.1/../../../../arm-none-eabi/lib/libc.a(lib_a-mbrtowc.o)
 .data          0x02077088        0x4 /opt/devkitpro/devkitARM/lib/gcc/arm-none-eabi/4.7.1/../../../../arm-none-eabi/lib/libc.a(lib_a-mbtowc_r.o)
                0x02077088                __mbtowc
 .data          0x0207708c        0x0 /opt/devkitpro/devkitARM/lib/gcc/arm-none-eabi/4.7.1/../../../../arm-none-eabi/lib/libc.a(lib_a-mprec.o)
 .data          0x0207708c        0x0 /opt/devkitpro/devkitARM/lib/gcc/arm-none-eabi/4.7.1/../../../../arm-none-eabi/lib/libc.a(lib_a-sccl.o)
 .data          0x0207708c        0x0 /opt/devkitpro/devkitARM/lib/gcc/arm-none-eabi/4.7.1/../../../../arm-none-eabi/lib/libc.a(lib_a-sf_nan.o)
 .data          0x0207708c        0x0 /opt/devkitpro/devkitARM/lib/gcc/arm-none-eabi/4.7.1/../../../../arm-none-eabi/lib/libc.a(lib_a-strcasecmp.o)
 .data          0x0207708c        0x0 /opt/devkitpro/devkitARM/lib/gcc/arm-none-eabi/4.7.1/../../../../arm-none-eabi/lib/libc.a(lib_a-strlcpy.o)
 .data          0x0207708c        0x0 /opt/devkitpro/devkitARM/lib/gcc/arm-none-eabi/4.7.1/../../../../arm-none-eabi/lib/libc.a(lib_a-strncasecmp.o)
 .data          0x0207708c        0x0 /opt/devkitpro/devkitARM/lib/gcc/arm-none-eabi/4.7.1/../../../../arm-none-eabi/lib/libc.a(lib_a-strtoul.o)
 .data          0x0207708c        0x0 /opt/devkitpro/devkitARM/lib/gcc/arm-none-eabi/4.7.1/../../../../arm-none-eabi/lib/libc.a(lib_a-strtoull_r.o)
 .data          0x0207708c        0x0 /opt/devkitpro/devkitARM/lib/gcc/arm-none-eabi/4.7.1/../../../../arm-none-eabi/lib/libc.a(lib_a-svfiprintf.o)
 .data          0x0207708c        0x0 /opt/devkitpro/devkitARM/lib/gcc/arm-none-eabi/4.7.1/../../../../arm-none-eabi/lib/libc.a(lib_a-svfiscanf.o)
 .data          0x0207708c        0x0 /opt/devkitpro/devkitARM/lib/gcc/arm-none-eabi/4.7.1/../../../../arm-none-eabi/lib/libc.a(lib_a-ungetc.o)
 .data          0x0207708c        0x0 /opt/devkitpro/devkitARM/lib/gcc/arm-none-eabi/4.7.1/../../../../arm-none-eabi/lib/libc.a(lib_a-wcsnrtombs.o)
 .data          0x0207708c        0x0 /opt/devkitpro/devkitARM/lib/gcc/arm-none-eabi/4.7.1/../../../../arm-none-eabi/lib/libc.a(lib_a-fclose.o)
 .data          0x0207708c        0x0 /opt/devkitpro/devkitARM/lib/gcc/arm-none-eabi/4.7.1/../../../../arm-none-eabi/lib/libc.a(lib_a-getenv_r.o)
 .data          0x0207708c        0x4 /opt/devkitpro/devkitARM/lib/gcc/arm-none-eabi/4.7.1/../../../../arm-none-eabi/lib/libc.a(lib_a-environ.o)
                0x0207708c                environ
 .data          0x02077090        0x0 /opt/devkitpro/devkitARM/lib/gcc/arm-none-eabi/4.7.1/../../../../arm-none-eabi/lib/libc.a(lib_a-envlock.o)
 .data          0x02077090        0x0 /opt/devkitpro/devkitARM/lib/gcc/arm-none-eabi/4.7.1/../../../../arm-none-eabi/lib/libsysbase.a(close.o)
 .data          0x02077090        0x0 /opt/devkitpro/devkitARM/lib/gcc/arm-none-eabi/4.7.1/../../../../arm-none-eabi/lib/libsysbase.a(fstat.o)
 .data          0x02077090        0x0 /opt/devkitpro/devkitARM/lib/gcc/arm-none-eabi/4.7.1/../../../../arm-none-eabi/lib/libsysbase.a(getpid.o)
 .data          0x02077090        0x0 /opt/devkitpro/devkitARM/lib/gcc/arm-none-eabi/4.7.1/../../../../arm-none-eabi/lib/libsysbase.a(isatty.o)
 .data          0x02077090        0x0 /opt/devkitpro/devkitARM/lib/gcc/arm-none-eabi/4.7.1/../../../../arm-none-eabi/lib/libsysbase.a(kill.o)
 .data          0x02077090        0x0 /opt/devkitpro/devkitARM/lib/gcc/arm-none-eabi/4.7.1/../../../../arm-none-eabi/lib/libsysbase.a(lseek.o)
 .data          0x02077090        0x0 /opt/devkitpro/devkitARM/lib/gcc/arm-none-eabi/4.7.1/../../../../arm-none-eabi/lib/libsysbase.a(open.o)
 .data          0x02077090        0x0 /opt/devkitpro/devkitARM/lib/gcc/arm-none-eabi/4.7.1/../../../../arm-none-eabi/lib/libsysbase.a(read.o)
 .data          0x02077090        0x0 /opt/devkitpro/devkitARM/lib/gcc/arm-none-eabi/4.7.1/../../../../arm-none-eabi/lib/libsysbase.a(sbrk.o)
 .data          0x02077090        0x0 /opt/devkitpro/devkitARM/lib/gcc/arm-none-eabi/4.7.1/../../../../arm-none-eabi/lib/libsysbase.a(times.o)
 .data          0x02077090        0x0 /opt/devkitpro/devkitARM/lib/gcc/arm-none-eabi/4.7.1/../../../../arm-none-eabi/lib/libsysbase.a(write.o)
 .data          0x02077090        0x0 /opt/devkitpro/devkitARM/lib/gcc/arm-none-eabi/4.7.1/../../../../arm-none-eabi/lib/libsysbase.a(_exit.o)
 .data          0x02077090        0x0 /opt/devkitpro/devkitARM/lib/gcc/arm-none-eabi/4.7.1/../../../../arm-none-eabi/lib/libsysbase.a(malloc_vars.o)
 .data          0x02077090        0x0 /opt/devkitpro/devkitARM/lib/gcc/arm-none-eabi/4.7.1/../../../../arm-none-eabi/lib/libsysbase.a(build_argv.o)
 .data          0x02077090        0x0 /opt/devkitpro/devkitARM/lib/gcc/arm-none-eabi/4.7.1/../../../../arm-none-eabi/lib/libsysbase.a(syscall_support.o)
 .data          0x02077090        0x0 /opt/devkitpro/devkitARM/lib/gcc/arm-none-eabi/4.7.1/../../../../arm-none-eabi/lib/libsysbase.a(handle_manager.o)
 .data          0x02077090       0x44 /opt/devkitpro/devkitARM/lib/gcc/arm-none-eabi/4.7.1/../../../../arm-none-eabi/lib/libsysbase.a(iosupport.o)
                0x02077094                devoptab_list
 .data          0x020770d4        0x0 /opt/devkitpro/devkitARM/lib/gcc/arm-none-eabi/4.7.1/crtend.o
 .data          0x020770d4        0x0 /opt/devkitpro/devkitARM/lib/gcc/arm-none-eabi/4.7.1/crtn.o
 *(.data.*)
 .data._ZN10__cxxabiv120__unexpected_handlerE
                0x020770d4        0x4 /opt/devkitpro/devkitARM/lib/gcc/arm-none-eabi/4.7.1/../../../../arm-none-eabi/lib/libstdc++.a(eh_unex_handler.o)
                0x020770d4                __cxxabiv1::__unexpected_handler
 .data._ZN10__cxxabiv119__terminate_handlerE
                0x020770d8        0x4 /opt/devkitpro/devkitARM/lib/gcc/arm-none-eabi/4.7.1/../../../../arm-none-eabi/lib/libstdc++.a(eh_term_handler.o)
                0x020770d8                __cxxabiv1::__terminate_handler
 *(.gnu.linkonce.d*)
 *(.ITCM_libsnd_gme_DATA .IWRAM_proc_AudioCustom)
 .IWRAM_proc_AudioCustom
                0x020770dc      0x1b0 proc_AudioCustom.o
 .ITCM_libsnd_gme_DATA
                0x0207728c      0x624 plug_gme.o
                0x020778b0                . = ALIGN (0x4)
                0x020778b0                __data_end = ABSOLUTE (.)
                0x020778b0                __dtcm_lma = .
                0x020778b0                __bss_vma = .

.igot.plt       0x020778b0        0x0
 .igot.plt      0x00000000        0x0 cglfont.o

.tm_clone_table
                0x020778b0        0x0
 .tm_clone_table
                0x020778b0        0x0 /opt/devkitpro/devkitARM/lib/gcc/arm-none-eabi/4.7.1/crtbegin.o
 .tm_clone_table
                0x020778b0        0x0 /opt/devkitpro/devkitARM/lib/gcc/arm-none-eabi/4.7.1/crtend.o

.dtcm           0x0b000000      0x338 load address 0x020778b0
                0x0b000000                Image_ER_DTCM_Base = .
                0x020778b0                Load_ER_DTCM_Base = __dtcm_lma
 *(.dtcm)
 .dtcm          0x0b000000       0x38 strpcm.o
                0x0b000000                strpcm_ExclusivePause
                0x0b000004                strpcmRingBufReadIndex
                0x0b000008                strpcmRingBufWriteIndex
                0x0b00000c                strpcmRingEmptyFlag
                0x0b00000d                strpcm_UseLoopOnOverflow
                0x0b000010                strpcmRingLRBuf
                0x0b000014                DPGAudioStream_PregapSamples
                0x0b000018                DPGAudioStream_SyncSamples
                0x0b000020                VBlankPassedFlag
                0x0b000024                VBlankPassedCount
                0x0b000029                strpcmRequestStop
 .dtcm          0x0b000038      0x300 gba_nds_fat.o
                0x0b000038                curWorkDirPath
                0x0b000138                lfnNameUnicode
 *(.dtcm.*)
                0x0b000338                . = ALIGN (0x4)
                0x0b000338                __dtcm_end = ABSOLUTE (.)
                0x00000338                Image_ER_DTCM_Length = SIZEOF (.dtcm)
                0x02077be8                __itcm_lma = (__dtcm_lma + SIZEOF (.dtcm))

.itcm           0x01ff8100      0x7e0 load address 0x02077be8
 *(.ITCM)
 *(.ITCM_Global)
 .ITCM_Global   0x01ff8100      0x140 strpcm.o
 *(.ITCM_MemTool)
 .ITCM_MemTool  0x01ff8240      0x19c memtool.o
                0x01ff8240                MemCopy32CPU(void const*, void*, unsigned int)
                0x01ff828c                MemCopy16CPU(void const*, void*, unsigned int)
                0x01ff82e8                MemCopy8CPU(void const*, void*, unsigned int)
                0x01ff8344                MemSet8CPU(unsigned char, void*, unsigned int)
                0x01ff8360                MemSet16CPU(unsigned short, void*, unsigned int)
                0x01ff837c                MemSet32CPU(unsigned int, void*, unsigned int)
 *(.ITCM_GLIB)
 .ITCM_GLIB     0x01ff83dc       0xb8 cglcanvas.o
                0x01ff83dc                CglCanvas::GetVRAMBuf() const
                0x01ff83e4                CglCanvas::SetVRAMBuf(unsigned short*, int, int, EPixelFormat)
 .ITCM_GLIB     0x01ff8494      0x2b8 cglscreenmain.o
                0x01ff8494                CglScreenMain::Flip_FlickerFree()
                0x01ff8558                CglScreenMain::FlipForVSyncAuto()
                0x01ff859c                CglScreenMain::SetBlendLevelManual(int, int)
                0x01ff8638                CglScreenMain::SetBlendLevel(int)
                0x01ff8644                CglScreenMain::Flip_FlickerFree_FromInterrupt()
                0x01ff868c                CglScreenMain::Flip(bool)
 *(*.itcm *.itcm.*)
 .itcm          0x01ff874c       0xc8 /opt/devkitpro/libnds/lib/libnds9.a(interrupts.o)
                0x01ff874c                irqTable
 .itcm          0x01ff8814       0xcc /opt/devkitpro/libnds/lib/libnds9.a(interruptDispatcher.o)
                0x01ff8814                IntrMain
                0x01ff88e0                . = ALIGN (0x4)
                0x01ff88e0                __itcm_end = ABSOLUTE (.)
                0x020783c8                __vectors_lma = (__itcm_lma + SIZEOF (.itcm))

.vectors        0x01ff8000        0x0 load address 0x020783c8
 *(.vectors)
 *vectors.*(.text)
                0x01ff8000                . = ALIGN (0x4)
                0x01ff8000                __vectors_end = ABSOLUTE (.)

.sbss           0x0b000338        0x0
                0x0b000338                __sbss_start = ABSOLUTE (.)
                0x0b000338                __sbss_start__ = ABSOLUTE (.)
 *(.sbss)
                0x0b000338                . = ALIGN (0x4)
                0x0b000338                __sbss_end = ABSOLUTE (.)

.bss            0x020778b0    0x21f30
                0x020778b0                __bss_start = ABSOLUTE (.)
                0x020778b0                __bss_start__ = ABSOLUTE (.)
 *(.dynbss)
 *(.gnu.linkonce.b*)
 *(.bss*)
 .bss           0x020778b0        0x0 ProgramID.o
 .bss           0x020778b0        0x0 romeo2_ncd.o
 .bss           0x020778b0        0x8 cglfont.o
 .bss           0x020778b8        0x0 cglstream.o
 .bss           0x020778b8        0x0 cgltgf.o
 .bss           0x020778b8        0x0 cstream.o
 .bss           0x020778b8        0x0 cstream_fs.o
 .bss           0x020778b8        0x0 shell_SystemAfter.o
 .bss           0x020778b8        0x0 dll.o
 .bss           0x020778b8        0x0 dllsound.o
 .bss           0x020778b8        0x0 playlist.o
 .bss           0x020778b8       0x10 plug_lyric.o
 .bss           0x020778c8        0x0 fpga_helper.o
 .bss           0x020778c8        0x0 BMPReader.o
 .bss           0x020778c8        0x0 cfont.o
 .bss           0x020778c8        0x0 component.o
 .bss           0x020778c8        0x0 ErrorDialog.o
 .bss           0x020778c8        0x0 msgwin.o
 .bss           0x020778c8        0x0 particle.o
 .bss           0x020778c8        0x0 rect.o
 .bss           0x020778c8       0x10 skin.o
 .bss           0x020778d8        0x0 splash.o
 .bss           0x020778d8        0x0 VideoResume.o
 .bss           0x020778d8        0x0 vramcache.o
 .bss           0x020778d8        0x0 extmem.o
 .bss           0x020778d8        0x0 extmem_DSBM.o
 .bss           0x020778d8        0x0 extmem_EZ3in1.o
 .bss           0x020778d8        0x0 extmem_M3ExtPack.o
 .bss           0x020778d8        0x0 extmem_RawMem.o
 .bss           0x020778d8        0x0 extmem_SuperCard.o
 .bss           0x020778d8        0x0 BootROM.o
 .bss           0x020778d8        0x0 extlink.o
 .bss           0x020778d8        0x0 NDSROMIcon.o
 .bss           0x020778d8        0x0 launchstate.o
 .bss           0x020778d8        0x0 procstate.o
 .bss           0x020778d8        0x0 resume.o
 .bss           0x020778d8        0x0 sndeff.o
 .bss           0x020778d8        0x0 strpcm.o
 .bss           0x020778d8        0x0 snd_click_long_c_bin.o
 .bss           0x020778d8        0x0 snd_click_short_c_bin.o
 .bss           0x020778d8        0x0 datetime.o
 .bss           0x020778d8        0x0 md5c.o
 .bss           0x020778d8        0x0 fastlzss16decpalasm_body.o
 .bss           0x020778d8        0x0 fastlzss16decpalasm.o
 .bss           0x020778d8        0x0 euc2unicode.o
 .bss           0x020778d8        0x0 lang.o
 .bss           0x020778d8        0x0 inifile.o
 .bss           0x020778d8        0x0 proc_chkdsk.o
 .bss           0x020778d8        0x0 proc_setup.o
 .bss           0x020778d8        0x0 proc_FileList.o
 .bss           0x020778d8        0x0 NDSFiles.o
 .bss           0x020778d8        0x0 hiddenpaths.o
 .bss           0x020778d8        0x0 ThumbDPG.o
 .bss           0x020778d8        0x0 ThumbIPK.o
 .bss           0x020778d8        0x0 cipk_simple.o
 .bss           0x020778d8        0x0 proc_sysmenu.o
 .bss           0x020778d8        0x0 proc_DPGCustom.o
 .bss           0x020778d8        0x0 proc_DPGPlay.o
 .bss           0x020778d8        0x0 proc_ImageCustom.o
 .bss           0x020778d8        0x0 proc_ImageView.o
 .bss           0x020778d8        0x0 proc_TextCustom.o
 .bss           0x020778d8        0x0 proc_TextMenu.o
 .bss           0x020778d8        0x0 proc_TextView.o
 .bss           0x020778d8        0x0 cctf.o
 .bss           0x020778d8        0x0 cctf_dfs.o
 .bss           0x020778d8        0x0 proc_BinView.o
 .bss           0x020778d8        0x0 proc_Launch.o
 .bss           0x020778d8        0x0 proc_Custom.o
 .bss           0x020778d8        0x0 proc_BootROM.o
 .bss           0x020778d8        0x0 proc_MemoEdit.o
 .bss           0x020778d8        0x0 proc_MemoList.o
 .bss           0x020778d8        0x0 proc_AudioCustom.o
 .bss           0x020778d8     0x1568 plug_mp3.o
 .bss           0x02078e40        0x0 bit.o
 .bss           0x02078e40        0x0 decoder.o
 .bss           0x02078e40        0x0 fixed.o
 .bss           0x02078e40        0x0 frame.o
 .bss           0x02078e40        0x0 huffman.o
 .bss           0x02078e40        0x0 layer12.o
 .bss           0x02078e40        0x0 layer3.o
 .bss           0x02078e40        0x0 stream.o
 .bss           0x02078e40        0x0 synth.o
 .bss           0x02078e40        0x0 timer.o
 .bss           0x02078e40        0x0 version.o
 .bss           0x02078e40       0xb0 plug_midi.o
 .bss           0x02078ef0      0x288 mtrk.o
 .bss           0x02079178      0x22c pch.o
                0x02079180                MemoryOverflowFlag
 .bss           0x020793a4      0x19c rcplib.o
 .bss           0x02079540        0xc smidlib.o
 .bss           0x0207954c      0x330 smidlib_sm.o
                0x0207954c                StdMIDI
                0x02079870                gME_Text
                0x02079874                gME_Copyright
                0x02079878                gME_Title
 .bss           0x0207987c      0x220 sndfont.o
 .bss           0x02079a9c       0x28 plug_gme.o
 .bss           0x02079ac4        0x0 Ay_Apu.o
 .bss           0x02079ac4        0x0 Ay_Cpu.o
 .bss           0x02079ac4        0x0 Ay_Emu.o
 .bss           0x02079ac4        0x0 Gbs_Emu.o
 .bss           0x02079ac4        0x0 Gb_Apu.o
 .bss           0x02079ac4        0x0 Gb_Cpu.o
 .bss           0x02079ac4        0x0 Gb_Oscs.o
 .bss           0x02079ac4        0x0 gme.o
 .bss           0x02079ac4        0x0 Hes_Apu.o
 .bss           0x02079ac4        0x0 Hes_Cpu.o
 .bss           0x02079ac4        0x0 Hes_Emu.o
 .bss           0x02079ac4        0x0 Kss_Cpu.o
 .bss           0x02079ac4        0x0 Kss_Emu.o
 .bss           0x02079ac4        0x0 Kss_Scc_Apu.o
 .bss           0x02079ac4        0x0 Nes_Apu.o
 .bss           0x02079ac4        0x0 Nes_Cpu.o
 .bss           0x02079ac4        0x0 Nes_Fme7_Apu.o
 .bss           0x02079ac4        0x0 Nes_Namco_Apu.o
 .bss           0x02079ac4        0x0 Nes_Oscs.o
 .bss           0x02079ac4        0x0 Nes_Vrc6_Apu.o
 .bss           0x02079ac4        0x0 Nsf_Emu.o
 .bss           0x02079ac4        0x0 Sap_Apu.o
 .bss           0x02079ac4        0x0 Sap_Cpu.o
 .bss           0x02079ac4        0x0 Sap_Emu.o
 .bss           0x02079ac4        0x0 Sms_Apu.o
 *fill*         0x02079ac4        0x4 00
 .bss           0x02079ac8       0xc8 plug_ogg.o
 .bss           0x02079b90        0x0 bitwise.o
 .bss           0x02079b90        0x0 codebook.o
 .bss           0x02079b90        0x0 floor0.o
 .bss           0x02079b90        0x0 floor1.o
 .bss           0x02079b90        0x0 framing.o
 .bss           0x02079b90        0x0 info.o
 .bss           0x02079b90        0x0 mapping0.o
 .bss           0x02079b90        0x0 _libogg_misc.o
 .bss           0x02079b90        0x0 res012.o
 .bss           0x02079b90        0x4 vorbisfile.o
 .bss           0x02079b94        0x0 _libogg_dsp.o
 .bss           0x02079b94        0x0 _libogg_mdct.o
 .bss           0x02079b94        0x0 plug_wav.o
 *fill*         0x02079b94        0x4 00
 .bss           0x02079b98      0x2d0 plug_jpeg.o
                0x02079bb0                DFS_PrgJpeg_File
 .bss           0x02079e68        0x0 jcomapi.o
 .bss           0x02079e68        0x0 jdapimin.o
 .bss           0x02079e68        0x0 jdapistd.o
 .bss           0x02079e68        0x0 jdatasrc.o
 .bss           0x02079e68        0x0 jdcoefct.o
 .bss           0x02079e68        0x0 jdcolor.o
 .bss           0x02079e68        0x0 jddctmgr.o
 .bss           0x02079e68        0x0 jdhuff.o
 .bss           0x02079e68        0x0 jdinput.o
 .bss           0x02079e68        0x0 jdmainct.o
 .bss           0x02079e68        0x0 jdmarker.o
 .bss           0x02079e68        0x0 jdmaster.o
 .bss           0x02079e68        0x0 jdmerge.o
 .bss           0x02079e68        0x0 jdphuff.o
 .bss           0x02079e68        0x0 jdpostct.o
 .bss           0x02079e68        0x0 jdsample.o
 .bss           0x02079e68        0x0 jerror.o
 .bss           0x02079e68        0x0 jidctfst.o
 .bss           0x02079e68        0x0 jidctred.o
 .bss           0x02079e68        0x0 jmemansi.o
 .bss           0x02079e68        0x0 jmemmgr.o
 .bss           0x02079e68        0x0 jquant1.o
 .bss           0x02079e68        0x0 jutils.o
 .bss           0x02079e68      0x43c plug_png.o
                0x02079e68                DecodedScanLine
                0x02079e6c                read_ptr
                0x02079e70                row_buf
                0x02079e74                read_info_ptr
                0x02079e78                end_info_ptr
 .bss           0x0207a2a4        0x0 png.o
 .bss           0x0207a2a4        0x0 pngerror.o
 .bss           0x0207a2a4        0x0 pngget.o
 .bss           0x0207a2a4        0x0 pngmem.o
 .bss           0x0207a2a4        0x0 pngread.o
 .bss           0x0207a2a4        0x0 pngrio.o
 .bss           0x0207a2a4        0x0 pngrtran.o
 .bss           0x0207a2a4        0x0 pngrutil.o
 .bss           0x0207a2a4        0x0 pngset.o
 .bss           0x0207a2a4        0x0 pngtrans.o
 .bss           0x0207a2a4        0xc plug_bmp.o
 .bss           0x0207a2b0      0x418 plug_gif.o
                0x0207a2b0                readFunc_FileHandle
                0x0207a2b4                GIFInfo
                0x0207a6c0                BitmapWidth
                0x0207a6c4                pBitmap
 .bss           0x0207a6c8        0x0 dgif_lib.o
 .bss           0x0207a6c8        0x4 gif_err.o
                0x0207a6c8                _GifError
 .bss           0x0207a6cc        0x0 gifalloc.o
 .bss           0x0207a6cc      0x44c plug_psd.o
                0x0207aaf0                pDstBuf
                0x0207ab14                pSrcBuf
 .bss           0x0207ab18        0x8 alloc.o
 .bss           0x0207ab20        0x0 clibdpg.o
 .bss           0x0207ab20        0x0 clibmpg.o
 .bss           0x0207ab20        0x0 decode.o
 .bss           0x0207ab20        0x0 header.o
 .bss           0x0207ab20        0x0 idct.o
 .bss           0x0207ab20        0x0 motion_comp.o
 .bss           0x0207ab20        0x0 motion_comp_arm.o
 .bss           0x0207ab20        0x0 plug_dpg.o
 .bss           0x0207ab20        0x0 plug_mp2.o
 .bss           0x0207ab20        0x0 slice.o
 .bss           0x0207ab20        0x0 _dpgfs.o
 .bss           0x0207ab20        0xc plug_srttitle.o
 .bss           0x0207ab2c      0x220 plug_ndsrom.o
 .bss           0x0207ad4c        0x0 Blip_Buffer.o
 .bss           0x0207ad4c        0x0 Classic_Emu.o
 .bss           0x0207ad4c        0x0 Data_Reader.o
 .bss           0x0207ad4c        0x0 Effects_Buffer.o
 .bss           0x0207ad4c        0x0 Gme_File.o
 .bss           0x0207ad4c        0x0 Multi_Buffer.o
 .bss           0x0207ad4c        0x0 Music_Emu.o
 .bss           0x0207ad4c        0x0 /opt/devkitpro/devkitARM/lib/gcc/arm-none-eabi/4.7.1/../../../../arm-none-eabi/lib/ds_arm9_crt0.o
 .bss           0x0207ad4c        0x0 /opt/devkitpro/devkitARM/lib/gcc/arm-none-eabi/4.7.1/crti.o
 .bss           0x0207ad4c       0x1c /opt/devkitpro/devkitARM/lib/gcc/arm-none-eabi/4.7.1/crtbegin.o
 .bss           0x0207ad68     0x8124 _console.o
 .bss           0x02082e8c        0x0 _consoleWriteLog.o
 .bss           0x02082e8c       0x88 main.o
                0x02082f0c                pDTCMEND
                0x02082f10                pMTCMEND
 .bss           0x02082f14        0x0 cglb15.o
 .bss           0x02082f14      0x100 cglcanvas.o
 .bss           0x02083014        0x8 cglscreenmain.o
                0x02083014                InterruptVsync_RequestFlickerFree
 .bss           0x0208301c       0x60 cglscreenoverlay.o
 .bss           0x0208307c       0x60 cglscreensub.o
 .bss           0x020830dc        0xc glglobal.o
                0x020830dc                pScreenMain
                0x020830e0                pScreenMainOverlay
                0x020830e4                pScreenSub
 .bss           0x020830e8        0x0 glmemtool.o
 .bss           0x020830e8      0x224 OverlayManager.o
 .bss           0x0208330c       0x9c memtool.o
                0x02083310                safemalloc_CallBack_RequestFreeMemory_PlugSound
                0x02083314                safemalloc_CallBack_RequestFreeMemory_PlugImage
                0x02083318                MM_System
                0x02083324                MM_SystemAfter
                0x02083330                MM_Skin
                0x0208333c                MM_DLLImage
                0x02083348                MM_DLLSound
                0x02083354                MM_DLLDPG
                0x02083360                MM_PlayList
                0x0208336c                MM_Temp
                0x02083378                MMEnum
                0x0208339c                MM_Process
 .bss           0x020833a8      0x50c shell.o
                0x020835b0                Shell_FAT_fopen_fullfn
 .bss           0x020838b4      0x224 sndeff_dfs.o
 .bss           0x02083ad8        0x0 strtool.o
 .bss           0x02083ad8      0x200 unicode.o
 .bss           0x02083cd8        0x0 zlibhelp.o
 .bss           0x02083cd8     0x830c disc_io.o
                0x02083cd8                active_interface
                0x0208bde0                disc_isGBACartridge
 .bss           0x0208bfe4      0x288 fat2.o
 .bss           0x0208c26c     0x9800 gba_nds_fat.o
                0x0208c26c                openFiles
                0x0208d46c                filesysSecPerClus
                0x0208d470                filesysData
                0x0208d478                filesysType
                0x0208d47c                fatBuffer
                0x0208d67c                filesysFAT
                0x0208d680                fatBufferCurSector
                0x0208d6a4                filesysBytePerSec
                0x0208d6a8                wrkDirCluster
                0x0208d6ac                wrkDirOffset
                0x0208d6b0                wrkDirSector
                0x0208d6b4                filesysRootDir
                0x0208d6b8                globalBuffer
                0x0208d8b8                curWorkDirCluster
                0x0208d8bc                filesysRootDirClus
                0x0208d8c0                fatLastCluster
                0x0208d8c4                filesysSecPerFAT
                0x0208d8c8                fatFirstFree
                0x0208d8cc                filesysVolumeLabel
                0x0208d8d8                filesysNumSec
                0x0208d8dc                filesysBytePerClus
                0x0208d8e0                filesysTotalSize
                0x0208d8e4                curDirChengeFlag
                0x0208d8e5                lfnExists
                0x020959e9                ShowSplashUpdate
 .bss           0x02095a6c        0x0 Dual_Resampler.o
 .bss           0x02095a6c        0x0 Fir_Resampler.o
 .bss           0x02095a6c        0x0 Gym_Emu.o
 .bss           0x02095a6c        0x0 M3u_Playlist.o
 .bss           0x02095a6c        0x0 Nsfe_Emu.o
 .bss           0x02095a6c        0x0 Snes_Spc.o
 .bss           0x02095a6c        0x0 Spc_Cpu.o
 .bss           0x02095a6c        0x0 Spc_Dsp.o
 .bss           0x02095a6c        0x0 Spc_Emu.o
 .bss           0x02095a6c        0x0 Vgm_Emu.o
 .bss           0x02095a6c        0x0 Vgm_Emu_Impl.o
 .bss           0x02095a6c        0x0 Ym2413_Emu.o
 .bss           0x02095a6c        0x0 Ym2612_Emu.o
 .bss           0x02095a6c        0x0 _console_font_fixed6x6_packed_bin.o
 .bss           0x02095a6c        0x0 bootwarn_b8zlib.o
 .bss           0x02095a6c        0x0 guidxcrcerror_b8zlib.o
 .bss           0x02095a6c        0x0 versionerror_b8zlib.o
 .bss           0x02095a6c        0x0 adler32.o
 .bss           0x02095a6c      0x400 crc32.o
 .bss           0x02095e6c        0x0 deflate.o
 .bss           0x02095e6c      0x88c infback.o
 .bss           0x020966f8        0x0 inffast.o
 .bss           0x020966f8      0x88c inflate.o
 .bss           0x02096f84        0x0 inftrees.o
 .bss           0x02096f84        0x0 trees.o
 .bss           0x02096f84        0x0 zutil.o
 .bss           0x02096f84        0x0 floor_lookup.o
 .bss           0x02096f84        0x0 motion_comp_arm_s.o
 .bss           0x02096f84        0x0 jpeg_idct_ifast_clip_asm.o
 .bss           0x02096f84        0x4 /opt/devkitpro/libnds/lib/libnds9.a(system.o)
 .bss           0x02096f88        0x0 /opt/devkitpro/libnds/lib/libnds9.a(video.o)
 .bss           0x02096f88        0x0 /opt/devkitpro/libnds/lib/libnds9.a(dldi.o)
 .bss           0x02096f88        0x0 /opt/devkitpro/libnds/lib/libnds9.a(initSystem.o)
 .bss           0x02096f88        0x8 /opt/devkitpro/libnds/lib/libnds9.a(fifosystem.o)
                0x02096f8c                processing
 .bss           0x02096f90        0x0 /opt/devkitpro/libnds/lib/libnds9.a(interrupts.o)
 .bss           0x02096f90        0x0 /opt/devkitpro/libnds/lib/libnds9.a(libnds_exit.arm.o)
 .bss           0x02096f90        0x0 /opt/devkitpro/libnds/lib/libnds9.a(dcache.o)
 .bss           0x02096f90        0x0 /opt/devkitpro/libnds/lib/libnds9.a(icache.o)
 .bss           0x02096f90        0x0 /opt/devkitpro/libnds/lib/libnds9.a(dldi_stub.o)
 .bss           0x02096f90        0x0 /opt/devkitpro/libnds/lib/libnds9.a(mpu_setup.o)
 .bss           0x02096f90        0x0 /opt/devkitpro/libnds/lib/libnds9.a(biosCalls.o)
 .bss           0x02096f90        0x0 /opt/devkitpro/libnds/lib/libnds9.a(debugprint.o)
 .bss           0x02096f90        0x0 /opt/devkitpro/libnds/lib/libnds9.a(interruptDispatcher.o)
 .bss           0x02096f90        0x0 /opt/devkitpro/libnds/lib/libnds9.a(swiSoftReset.o)
 .bss           0x02096f90        0x0 /opt/devkitpro/devkitARM/lib/gcc/arm-none-eabi/4.7.1/../../../../arm-none-eabi/lib/libstdc++.a(del_op.o)
 .bss           0x02096f90        0x0 /opt/devkitpro/devkitARM/lib/gcc/arm-none-eabi/4.7.1/../../../../arm-none-eabi/lib/libstdc++.a(new_op.o)
 .bss           0x02096f90        0x0 /opt/devkitpro/devkitARM/lib/gcc/arm-none-eabi/4.7.1/../../../../arm-none-eabi/lib/libstdc++.a(pure.o)
 .bss           0x02096f90        0x0 /opt/devkitpro/devkitARM/lib/gcc/arm-none-eabi/4.7.1/../../../../arm-none-eabi/lib/libstdc++.a(bad_alloc.o)
 .bss           0x02096f90        0x0 /opt/devkitpro/devkitARM/lib/gcc/arm-none-eabi/4.7.1/../../../../arm-none-eabi/lib/libstdc++.a(eh_alloc.o)
 .bss._ZL15dependents_used
                0x02096f90        0x4 /opt/devkitpro/devkitARM/lib/gcc/arm-none-eabi/4.7.1/../../../../arm-none-eabi/lib/libstdc++.a(eh_alloc.o)
 *fill*         0x02096f94        0x4 00
 .bss._ZL17dependents_buffer
                0x02096f98      0x1e0 /opt/devkitpro/devkitARM/lib/gcc/arm-none-eabi/4.7.1/../../../../arm-none-eabi/lib/libstdc++.a(eh_alloc.o)
 .bss._ZL14emergency_used
                0x02097178        0x4 /opt/devkitpro/devkitARM/lib/gcc/arm-none-eabi/4.7.1/../../../../arm-none-eabi/lib/libstdc++.a(eh_alloc.o)
 *fill*         0x0209717c        0x4 00
 .bss._ZL16emergency_buffer
                0x02097180      0x800 /opt/devkitpro/devkitARM/lib/gcc/arm-none-eabi/4.7.1/../../../../arm-none-eabi/lib/libstdc++.a(eh_alloc.o)
 .bss           0x02097980        0x0 /opt/devkitpro/devkitARM/lib/gcc/arm-none-eabi/4.7.1/../../../../arm-none-eabi/lib/libstdc++.a(eh_arm.o)
 .bss           0x02097980        0x0 /opt/devkitpro/devkitARM/lib/gcc/arm-none-eabi/4.7.1/../../../../arm-none-eabi/lib/libstdc++.a(eh_call.o)
 .bss           0x02097980        0x0 /opt/devkitpro/devkitARM/lib/gcc/arm-none-eabi/4.7.1/../../../../arm-none-eabi/lib/libstdc++.a(eh_catch.o)
 .bss           0x02097980        0x0 /opt/devkitpro/devkitARM/lib/gcc/arm-none-eabi/4.7.1/../../../../arm-none-eabi/lib/libstdc++.a(eh_exception.o)
 .bss           0x02097980        0x0 /opt/devkitpro/devkitARM/lib/gcc/arm-none-eabi/4.7.1/../../../../arm-none-eabi/lib/libstdc++.a(eh_globals.o)
 .bss._ZL10eh_globals
                0x02097980        0xc /opt/devkitpro/devkitARM/lib/gcc/arm-none-eabi/4.7.1/../../../../arm-none-eabi/lib/libstdc++.a(eh_globals.o)
 .bss           0x0209798c        0x0 /opt/devkitpro/devkitARM/lib/gcc/arm-none-eabi/4.7.1/../../../../arm-none-eabi/lib/libstdc++.a(eh_personality.o)
 .bss           0x0209798c        0x0 /opt/devkitpro/devkitARM/lib/gcc/arm-none-eabi/4.7.1/../../../../arm-none-eabi/lib/libstdc++.a(eh_terminate.o)
 .bss           0x0209798c        0x0 /opt/devkitpro/devkitARM/lib/gcc/arm-none-eabi/4.7.1/../../../../arm-none-eabi/lib/libstdc++.a(eh_throw.o)
 .bss           0x0209798c        0x0 /opt/devkitpro/devkitARM/lib/gcc/arm-none-eabi/4.7.1/../../../../arm-none-eabi/lib/libstdc++.a(eh_unex_handler.o)
 .bss           0x0209798c        0x0 /opt/devkitpro/devkitARM/lib/gcc/arm-none-eabi/4.7.1/../../../../arm-none-eabi/lib/libstdc++.a(new_handler.o)
 .bss.__new_handler
                0x0209798c        0x4 /opt/devkitpro/devkitARM/lib/gcc/arm-none-eabi/4.7.1/../../../../arm-none-eabi/lib/libstdc++.a(new_handler.o)
                0x0209798c                __new_handler
 .bss           0x02097990        0x0 /opt/devkitpro/devkitARM/lib/gcc/arm-none-eabi/4.7.1/../../../../arm-none-eabi/lib/libstdc++.a(si_class_type_info.o)
 .bss           0x02097990        0x0 /opt/devkitpro/devkitARM/lib/gcc/arm-none-eabi/4.7.1/../../../../arm-none-eabi/lib/libstdc++.a(tinfo.o)
 .bss           0x02097990        0x0 /opt/devkitpro/devkitARM/lib/gcc/arm-none-eabi/4.7.1/../../../../arm-none-eabi/lib/libstdc++.a(class_type_info.o)
 .bss           0x02097990        0x0 /opt/devkitpro/devkitARM/lib/gcc/arm-none-eabi/4.7.1/../../../../arm-none-eabi/lib/libstdc++.a(eh_term_handler.o)
 .bss           0x02097990        0x0 /opt/devkitpro/devkitARM/lib/gcc/arm-none-eabi/4.7.1/../../../../arm-none-eabi/lib/libstdc++.a(vterminate.o)
 .bss._ZZN9__gnu_cxx27__verbose_terminate_handlerEvE11terminating
                0x02097990        0x1 /opt/devkitpro/devkitARM/lib/gcc/arm-none-eabi/4.7.1/../../../../arm-none-eabi/lib/libstdc++.a(vterminate.o)
 .bss           0x02097991        0x0 /opt/devkitpro/devkitARM/lib/gcc/arm-none-eabi/4.7.1/../../../../arm-none-eabi/lib/libstdc++.a(cp-demangle.o)
 .bss           0x02097991        0x0 /opt/devkitpro/devkitARM/lib/gcc/arm-none-eabi/4.7.1/../../../../arm-none-eabi/lib/libstdc++.a(eh_type.o)
 .bss           0x02097991        0x0 /opt/devkitpro/devkitARM/lib/gcc/arm-none-eabi/4.7.1/../../../../arm-none-eabi/lib/libm.a(lib_a-s_cos.o)
 .bss           0x02097991        0x0 /opt/devkitpro/devkitARM/lib/gcc/arm-none-eabi/4.7.1/../../../../arm-none-eabi/lib/libm.a(lib_a-s_fabs.o)
 .bss           0x02097991        0x0 /opt/devkitpro/devkitARM/lib/gcc/arm-none-eabi/4.7.1/../../../../arm-none-eabi/lib/libm.a(lib_a-s_floor.o)
 .bss           0x02097991        0x0 /opt/devkitpro/devkitARM/lib/gcc/arm-none-eabi/4.7.1/../../../../arm-none-eabi/lib/libm.a(lib_a-s_sin.o)
 .bss           0x02097991        0x0 /opt/devkitpro/devkitARM/lib/gcc/arm-none-eabi/4.7.1/../../../../arm-none-eabi/lib/libm.a(lib_a-sf_fabs.o)
 .bss           0x02097991        0x0 /opt/devkitpro/devkitARM/lib/gcc/arm-none-eabi/4.7.1/../../../../arm-none-eabi/lib/libm.a(lib_a-w_fmod.o)
 .bss           0x02097991        0x0 /opt/devkitpro/devkitARM/lib/gcc/arm-none-eabi/4.7.1/../../../../arm-none-eabi/lib/libm.a(lib_a-w_log10.o)
 .bss           0x02097991        0x0 /opt/devkitpro/devkitARM/lib/gcc/arm-none-eabi/4.7.1/../../../../arm-none-eabi/lib/libm.a(lib_a-w_pow.o)
 .bss           0x02097991        0x0 /opt/devkitpro/devkitARM/lib/gcc/arm-none-eabi/4.7.1/../../../../arm-none-eabi/lib/libm.a(lib_a-e_fmod.o)
 .bss           0x02097991        0x0 /opt/devkitpro/devkitARM/lib/gcc/arm-none-eabi/4.7.1/../../../../arm-none-eabi/lib/libm.a(lib_a-e_log10.o)
 .bss           0x02097991        0x0 /opt/devkitpro/devkitARM/lib/gcc/arm-none-eabi/4.7.1/../../../../arm-none-eabi/lib/libm.a(lib_a-e_pow.o)
 .bss           0x02097991        0x0 /opt/devkitpro/devkitARM/lib/gcc/arm-none-eabi/4.7.1/../../../../arm-none-eabi/lib/libm.a(lib_a-e_rem_pio2.o)
 .bss           0x02097991        0x0 /opt/devkitpro/devkitARM/lib/gcc/arm-none-eabi/4.7.1/../../../../arm-none-eabi/lib/libm.a(lib_a-e_sqrt.o)
 .bss           0x02097991        0x0 /opt/devkitpro/devkitARM/lib/gcc/arm-none-eabi/4.7.1/../../../../arm-none-eabi/lib/libm.a(lib_a-k_cos.o)
 .bss           0x02097991        0x0 /opt/devkitpro/devkitARM/lib/gcc/arm-none-eabi/4.7.1/../../../../arm-none-eabi/lib/libm.a(lib_a-k_rem_pio2.o)
 .bss           0x02097991        0x0 /opt/devkitpro/devkitARM/lib/gcc/arm-none-eabi/4.7.1/../../../../arm-none-eabi/lib/libm.a(lib_a-k_sin.o)
 .bss           0x02097991        0x0 /opt/devkitpro/devkitARM/lib/gcc/arm-none-eabi/4.7.1/../../../../arm-none-eabi/lib/libm.a(lib_a-s_finite.o)
 .bss           0x02097991        0x0 /opt/devkitpro/devkitARM/lib/gcc/arm-none-eabi/4.7.1/../../../../arm-none-eabi/lib/libm.a(lib_a-s_fpclassify.o)
 .bss           0x02097991        0x0 /opt/devkitpro/devkitARM/lib/gcc/arm-none-eabi/4.7.1/../../../../arm-none-eabi/lib/libm.a(lib_a-s_lib_ver.o)
 .bss           0x02097991        0x0 /opt/devkitpro/devkitARM/lib/gcc/arm-none-eabi/4.7.1/../../../../arm-none-eabi/lib/libm.a(lib_a-s_matherr.o)
 .bss           0x02097991        0x0 /opt/devkitpro/devkitARM/lib/gcc/arm-none-eabi/4.7.1/../../../../arm-none-eabi/lib/libm.a(lib_a-s_nan.o)
 .bss           0x02097991        0x0 /opt/devkitpro/devkitARM/lib/gcc/arm-none-eabi/4.7.1/../../../../arm-none-eabi/lib/libm.a(lib_a-s_rint.o)
 .bss           0x02097991        0x0 /opt/devkitpro/devkitARM/lib/gcc/arm-none-eabi/4.7.1/../../../../arm-none-eabi/lib/libm.a(lib_a-s_scalbn.o)
 .bss           0x02097991        0x0 /opt/devkitpro/devkitARM/lib/gcc/arm-none-eabi/4.7.1/../../../../arm-none-eabi/lib/libm.a(lib_a-e_log.o)
 .bss           0x02097991        0x0 /opt/devkitpro/devkitARM/lib/gcc/arm-none-eabi/4.7.1/../../../../arm-none-eabi/lib/libm.a(lib_a-s_copysign.o)
 .bss           0x02097991        0x0 /opt/devkitpro/devkitARM/lib/gcc/arm-none-eabi/4.7.1/libgcc.a(_udivsi3.o)
 .bss           0x02097991        0x0 /opt/devkitpro/devkitARM/lib/gcc/arm-none-eabi/4.7.1/libgcc.a(_divsi3.o)
 .bss           0x02097991        0x0 /opt/devkitpro/devkitARM/lib/gcc/arm-none-eabi/4.7.1/libgcc.a(_dvmd_tls.o)
 .bss           0x02097991        0x0 /opt/devkitpro/devkitARM/lib/gcc/arm-none-eabi/4.7.1/libgcc.a(_arm_addsubdf3.o)
 .bss           0x02097991        0x0 /opt/devkitpro/devkitARM/lib/gcc/arm-none-eabi/4.7.1/libgcc.a(_arm_muldivdf3.o)
 .bss           0x02097991        0x0 /opt/devkitpro/devkitARM/lib/gcc/arm-none-eabi/4.7.1/libgcc.a(_arm_cmpdf2.o)
 .bss           0x02097991        0x0 /opt/devkitpro/devkitARM/lib/gcc/arm-none-eabi/4.7.1/libgcc.a(_arm_fixdfsi.o)
 .bss           0x02097991        0x0 /opt/devkitpro/devkitARM/lib/gcc/arm-none-eabi/4.7.1/libgcc.a(_arm_fixunsdfsi.o)
 .bss           0x02097991        0x0 /opt/devkitpro/devkitARM/lib/gcc/arm-none-eabi/4.7.1/libgcc.a(_arm_truncdfsf2.o)
 .bss           0x02097991        0x0 /opt/devkitpro/devkitARM/lib/gcc/arm-none-eabi/4.7.1/libgcc.a(_arm_addsubsf3.o)
 .bss           0x02097991        0x0 /opt/devkitpro/devkitARM/lib/gcc/arm-none-eabi/4.7.1/libgcc.a(_arm_muldivsf3.o)
 .bss           0x02097991        0x0 /opt/devkitpro/devkitARM/lib/gcc/arm-none-eabi/4.7.1/libgcc.a(_arm_cmpsf2.o)
 .bss           0x02097991        0x0 /opt/devkitpro/devkitARM/lib/gcc/arm-none-eabi/4.7.1/libgcc.a(_arm_fixsfsi.o)
 .bss           0x02097991        0x0 /opt/devkitpro/devkitARM/lib/gcc/arm-none-eabi/4.7.1/libgcc.a(_arm_fixunssfsi.o)
 .bss           0x02097991        0x0 /opt/devkitpro/devkitARM/lib/gcc/arm-none-eabi/4.7.1/libgcc.a(_aeabi_ldivmod.o)
 .bss           0x02097991        0x0 /opt/devkitpro/devkitARM/lib/gcc/arm-none-eabi/4.7.1/libgcc.a(_aeabi_uldivmod.o)
 .bss           0x02097991        0x0 /opt/devkitpro/devkitARM/lib/gcc/arm-none-eabi/4.7.1/libgcc.a(bpabi.o)
 .bss           0x02097991        0x0 /opt/devkitpro/devkitARM/lib/gcc/arm-none-eabi/4.7.1/libgcc.a(unwind-arm.o)
 .bss           0x02097991        0x0 /opt/devkitpro/devkitARM/lib/gcc/arm-none-eabi/4.7.1/libgcc.a(libunwind.o)
 .bss           0x02097991        0x0 /opt/devkitpro/devkitARM/lib/gcc/arm-none-eabi/4.7.1/libgcc.a(pr-support.o)
 .bss           0x02097991        0x0 /opt/devkitpro/devkitARM/lib/gcc/arm-none-eabi/4.7.1/libgcc.a(_divdi3.o)
 .bss           0x02097991        0x0 /opt/devkitpro/devkitARM/lib/gcc/arm-none-eabi/4.7.1/libgcc.a(_udivdi3.o)
 .bss           0x02097991        0x0 /opt/devkitpro/devkitARM/lib/gcc/arm-none-eabi/4.7.1/libgcc.a(_clzsi2.o)
 .bss           0x02097991        0x0 /opt/devkitpro/devkitARM/lib/gcc/arm-none-eabi/4.7.1/../../../../arm-none-eabi/lib/libc.a(lib_a-abort.o)
 .bss           0x02097991        0x0 /opt/devkitpro/devkitARM/lib/gcc/arm-none-eabi/4.7.1/../../../../arm-none-eabi/lib/libc.a(lib_a-abs.o)
 .bss           0x02097991        0x0 /opt/devkitpro/devkitARM/lib/gcc/arm-none-eabi/4.7.1/../../../../arm-none-eabi/lib/libc.a(lib_a-assert.o)
 .bss           0x02097991        0x0 /opt/devkitpro/devkitARM/lib/gcc/arm-none-eabi/4.7.1/../../../../arm-none-eabi/lib/libc.a(lib_a-atof.o)
 .bss           0x02097991        0x0 /opt/devkitpro/devkitARM/lib/gcc/arm-none-eabi/4.7.1/../../../../arm-none-eabi/lib/libc.a(lib_a-atoi.o)
 .bss           0x02097991        0x0 /opt/devkitpro/devkitARM/lib/gcc/arm-none-eabi/4.7.1/../../../../arm-none-eabi/lib/libc.a(lib_a-atol.o)
 .bss           0x02097991        0x0 /opt/devkitpro/devkitARM/lib/gcc/arm-none-eabi/4.7.1/../../../../arm-none-eabi/lib/libc.a(lib_a-atoll.o)
 .bss           0x02097991        0x0 /opt/devkitpro/devkitARM/lib/gcc/arm-none-eabi/4.7.1/../../../../arm-none-eabi/lib/libc.a(lib_a-calloc.o)
 .bss           0x02097991        0x0 /opt/devkitpro/devkitARM/lib/gcc/arm-none-eabi/4.7.1/../../../../arm-none-eabi/lib/libc.a(lib_a-callocr.o)
 .bss           0x02097991        0x0 /opt/devkitpro/devkitARM/lib/gcc/arm-none-eabi/4.7.1/../../../../arm-none-eabi/lib/libc.a(lib_a-ctype_.o)
 .bss           0x02097991        0x0 /opt/devkitpro/devkitARM/lib/gcc/arm-none-eabi/4.7.1/../../../../arm-none-eabi/lib/libc.a(lib_a-errno.o)
 .bss           0x02097991        0x0 /opt/devkitpro/devkitARM/lib/gcc/arm-none-eabi/4.7.1/../../../../arm-none-eabi/lib/libc.a(lib_a-fiprintf.o)
 .bss           0x02097991        0x0 /opt/devkitpro/devkitARM/lib/gcc/arm-none-eabi/4.7.1/../../../../arm-none-eabi/lib/libc.a(lib_a-fputc.o)
 .bss           0x02097991        0x0 /opt/devkitpro/devkitARM/lib/gcc/arm-none-eabi/4.7.1/../../../../arm-none-eabi/lib/libc.a(lib_a-fputs.o)
 .bss           0x02097991        0x0 /opt/devkitpro/devkitARM/lib/gcc/arm-none-eabi/4.7.1/../../../../arm-none-eabi/lib/libc.a(lib_a-fvwrite.o)
 .bss           0x02097991        0x0 /opt/devkitpro/devkitARM/lib/gcc/arm-none-eabi/4.7.1/../../../../arm-none-eabi/lib/libc.a(lib_a-fwrite.o)
 .bss           0x02097991        0x0 /opt/devkitpro/devkitARM/lib/gcc/arm-none-eabi/4.7.1/../../../../arm-none-eabi/lib/libc.a(lib_a-impure.o)
 .bss           0x02097991        0x0 /opt/devkitpro/devkitARM/lib/gcc/arm-none-eabi/4.7.1/../../../../arm-none-eabi/lib/libc.a(lib_a-init.o)
 .bss           0x02097991        0x0 /opt/devkitpro/devkitARM/lib/gcc/arm-none-eabi/4.7.1/../../../../arm-none-eabi/lib/libc.a(lib_a-labs.o)
 .bss           0x02097991        0x0 /opt/devkitpro/devkitARM/lib/gcc/arm-none-eabi/4.7.1/../../../../arm-none-eabi/lib/libc.a(lib_a-llabs.o)
 .bss           0x02097991        0x0 /opt/devkitpro/devkitARM/lib/gcc/arm-none-eabi/4.7.1/../../../../arm-none-eabi/lib/libc.a(lib_a-malloc.o)
 *fill*         0x02097991        0x3 00
 .bss           0x02097994       0x34 /opt/devkitpro/devkitARM/lib/gcc/arm-none-eabi/4.7.1/../../../../arm-none-eabi/lib/libc.a(lib_a-mallocr.o)
                0x02097994                __malloc_top_pad
                0x02097998                __malloc_current_mallinfo
                0x020979c0                __malloc_max_sbrked_mem
                0x020979c4                __malloc_max_total_mem
 .bss           0x020979c8        0x0 /opt/devkitpro/devkitARM/lib/gcc/arm-none-eabi/4.7.1/../../../../arm-none-eabi/lib/libc.a(lib_a-memchr-stub.o)
 .bss           0x020979c8        0x0 /opt/devkitpro/devkitARM/lib/gcc/arm-none-eabi/4.7.1/../../../../arm-none-eabi/lib/libc.a(lib_a-memcmp.o)
 .bss           0x020979c8        0x0 /opt/devkitpro/devkitARM/lib/gcc/arm-none-eabi/4.7.1/../../../../arm-none-eabi/lib/libc.a(lib_a-memcpy-stub.o)
 .bss           0x020979c8        0x0 /opt/devkitpro/devkitARM/lib/gcc/arm-none-eabi/4.7.1/../../../../arm-none-eabi/lib/libc.a(lib_a-memmove.o)
 .bss           0x020979c8        0x0 /opt/devkitpro/devkitARM/lib/gcc/arm-none-eabi/4.7.1/../../../../arm-none-eabi/lib/libc.a(lib_a-memset.o)
 .bss           0x020979c8        0x0 /opt/devkitpro/devkitARM/lib/gcc/arm-none-eabi/4.7.1/../../../../arm-none-eabi/lib/libc.a(lib_a-mlock.o)
 .bss           0x020979c8        0x0 /opt/devkitpro/devkitARM/lib/gcc/arm-none-eabi/4.7.1/../../../../arm-none-eabi/lib/libc.a(lib_a-putc.o)
 .bss           0x020979c8        0x0 /opt/devkitpro/devkitARM/lib/gcc/arm-none-eabi/4.7.1/../../../../arm-none-eabi/lib/libc.a(lib_a-rand.o)
 .bss           0x020979c8        0x0 /opt/devkitpro/devkitARM/lib/gcc/arm-none-eabi/4.7.1/../../../../arm-none-eabi/lib/libc.a(lib_a-realloc.o)
 .bss           0x020979c8        0x0 /opt/devkitpro/devkitARM/lib/gcc/arm-none-eabi/4.7.1/../../../../arm-none-eabi/lib/libc.a(lib_a-reallocr.o)
 .bss           0x020979c8        0x0 /opt/devkitpro/devkitARM/lib/gcc/arm-none-eabi/4.7.1/../../../../arm-none-eabi/lib/libc.a(lib_a-signal.o)
 .bss           0x020979c8        0x0 /opt/devkitpro/devkitARM/lib/gcc/arm-none-eabi/4.7.1/../../../../arm-none-eabi/lib/libc.a(lib_a-snprintf.o)
 .bss           0x020979c8        0x0 /opt/devkitpro/devkitARM/lib/gcc/arm-none-eabi/4.7.1/../../../../arm-none-eabi/lib/libc.a(lib_a-sprintf.o)
 .bss           0x020979c8        0x0 /opt/devkitpro/devkitARM/lib/gcc/arm-none-eabi/4.7.1/../../../../arm-none-eabi/lib/libc.a(lib_a-sscanf.o)
 .bss           0x020979c8        0x0 /opt/devkitpro/devkitARM/lib/gcc/arm-none-eabi/4.7.1/../../../../arm-none-eabi/lib/libc.a(lib_a-stdio.o)
 .bss           0x020979c8        0x0 /opt/devkitpro/devkitARM/lib/gcc/arm-none-eabi/4.7.1/../../../../arm-none-eabi/lib/libc.a(lib_a-stpcpy.o)
 .bss           0x020979c8        0x0 /opt/devkitpro/devkitARM/lib/gcc/arm-none-eabi/4.7.1/../../../../arm-none-eabi/lib/libc.a(lib_a-strcat.o)
 .bss           0x020979c8        0x0 /opt/devkitpro/devkitARM/lib/gcc/arm-none-eabi/4.7.1/../../../../arm-none-eabi/lib/libc.a(lib_a-strchr.o)
 .bss           0x020979c8        0x0 /opt/devkitpro/devkitARM/lib/gcc/arm-none-eabi/4.7.1/../../../../arm-none-eabi/lib/libc.a(lib_a-strcmp.o)
 .bss           0x020979c8        0x0 /opt/devkitpro/devkitARM/lib/gcc/arm-none-eabi/4.7.1/../../../../arm-none-eabi/lib/libc.a(lib_a-strcoll.o)
 .bss           0x020979c8        0x0 /opt/devkitpro/devkitARM/lib/gcc/arm-none-eabi/4.7.1/../../../../arm-none-eabi/lib/libc.a(lib_a-strcpy.o)
 .bss           0x020979c8        0x0 /opt/devkitpro/devkitARM/lib/gcc/arm-none-eabi/4.7.1/../../../../arm-none-eabi/lib/libc.a(lib_a-strcspn.o)
 .bss           0x020979c8        0x0 /opt/devkitpro/devkitARM/lib/gcc/arm-none-eabi/4.7.1/../../../../arm-none-eabi/lib/libc.a(lib_a-strlen.o)
 .bss           0x020979c8        0x0 /opt/devkitpro/devkitARM/lib/gcc/arm-none-eabi/4.7.1/../../../../arm-none-eabi/lib/libc.a(lib_a-strncat.o)
 .bss           0x020979c8        0x0 /opt/devkitpro/devkitARM/lib/gcc/arm-none-eabi/4.7.1/../../../../arm-none-eabi/lib/libc.a(lib_a-strncmp.o)
 .bss           0x020979c8        0x0 /opt/devkitpro/devkitARM/lib/gcc/arm-none-eabi/4.7.1/../../../../arm-none-eabi/lib/libc.a(lib_a-strncpy.o)
 .bss           0x020979c8        0x0 /opt/devkitpro/devkitARM/lib/gcc/arm-none-eabi/4.7.1/../../../../arm-none-eabi/lib/libc.a(lib_a-strpbrk.o)
 .bss           0x020979c8        0x0 /opt/devkitpro/devkitARM/lib/gcc/arm-none-eabi/4.7.1/../../../../arm-none-eabi/lib/libc.a(lib_a-strrchr.o)
 .bss           0x020979c8        0x0 /opt/devkitpro/devkitARM/lib/gcc/arm-none-eabi/4.7.1/../../../../arm-none-eabi/lib/libc.a(lib_a-strspn.o)
 .bss           0x020979c8        0x0 /opt/devkitpro/devkitARM/lib/gcc/arm-none-eabi/4.7.1/../../../../arm-none-eabi/lib/libc.a(lib_a-strstr.o)
 .bss           0x020979c8        0x0 /opt/devkitpro/devkitARM/lib/gcc/arm-none-eabi/4.7.1/../../../../arm-none-eabi/lib/libc.a(lib_a-strtod.o)
 .bss           0x020979c8        0x0 /opt/devkitpro/devkitARM/lib/gcc/arm-none-eabi/4.7.1/../../../../arm-none-eabi/lib/libc.a(lib_a-strtok.o)
 .bss           0x020979c8        0x0 /opt/devkitpro/devkitARM/lib/gcc/arm-none-eabi/4.7.1/../../../../arm-none-eabi/lib/libc.a(lib_a-strtok_r.o)
 .bss           0x020979c8        0x0 /opt/devkitpro/devkitARM/lib/gcc/arm-none-eabi/4.7.1/../../../../arm-none-eabi/lib/libc.a(lib_a-strtol.o)
 .bss           0x020979c8        0x0 /opt/devkitpro/devkitARM/lib/gcc/arm-none-eabi/4.7.1/../../../../arm-none-eabi/lib/libc.a(lib_a-strtoll.o)
 .bss           0x020979c8        0x0 /opt/devkitpro/devkitARM/lib/gcc/arm-none-eabi/4.7.1/../../../../arm-none-eabi/lib/libc.a(lib_a-strtoll_r.o)
 .bss           0x020979c8        0x0 /opt/devkitpro/devkitARM/lib/gcc/arm-none-eabi/4.7.1/../../../../arm-none-eabi/lib/libc.a(lib_a-strxfrm.o)
 .bss           0x020979c8        0x0 /opt/devkitpro/devkitARM/lib/gcc/arm-none-eabi/4.7.1/../../../../arm-none-eabi/lib/libc.a(lib_a-svfprintf.o)
 .bss           0x020979c8        0x0 /opt/devkitpro/devkitARM/lib/gcc/arm-none-eabi/4.7.1/../../../../arm-none-eabi/lib/libc.a(lib_a-svfscanf.o)
 .bss           0x020979c8        0x0 /opt/devkitpro/devkitARM/lib/gcc/arm-none-eabi/4.7.1/../../../../arm-none-eabi/lib/libc.a(lib_a-sysclose.o)
 .bss           0x020979c8        0x0 /opt/devkitpro/devkitARM/lib/gcc/arm-none-eabi/4.7.1/../../../../arm-none-eabi/lib/libc.a(lib_a-syslseek.o)
 .bss           0x020979c8        0x0 /opt/devkitpro/devkitARM/lib/gcc/arm-none-eabi/4.7.1/../../../../arm-none-eabi/lib/libc.a(lib_a-sysopen.o)
 .bss           0x020979c8        0x0 /opt/devkitpro/devkitARM/lib/gcc/arm-none-eabi/4.7.1/../../../../arm-none-eabi/lib/libc.a(lib_a-sysread.o)
 .bss           0x020979c8        0x0 /opt/devkitpro/devkitARM/lib/gcc/arm-none-eabi/4.7.1/../../../../arm-none-eabi/lib/libc.a(lib_a-syswrite.o)
 .bss           0x020979c8        0x0 /opt/devkitpro/devkitARM/lib/gcc/arm-none-eabi/4.7.1/../../../../arm-none-eabi/lib/libc.a(lib_a-toupper.o)
 .bss           0x020979c8        0x0 /opt/devkitpro/devkitARM/lib/gcc/arm-none-eabi/4.7.1/../../../../arm-none-eabi/lib/libc.a(lib_a-vfiprintf.o)
 .bss           0x020979c8        0x0 /opt/devkitpro/devkitARM/lib/gcc/arm-none-eabi/4.7.1/../../../../arm-none-eabi/lib/libc.a(lib_a-vsnprintf.o)
 .bss           0x020979c8        0x0 /opt/devkitpro/devkitARM/lib/gcc/arm-none-eabi/4.7.1/../../../../arm-none-eabi/lib/libc.a(lib_a-wbuf.o)
 .bss           0x020979c8        0x0 /opt/devkitpro/devkitARM/lib/gcc/arm-none-eabi/4.7.1/../../../../arm-none-eabi/lib/libc.a(lib_a-wcrtomb.o)
 .bss           0x020979c8        0x0 /opt/devkitpro/devkitARM/lib/gcc/arm-none-eabi/4.7.1/../../../../arm-none-eabi/lib/libc.a(lib_a-wcsrtombs.o)
 .bss           0x020979c8        0x0 /opt/devkitpro/devkitARM/lib/gcc/arm-none-eabi/4.7.1/../../../../arm-none-eabi/lib/libc.a(lib_a-wctomb_r.o)
 .bss           0x020979c8        0x0 /opt/devkitpro/devkitARM/lib/gcc/arm-none-eabi/4.7.1/../../../../arm-none-eabi/lib/libc.a(lib_a-wsetup.o)
 .bss           0x020979c8        0x0 /opt/devkitpro/devkitARM/lib/gcc/arm-none-eabi/4.7.1/../../../../arm-none-eabi/lib/libc.a(lib_a-dtoa.o)
 .bss           0x020979c8        0x0 /opt/devkitpro/devkitARM/lib/gcc/arm-none-eabi/4.7.1/../../../../arm-none-eabi/lib/libc.a(lib_a-fflush.o)
 .bss           0x020979c8        0x0 /opt/devkitpro/devkitARM/lib/gcc/arm-none-eabi/4.7.1/../../../../arm-none-eabi/lib/libc.a(lib_a-findfp.o)
 .bss           0x020979c8        0x0 /opt/devkitpro/devkitARM/lib/gcc/arm-none-eabi/4.7.1/../../../../arm-none-eabi/lib/libc.a(lib_a-fputwc.o)
 .bss           0x020979c8        0x0 /opt/devkitpro/devkitARM/lib/gcc/arm-none-eabi/4.7.1/../../../../arm-none-eabi/lib/libc.a(lib_a-freer.o)
 .bss           0x020979c8        0x0 /opt/devkitpro/devkitARM/lib/gcc/arm-none-eabi/4.7.1/../../../../arm-none-eabi/lib/libc.a(lib_a-fwalk.o)
 .bss           0x020979c8        0x0 /opt/devkitpro/devkitARM/lib/gcc/arm-none-eabi/4.7.1/../../../../arm-none-eabi/lib/libc.a(lib_a-gdtoa-gethex.o)
 .bss           0x020979c8        0x0 /opt/devkitpro/devkitARM/lib/gcc/arm-none-eabi/4.7.1/../../../../arm-none-eabi/lib/libc.a(lib_a-gdtoa-hexnan.o)
 .bss           0x020979c8        0x0 /opt/devkitpro/devkitARM/lib/gcc/arm-none-eabi/4.7.1/../../../../arm-none-eabi/lib/libc.a(lib_a-iswspace.o)
 .bss           0x020979c8        0x0 /opt/devkitpro/devkitARM/lib/gcc/arm-none-eabi/4.7.1/../../../../arm-none-eabi/lib/libc.a(lib_a-jp2uc.o)
 .bss           0x020979c8      0x2b8 /opt/devkitpro/devkitARM/lib/gcc/arm-none-eabi/4.7.1/../../../../arm-none-eabi/lib/libc.a(lib_a-locale.o)
                0x02097c74                _PathLocale
                0x02097c78                __mlocale_changed
                0x02097c7c                __nlocale_changed
 .bss           0x02097c80        0x0 /opt/devkitpro/devkitARM/lib/gcc/arm-none-eabi/4.7.1/../../../../arm-none-eabi/lib/libc.a(lib_a-makebuf.o)
 .bss           0x02097c80        0x0 /opt/devkitpro/devkitARM/lib/gcc/arm-none-eabi/4.7.1/../../../../arm-none-eabi/lib/libc.a(lib_a-mbrtowc.o)
 .bss           0x02097c80        0x0 /opt/devkitpro/devkitARM/lib/gcc/arm-none-eabi/4.7.1/../../../../arm-none-eabi/lib/libc.a(lib_a-mbtowc_r.o)
 .bss           0x02097c80        0x0 /opt/devkitpro/devkitARM/lib/gcc/arm-none-eabi/4.7.1/../../../../arm-none-eabi/lib/libc.a(lib_a-mprec.o)
 .bss           0x02097c80        0x0 /opt/devkitpro/devkitARM/lib/gcc/arm-none-eabi/4.7.1/../../../../arm-none-eabi/lib/libc.a(lib_a-sccl.o)
 .bss           0x02097c80        0x0 /opt/devkitpro/devkitARM/lib/gcc/arm-none-eabi/4.7.1/../../../../arm-none-eabi/lib/libc.a(lib_a-sf_nan.o)
 .bss           0x02097c80        0x0 /opt/devkitpro/devkitARM/lib/gcc/arm-none-eabi/4.7.1/../../../../arm-none-eabi/lib/libc.a(lib_a-strcasecmp.o)
 .bss           0x02097c80        0x0 /opt/devkitpro/devkitARM/lib/gcc/arm-none-eabi/4.7.1/../../../../arm-none-eabi/lib/libc.a(lib_a-strlcpy.o)
 .bss           0x02097c80        0x0 /opt/devkitpro/devkitARM/lib/gcc/arm-none-eabi/4.7.1/../../../../arm-none-eabi/lib/libc.a(lib_a-strncasecmp.o)
 .bss           0x02097c80        0x0 /opt/devkitpro/devkitARM/lib/gcc/arm-none-eabi/4.7.1/../../../../arm-none-eabi/lib/libc.a(lib_a-strtoul.o)
 .bss           0x02097c80        0x0 /opt/devkitpro/devkitARM/lib/gcc/arm-none-eabi/4.7.1/../../../../arm-none-eabi/lib/libc.a(lib_a-strtoull_r.o)
 .bss           0x02097c80        0x0 /opt/devkitpro/devkitARM/lib/gcc/arm-none-eabi/4.7.1/../../../../arm-none-eabi/lib/libc.a(lib_a-svfiprintf.o)
 .bss           0x02097c80        0x0 /opt/devkitpro/devkitARM/lib/gcc/arm-none-eabi/4.7.1/../../../../arm-none-eabi/lib/libc.a(lib_a-svfiscanf.o)
 .bss           0x02097c80        0x0 /opt/devkitpro/devkitARM/lib/gcc/arm-none-eabi/4.7.1/../../../../arm-none-eabi/lib/libc.a(lib_a-ungetc.o)
 .bss           0x02097c80        0x0 /opt/devkitpro/devkitARM/lib/gcc/arm-none-eabi/4.7.1/../../../../arm-none-eabi/lib/libc.a(lib_a-wcsnrtombs.o)
 .bss           0x02097c80        0x0 /opt/devkitpro/devkitARM/lib/gcc/arm-none-eabi/4.7.1/../../../../arm-none-eabi/lib/libc.a(lib_a-fclose.o)
 .bss           0x02097c80        0x0 /opt/devkitpro/devkitARM/lib/gcc/arm-none-eabi/4.7.1/../../../../arm-none-eabi/lib/libc.a(lib_a-getenv_r.o)
 .bss           0x02097c80        0x4 /opt/devkitpro/devkitARM/lib/gcc/arm-none-eabi/4.7.1/../../../../arm-none-eabi/lib/libc.a(lib_a-environ.o)
 .bss           0x02097c84        0x0 /opt/devkitpro/devkitARM/lib/gcc/arm-none-eabi/4.7.1/../../../../arm-none-eabi/lib/libc.a(lib_a-envlock.o)
 .bss           0x02097c84        0x0 /opt/devkitpro/devkitARM/lib/gcc/arm-none-eabi/4.7.1/../../../../arm-none-eabi/lib/libsysbase.a(close.o)
 .bss           0x02097c84        0x0 /opt/devkitpro/devkitARM/lib/gcc/arm-none-eabi/4.7.1/../../../../arm-none-eabi/lib/libsysbase.a(fstat.o)
 .bss           0x02097c84        0x0 /opt/devkitpro/devkitARM/lib/gcc/arm-none-eabi/4.7.1/../../../../arm-none-eabi/lib/libsysbase.a(getpid.o)
 .bss           0x02097c84        0x0 /opt/devkitpro/devkitARM/lib/gcc/arm-none-eabi/4.7.1/../../../../arm-none-eabi/lib/libsysbase.a(isatty.o)
 .bss           0x02097c84        0x0 /opt/devkitpro/devkitARM/lib/gcc/arm-none-eabi/4.7.1/../../../../arm-none-eabi/lib/libsysbase.a(kill.o)
 .bss           0x02097c84        0x0 /opt/devkitpro/devkitARM/lib/gcc/arm-none-eabi/4.7.1/../../../../arm-none-eabi/lib/libsysbase.a(lseek.o)
 .bss           0x02097c84        0x0 /opt/devkitpro/devkitARM/lib/gcc/arm-none-eabi/4.7.1/../../../../arm-none-eabi/lib/libsysbase.a(open.o)
 .bss           0x02097c84        0x0 /opt/devkitpro/devkitARM/lib/gcc/arm-none-eabi/4.7.1/../../../../arm-none-eabi/lib/libsysbase.a(read.o)
 .bss           0x02097c84        0x4 /opt/devkitpro/devkitARM/lib/gcc/arm-none-eabi/4.7.1/../../../../arm-none-eabi/lib/libsysbase.a(sbrk.o)
 .bss           0x02097c88        0x0 /opt/devkitpro/devkitARM/lib/gcc/arm-none-eabi/4.7.1/../../../../arm-none-eabi/lib/libsysbase.a(times.o)
 .bss           0x02097c88        0x0 /opt/devkitpro/devkitARM/lib/gcc/arm-none-eabi/4.7.1/../../../../arm-none-eabi/lib/libsysbase.a(write.o)
 .bss           0x02097c88        0x0 /opt/devkitpro/devkitARM/lib/gcc/arm-none-eabi/4.7.1/../../../../arm-none-eabi/lib/libsysbase.a(_exit.o)
 .bss           0x02097c88        0x8 /opt/devkitpro/devkitARM/lib/gcc/arm-none-eabi/4.7.1/../../../../arm-none-eabi/lib/libsysbase.a(malloc_vars.o)
                0x02097c88                fake_heap_start
                0x02097c8c                fake_heap_end
 .bss           0x02097c90        0x0 /opt/devkitpro/devkitARM/lib/gcc/arm-none-eabi/4.7.1/../../../../arm-none-eabi/lib/libsysbase.a(build_argv.o)
 .bss           0x02097c90        0x8 /opt/devkitpro/devkitARM/lib/gcc/arm-none-eabi/4.7.1/../../../../arm-none-eabi/lib/libsysbase.a(syscall_support.o)
                0x02097c90                __syscalls
 .bss           0x02097c98     0x1000 /opt/devkitpro/devkitARM/lib/gcc/arm-none-eabi/4.7.1/../../../../arm-none-eabi/lib/libsysbase.a(handle_manager.o)
 .bss           0x02098c98        0x0 /opt/devkitpro/devkitARM/lib/gcc/arm-none-eabi/4.7.1/../../../../arm-none-eabi/lib/libsysbase.a(iosupport.o)
 .bss           0x02098c98        0x0 /opt/devkitpro/devkitARM/lib/gcc/arm-none-eabi/4.7.1/crtend.o
 .bss           0x02098c98        0x0 /opt/devkitpro/devkitARM/lib/gcc/arm-none-eabi/4.7.1/crtn.o
 *(COMMON)
 COMMON         0x02098c98        0x1 /opt/devkitpro/libnds/lib/libnds9.a(initSystem.o)
                0x02098c98                __dsimode
 *fill*         0x02098c99        0x3 00
 COMMON         0x02098c9c      0xa40 /opt/devkitpro/libnds/lib/libnds9.a(fifosystem.o)
                0x02098c9c                fifo_datamsg_func
                0x02098cdc                fifo_value32_data
                0x02098d1c                fifo_buffer
                0x0209951c                fifo_value32_queue
                0x0209955c                fifo_address_queue
                0x0209959c                fifo_datamsg_data
                0x020995dc                fifo_address_data
                0x0209961c                fifo_value32_func
                0x0209965c                fifo_address_func
                0x0209969c                fifo_data_queue
 COMMON         0x020996dc      0x100 /opt/devkitpro/devkitARM/lib/gcc/arm-none-eabi/4.7.1/../../../../arm-none-eabi/lib/libc.a(lib_a-gdtoa-gethex.o)
                0x020996dc                __hexdig
 COMMON         0x020997dc        0x4 /opt/devkitpro/devkitARM/lib/gcc/arm-none-eabi/4.7.1/../../../../arm-none-eabi/lib/libsysbase.a(times.o)
                0x020997dc                punixTime
                0x020997e0                . = ALIGN (0x4)
                0x020997e0                __bss_end__ = ABSOLUTE (.)
                0x020997e0                __end__ = ABSOLUTE (.)
                0x020783c8                Load_EOVR_Header_Base = (__vectors_lma + SIZEOF (.vectors))
                0x00000040                Image_EOVR_Header_Length = SIZEOF (.EOVR_Header)
                0x02078408                Load_EOVR_Romeo2NCD_Base = (Load_EOVR_Header_Base + SIZEOF (.EOVR_Header))
                0x0002954c                Image_EOVR_Romeo2NCD_Length = SIZEOF (.EOVR_Romeo2NCD)
                0x020a1954                Load_EOVR_AfterSystem_Base = (Load_EOVR_Romeo2NCD_Base + SIZEOF (.EOVR_Romeo2NCD))
                0x00019e50                Image_EOVR_AfterSystem_Length = SIZEOF (.EOVR_AfterSystem)
                0x020bb7a4                Load_EOVR_proc_MainPass_Base = (Load_EOVR_AfterSystem_Base + SIZEOF (.EOVR_AfterSystem))
                0x000036fc                Image_EOVR_proc_MainPass_Length = SIZEOF (.EOVR_proc_MainPass)
                0x020beea0                Load_EOVR_proc_ChkDsk_Base = (Load_EOVR_proc_MainPass_Base + SIZEOF (.EOVR_proc_MainPass))
                0x000015e4                Image_EOVR_proc_ChkDsk_Length = SIZEOF (.EOVR_proc_ChkDsk)
                0x020c0484                Load_EOVR_proc_Setup_Base = (Load_EOVR_proc_ChkDsk_Base + SIZEOF (.EOVR_proc_ChkDsk))
                0x00000ac4                Image_EOVR_proc_Setup_Length = SIZEOF (.EOVR_proc_Setup)
                0x020c0f48                Load_EOVR_proc_FileList_Base = (Load_EOVR_proc_Setup_Base + SIZEOF (.EOVR_proc_Setup))
                0x0000c6c0                Image_EOVR_proc_FileList_Length = SIZEOF (.EOVR_proc_FileList)
                0x020cd608                Load_EOVR_proc_SysMenu_Base = (Load_EOVR_proc_FileList_Base + SIZEOF (.EOVR_proc_FileList))
                0x00000b34                Image_EOVR_proc_SysMenu_Length = SIZEOF (.EOVR_proc_SysMenu)
                0x020ce13c                Load_EOVR_proc_DPGCustom_Base = (Load_EOVR_proc_SysMenu_Base + SIZEOF (.EOVR_proc_SysMenu))
                0x00001530                Image_EOVR_proc_DPGCustom_Length = SIZEOF (.EOVR_proc_DPGCustom)
                0x020cf66c                Load_EOVR_proc_DPGPlay_Base = (Load_EOVR_proc_DPGCustom_Base + SIZEOF (.EOVR_proc_DPGCustom))
                0x00003308                Image_EOVR_proc_DPGPlay_Length = SIZEOF (.EOVR_proc_DPGPlay)
                0x020d2974                Load_EOVR_proc_ImageCustom_Base = (Load_EOVR_proc_DPGPlay_Base + SIZEOF (.EOVR_proc_DPGPlay))
                0x00001688                Image_EOVR_proc_ImageCustom_Length = SIZEOF (.EOVR_proc_ImageCustom)
                0x020d3ffc                Load_EOVR_proc_ImageView_Base = (Load_EOVR_proc_ImageCustom_Base + SIZEOF (.EOVR_proc_ImageCustom))
                0x00005244                Image_EOVR_proc_ImageView_Length = SIZEOF (.EOVR_proc_ImageView)
                0x020d9240                Load_EOVR_proc_TextCustom_Base = (Load_EOVR_proc_ImageView_Base + SIZEOF (.EOVR_proc_ImageView))
                0x00002598                Image_EOVR_proc_TextCustom_Length = SIZEOF (.EOVR_proc_TextCustom)
                0x020db7d8                Load_EOVR_proc_TextMenu_Base = (Load_EOVR_proc_TextCustom_Base + SIZEOF (.EOVR_proc_TextCustom))
                0x00000c98                Image_EOVR_proc_TextMenu_Length = SIZEOF (.EOVR_proc_TextMenu)
                0x020dc470                Load_EOVR_proc_TextView_Base = (Load_EOVR_proc_TextMenu_Base + SIZEOF (.EOVR_proc_TextMenu))
                0x0000a608                Image_EOVR_proc_TextView_Length = SIZEOF (.EOVR_proc_TextView)
                0x020e6a78                Load_EOVR_proc_BinView_Base = (Load_EOVR_proc_TextView_Base + SIZEOF (.EOVR_proc_TextView))
                0x0000014c                Image_EOVR_proc_BinView_Length = SIZEOF (.EOVR_proc_BinView)
                0x020e6bc4                Load_EOVR_proc_Launch_Base = (Load_EOVR_proc_BinView_Base + SIZEOF (.EOVR_proc_BinView))
                0x00001688                Image_EOVR_proc_Launch_Length = SIZEOF (.EOVR_proc_Launch)
                0x020e824c                Load_EOVR_proc_Custom_Base = (Load_EOVR_proc_Launch_Base + SIZEOF (.EOVR_proc_Launch))
                0x0000352c                Image_EOVR_proc_Custom_Length = SIZEOF (.EOVR_proc_Custom)
                0x020eb778                Load_EOVR_proc_BootROM_Base = (Load_EOVR_proc_Custom_Base + SIZEOF (.EOVR_proc_Custom))
                0x000000c0                Image_EOVR_proc_BootROM_Length = SIZEOF (.EOVR_proc_BootROM)
                0x020eb838                Load_EOVR_proc_MemoEdit_Base = (Load_EOVR_proc_BootROM_Base + SIZEOF (.EOVR_proc_BootROM))
                0x00001af4                Image_EOVR_proc_MemoEdit_Length = SIZEOF (.EOVR_proc_MemoEdit)
                0x020ed32c                Load_EOVR_proc_MemoList_Base = (Load_EOVR_proc_MemoEdit_Base + SIZEOF (.EOVR_proc_MemoEdit))
                0x000000d0                Image_EOVR_proc_MemoList_Length = SIZEOF (.EOVR_proc_MemoList)
                0x020ed3fc                Load_EOVR_proc_AudioCustom_Base = (Load_EOVR_proc_MemoList_Base + SIZEOF (.EOVR_proc_MemoList))
                0x00000d08                Image_EOVR_proc_AudioCustom_Length = SIZEOF (.EOVR_proc_AudioCustom)
                0x020ee104                Load_EOVR_libsnd_mp3_Base = (Load_EOVR_proc_AudioCustom_Base + SIZEOF (.EOVR_proc_AudioCustom))
                0x000147e4                Image_EOVR_libsnd_mp3_Length = SIZEOF (.EOVR_libsnd_mp3)
                0x021028e8                Load_EOVR_libsnd_midi_Base = (Load_EOVR_libsnd_mp3_Base + SIZEOF (.EOVR_libsnd_mp3))
                0x0000d1fc                Image_EOVR_libsnd_midi_Length = SIZEOF (.EOVR_libsnd_midi)
                0x0210fae4                Load_EOVR_libsnd_gme_Base = (Load_EOVR_libsnd_midi_Base + SIZEOF (.EOVR_libsnd_midi))
                0x0001d47c                Image_EOVR_libsnd_gme_Length = SIZEOF (.EOVR_libsnd_gme)
                0x0212cf60                Load_EOVR_libsnd_ogg_Base = (Load_EOVR_libsnd_gme_Base + SIZEOF (.EOVR_libsnd_gme))
                0x0001621c                Image_EOVR_libsnd_ogg_Length = SIZEOF (.EOVR_libsnd_ogg)
                0x0214317c                Load_EOVR_libsnd_wave_Base = (Load_EOVR_libsnd_ogg_Base + SIZEOF (.EOVR_libsnd_ogg))
                0x000006c8                Image_EOVR_libsnd_wave_Length = SIZEOF (.EOVR_libsnd_wave)
                0x02143844                Load_EOVR_libimg_jpeg_Base = (Load_EOVR_libsnd_wave_Base + SIZEOF (.EOVR_libsnd_wave))
                0x0000c134                Image_EOVR_libimg_jpeg_Length = SIZEOF (.EOVR_libimg_jpeg)
                0x0214f978                Load_EOVR_libimg_png_Base = (Load_EOVR_libimg_jpeg_Base + SIZEOF (.EOVR_libimg_jpeg))
                0x0000d848                Image_EOVR_libimg_png_Length = SIZEOF (.EOVR_libimg_png)
                0x0215d1c0                Load_EOVR_libimg_bmp_Base = (Load_EOVR_libimg_png_Base + SIZEOF (.EOVR_libimg_png))
                0x00000518                Image_EOVR_libimg_bmp_Length = SIZEOF (.EOVR_libimg_bmp)
                0x0215d6d8                Load_EOVR_libimg_gif_Base = (Load_EOVR_libimg_bmp_Base + SIZEOF (.EOVR_libimg_bmp))
                0x0000208c                Image_EOVR_libimg_gif_Length = SIZEOF (.EOVR_libimg_gif)
                0x0215f764                Load_EOVR_libimg_psd_Base = (Load_EOVR_libimg_gif_Base + SIZEOF (.EOVR_libimg_gif))
                0x00000be0                Image_EOVR_libimg_psd_Length = SIZEOF (.EOVR_libimg_psd)
                0x02160344                Load_EOVR_libglobal_dpg_Base = (Load_EOVR_libimg_psd_Base + SIZEOF (.EOVR_libimg_psd))
                0x000055c8                Image_EOVR_libglobal_dpg_Length = SIZEOF (.EOVR_libglobal_dpg)
                0x0216590c                Load_EOVR_libglobal_ndsrom_Base = (Load_EOVR_libglobal_dpg_Base + SIZEOF (.EOVR_libglobal_dpg))
                0x00001540                Image_EOVR_libglobal_ndsrom_Length = SIZEOF (.EOVR_libglobal_ndsrom)
                0x02166e4c                Load_EOVR_AfterSystem2_Base = (Load_EOVR_libglobal_ndsrom_Base + SIZEOF (.EOVR_libglobal_ndsrom))
                0x00000008                Image_EOVR_AfterSystem2_Length = SIZEOF (.EOVR_AfterSystem2)
                0x02166e54                Load_EOVR_ITCM_libglobal_dpg_Base = (Load_EOVR_AfterSystem2_Base + SIZEOF (.EOVR_AfterSystem2))
                0x00004590                Image_EOVR_ITCM_libglobal_dpg_Length = SIZEOF (.EOVR_ITCM_libglobal_dpg)
                0x0216b3e4                Load_EOVR_ITCM_libglobal_ndsrom_Base = (Load_EOVR_ITCM_libglobal_dpg_Base + SIZEOF (.EOVR_ITCM_libglobal_dpg))
                0x00000000                Image_EOVR_ITCM_libglobal_ndsrom_Length = SIZEOF (.EOVR_ITCM_libglobal_ndsrom)
                0x0216b3e4                Load_EOVR_ITCM_libimg_jpeg_Base = (Load_EOVR_ITCM_libglobal_ndsrom_Base + SIZEOF (.EOVR_ITCM_libglobal_ndsrom))
                0x00000c74                Image_EOVR_ITCM_libimg_jpeg_Length = SIZEOF (.EOVR_ITCM_libimg_jpeg)
                0x0216c058                Load_EOVR_ITCM_libimg_png_Base = (Load_EOVR_ITCM_libimg_jpeg_Base + SIZEOF (.EOVR_ITCM_libimg_jpeg))
                0x00000000                Image_EOVR_ITCM_libimg_png_Length = SIZEOF (.EOVR_ITCM_libimg_png)
                0x0216c058                Load_EOVR_ITCM_libimg_bmp_Base = (Load_EOVR_ITCM_libimg_png_Base + SIZEOF (.EOVR_ITCM_libimg_png))
                0x000003b0                Image_EOVR_ITCM_libimg_bmp_Length = SIZEOF (.EOVR_ITCM_libimg_bmp)
                0x0216c408                Load_EOVR_ITCM_libimg_gif_Base = (Load_EOVR_ITCM_libimg_bmp_Base + SIZEOF (.EOVR_ITCM_libimg_bmp))
                0x00000000                Image_EOVR_ITCM_libimg_gif_Length = SIZEOF (.EOVR_ITCM_libimg_gif)
                0x0216c408                Load_EOVR_ITCM_libimg_psd_Base = (Load_EOVR_ITCM_libimg_gif_Base + SIZEOF (.EOVR_ITCM_libimg_gif))
                0x00000000                Image_EOVR_ITCM_libimg_psd_Length = SIZEOF (.EOVR_ITCM_libimg_psd)
                0x0216c408                Load_EOVR_ITCM_libsnd_mp3_Base = (Load_EOVR_ITCM_libimg_psd_Base + SIZEOF (.EOVR_ITCM_libimg_psd))
                0x00000000                Image_EOVR_ITCM_libsnd_mp3_Length = SIZEOF (.EOVR_ITCM_libsnd_mp3)
                0x0216c408                Load_EOVR_ITCM_libsnd_ogg_Base = (Load_EOVR_ITCM_libsnd_mp3_Base + SIZEOF (.EOVR_ITCM_libsnd_mp3))
                0x00000000                Image_EOVR_ITCM_libsnd_ogg_Length = SIZEOF (.EOVR_ITCM_libsnd_ogg)
                0x0216c408                Load_EOVR_ITCM_libsnd_gme_Base = (Load_EOVR_ITCM_libsnd_ogg_Base + SIZEOF (.EOVR_ITCM_libsnd_ogg))
                0x00005724                Image_EOVR_ITCM_libsnd_gme_Length = SIZEOF (.EOVR_ITCM_libsnd_gme)
                0x02171b2c                Load_EOVR_ITCM_libsnd_midi_Base = (Load_EOVR_ITCM_libsnd_gme_Base + SIZEOF (.EOVR_ITCM_libsnd_gme))
                0x00000000                Image_EOVR_ITCM_libsnd_midi_Length = SIZEOF (.EOVR_ITCM_libsnd_midi)
                0x02171b2c                Load_EOVR_ITCM_libsnd_wave_Base = (Load_EOVR_ITCM_libsnd_midi_Base + SIZEOF (.EOVR_ITCM_libsnd_midi))
                0x00000030                Image_EOVR_ITCM_libsnd_wave_Length = SIZEOF (.EOVR_ITCM_libsnd_wave)
                0x02171b5c                Load_EOVR_MTCM_Base = (Load_EOVR_ITCM_libsnd_wave_Base + SIZEOF (.EOVR_ITCM_libsnd_wave))
                0x00002320                Image_EOVR_MTCM_Length = SIZEOF (.EOVR_MTCM)
                0x02173e7c                Load_EOVR_libglobal_RebootLoader_Base = (Load_EOVR_MTCM_Base + SIZEOF (.EOVR_MTCM))
                0x00000000                Image_EOVR_libglobal_RebootLoader_Length = SIZEOF (.EOVR_libglobal_RebootLoader)

.stab
 *(.stab)

.stabstr
 *(.stabstr)

.stab.excl
 *(.stab.excl)

.stab.exclstr
 *(.stab.exclstr)

.stab.index
 *(.stab.index)

.stab.indexstr
 *(.stab.indexstr)

.comment        0x00000000       0x44
 *(.comment)
 .comment       0x00000000       0x22 ProgramID.o
                                 0x23 (size before relaxing)
 .comment       0x00000000       0x23 romeo2_ncd.o
 .comment       0x00000000       0x23 cglfont.o
 .comment       0x00000000       0x23 cglstream.o
 .comment       0x00000000       0x23 cgltgf.o
 .comment       0x00000000       0x23 cstream.o
 .comment       0x00000000       0x23 cstream_fs.o
 .comment       0x00000000       0x23 shell_SystemAfter.o
 .comment       0x00000000       0x23 dll.o
 .comment       0x00000000       0x23 dllsound.o
 .comment       0x00000000       0x23 playlist.o
 .comment       0x00000000       0x23 plug_lyric.o
 .comment       0x00000000       0x23 fpga_helper.o
 .comment       0x00000000       0x23 BMPReader.o
 .comment       0x00000000       0x23 cfont.o
 .comment       0x00000000       0x23 component.o
 .comment       0x00000000       0x23 ErrorDialog.o
 .comment       0x00000000       0x23 msgwin.o
 .comment       0x00000000       0x23 particle.o
 .comment       0x00000000       0x23 rect.o
 .comment       0x00000000       0x23 skin.o
 .comment       0x00000000       0x23 splash.o
 .comment       0x00000000       0x23 VideoResume.o
 .comment       0x00000000       0x23 extmem.o
 .comment       0x00000000       0x23 extmem_DSBM.o
 .comment       0x00000000       0x23 extmem_EZ3in1.o
 .comment       0x00000000       0x23 extmem_M3ExtPack.o
 .comment       0x00000000       0x23 extmem_RawMem.o
 .comment       0x00000000       0x23 extmem_SuperCard.o
 .comment       0x00000000       0x23 BootROM.o
 .comment       0x00000000       0x23 extlink.o
 .comment       0x00000000       0x23 NDSROMIcon.o
 .comment       0x00000000       0x23 launchstate.o
 .comment       0x00000000       0x23 procstate.o
 .comment       0x00000000       0x23 resume.o
 .comment       0x00000000       0x23 sndeff.o
 .comment       0x00000000       0x23 strpcm.o
 .comment       0x00000000       0x23 snd_click_long_c_bin.o
 .comment       0x00000000       0x23 snd_click_short_c_bin.o
 .comment       0x00000000       0x23 datetime.o
 .comment       0x00000000       0x23 md5c.o
 .comment       0x00000000       0x23 fastlzss16decpalasm.o
 .comment       0x00000000       0x23 euc2unicode.o
 .comment       0x00000000       0x23 lang.o
 .comment       0x00000000       0x23 inifile.o
 .comment       0x00000000       0x23 proc_chkdsk.o
 .comment       0x00000000       0x23 proc_setup.o
 .comment       0x00000000       0x23 proc_FileList.o
 .comment       0x00000000       0x23 NDSFiles.o
 .comment       0x00000000       0x23 hiddenpaths.o
 .comment       0x00000000       0x23 ThumbDPG.o
 .comment       0x00000000       0x23 ThumbIPK.o
 .comment       0x00000000       0x23 cipk_simple.o
 .comment       0x00000000       0x23 proc_sysmenu.o
 .comment       0x00000000       0x23 proc_DPGCustom.o
 .comment       0x00000000       0x23 proc_DPGPlay.o
 .comment       0x00000000       0x23 proc_ImageCustom.o
 .comment       0x00000000       0x23 proc_ImageView.o
 .comment       0x00000000       0x23 proc_TextCustom.o
 .comment       0x00000000       0x23 proc_TextMenu.o
 .comment       0x00000000       0x23 proc_TextView.o
 .comment       0x00000000       0x23 cctf.o
 .comment       0x00000000       0x23 cctf_dfs.o
 .comment       0x00000000       0x23 proc_BinView.o
 .comment       0x00000000       0x23 proc_Launch.o
 .comment       0x00000000       0x23 proc_Custom.o
 .comment       0x00000000       0x23 proc_BootROM.o
 .comment       0x00000000       0x23 proc_MemoEdit.o
 .comment       0x00000000       0x23 proc_MemoList.o
 .comment       0x00000000       0x23 proc_AudioCustom.o
 .comment       0x00000000       0x23 plug_mp3.o
 .comment       0x00000000       0x23 bit.o
 .comment       0x00000000       0x23 decoder.o
 .comment       0x00000000       0x23 fixed.o
 .comment       0x00000000       0x23 frame.o
 .comment       0x00000000       0x23 huffman.o
 .comment       0x00000000       0x23 layer12.o
 .comment       0x00000000       0x23 layer3.o
 .comment       0x00000000       0x23 stream.o
 .comment       0x00000000       0x23 synth.o
 .comment       0x00000000       0x23 timer.o
 .comment       0x00000000       0x23 version.o
 .comment       0x00000000       0x23 plug_midi.o
 .comment       0x00000000       0x23 mtrk.o
 .comment       0x00000000       0x23 pch.o
 .comment       0x00000000       0x23 rcplib.o
 .comment       0x00000000       0x23 smidlib.o
 .comment       0x00000000       0x23 smidlib_sm.o
 .comment       0x00000000       0x23 sndfont.o
 .comment       0x00000000       0x23 plug_gme.o
 .comment       0x00000000       0x23 Ay_Apu.o
 .comment       0x00000000       0x23 Ay_Cpu.o
 .comment       0x00000000       0x23 Ay_Emu.o
 .comment       0x00000000       0x23 Gbs_Emu.o
 .comment       0x00000000       0x23 Gb_Apu.o
 .comment       0x00000000       0x23 Gb_Cpu.o
 .comment       0x00000000       0x23 Gb_Oscs.o
 .comment       0x00000000       0x23 gme.o
 .comment       0x00000000       0x23 Hes_Apu.o
 .comment       0x00000000       0x23 Hes_Cpu.o
 .comment       0x00000000       0x23 Hes_Emu.o
 .comment       0x00000000       0x23 Kss_Cpu.o
 .comment       0x00000000       0x23 Kss_Emu.o
 .comment       0x00000000       0x23 Kss_Scc_Apu.o
 .comment       0x00000000       0x23 Nes_Apu.o
 .comment       0x00000000       0x23 Nes_Cpu.o
 .comment       0x00000000       0x23 Nes_Fme7_Apu.o
 .comment       0x00000000       0x23 Nes_Namco_Apu.o
 .comment       0x00000000       0x23 Nes_Oscs.o
 .comment       0x00000000       0x23 Nes_Vrc6_Apu.o
 .comment       0x00000000       0x23 Nsf_Emu.o
 .comment       0x00000000       0x23 Sap_Apu.o
 .comment       0x00000000       0x23 Sap_Cpu.o
 .comment       0x00000000       0x23 Sap_Emu.o
 .comment       0x00000000       0x23 Sms_Apu.o
 .comment       0x00000000       0x23 plug_ogg.o
 .comment       0x00000000       0x23 bitwise.o
 .comment       0x00000000       0x23 codebook.o
 .comment       0x00000000       0x23 floor0.o
 .comment       0x00000000       0x23 floor1.o
 .comment       0x00000000       0x23 framing.o
 .comment       0x00000000       0x23 info.o
 .comment       0x00000000       0x23 mapping0.o
 .comment       0x00000000       0x23 _libogg_misc.o
 .comment       0x00000000       0x23 res012.o
 .comment       0x00000000       0x23 vorbisfile.o
 .comment       0x00000000       0x23 _libogg_dsp.o
 .comment       0x00000000       0x23 _libogg_mdct.o
 .comment       0x00000000       0x23 plug_wav.o
 .comment       0x00000000       0x23 plug_jpeg.o
 .comment       0x00000000       0x23 jcomapi.o
 .comment       0x00000000       0x23 jdapimin.o
 .comment       0x00000000       0x23 jdapistd.o
 .comment       0x00000000       0x23 jdatasrc.o
 .comment       0x00000000       0x23 jdcoefct.o
 .comment       0x00000000       0x23 jdcolor.o
 .comment       0x00000000       0x23 jddctmgr.o
 .comment       0x00000000       0x23 jdhuff.o
 .comment       0x00000000       0x23 jdinput.o
 .comment       0x00000000       0x23 jdmainct.o
 .comment       0x00000000       0x23 jdmarker.o
 .comment       0x00000000       0x23 jdmaster.o
 .comment       0x00000000       0x23 jdmerge.o
 .comment       0x00000000       0x23 jdphuff.o
 .comment       0x00000000       0x23 jdpostct.o
 .comment       0x00000000       0x23 jdsample.o
 .comment       0x00000000       0x23 jerror.o
 .comment       0x00000000       0x23 jidctfst.o
 .comment       0x00000000       0x23 jidctred.o
 .comment       0x00000000       0x23 jmemansi.o
 .comment       0x00000000       0x23 jmemmgr.o
 .comment       0x00000000       0x23 jquant1.o
 .comment       0x00000000       0x23 jutils.o
 .comment       0x00000000       0x23 plug_png.o
 .comment       0x00000000       0x23 png.o
 .comment       0x00000000       0x23 pngerror.o
 .comment       0x00000000       0x23 pngget.o
 .comment       0x00000000       0x23 pngmem.o
 .comment       0x00000000       0x23 pngread.o
 .comment       0x00000000       0x23 pngrio.o
 .comment       0x00000000       0x23 pngrtran.o
 .comment       0x00000000       0x23 pngrutil.o
 .comment       0x00000000       0x23 pngset.o
 .comment       0x00000000       0x23 pngtrans.o
 .comment       0x00000000       0x23 plug_bmp.o
 .comment       0x00000000       0x23 plug_gif.o
 .comment       0x00000000       0x23 dgif_lib.o
 .comment       0x00000000       0x23 gif_err.o
 .comment       0x00000000       0x23 gifalloc.o
 .comment       0x00000000       0x23 plug_psd.o
 .comment       0x00000000       0x23 alloc.o
 .comment       0x00000000       0x23 clibdpg.o
 .comment       0x00000000       0x23 clibmpg.o
 .comment       0x00000000       0x23 decode.o
 .comment       0x00000000       0x23 header.o
 .comment       0x00000000       0x23 idct.o
 .comment       0x00000000       0x23 motion_comp.o
 .comment       0x00000000       0x23 motion_comp_arm.o
 .comment       0x00000000       0x23 plug_dpg.o
 .comment       0x00000000       0x23 plug_mp2.o
 .comment       0x00000000       0x23 slice.o
 .comment       0x00000000       0x23 _dpgfs.o
 .comment       0x00000000       0x23 plug_srttitle.o
 .comment       0x00000000       0x23 plug_ndsrom.o
 .comment       0x00000000       0x23 Blip_Buffer.o
 .comment       0x00000000       0x23 Classic_Emu.o
 .comment       0x00000000       0x23 Data_Reader.o
 .comment       0x00000000       0x23 Effects_Buffer.o
 .comment       0x00000000       0x23 Gme_File.o
 .comment       0x00000000       0x23 Multi_Buffer.o
 .comment       0x00000000       0x23 Music_Emu.o
 .comment       0x00000000       0x23 /opt/devkitpro/devkitARM/lib/gcc/arm-none-eabi/4.7.1/crtbegin.o
 .comment       0x00000000       0x23 _console.o
 .comment       0x00000000       0x23 _consoleWriteLog.o
 .comment       0x00000000       0x23 main.o
 .comment       0x00000000       0x23 cglb15.o
 .comment       0x00000000       0x23 cglcanvas.o
 .comment       0x00000000       0x23 cglscreenmain.o
 .comment       0x00000000       0x23 cglscreenoverlay.o
 .comment       0x00000000       0x23 cglscreensub.o
 .comment       0x00000000       0x23 glglobal.o
 .comment       0x00000000       0x23 glmemtool.o
 .comment       0x00000000       0x23 OverlayManager.o
 .comment       0x00000000       0x23 memtool.o
 .comment       0x00000000       0x23 shell.o
 .comment       0x00000000       0x23 sndeff_dfs.o
 .comment       0x00000000       0x23 strtool.o
 .comment       0x00000000       0x23 unicode.o
 .comment       0x00000000       0x23 zlibhelp.o
 .comment       0x00000000       0x23 disc_io.o
 .comment       0x00000000       0x23 fat2.o
 .comment       0x00000000       0x23 gba_nds_fat.o
 .comment       0x00000000       0x23 Dual_Resampler.o
 .comment       0x00000000       0x23 Fir_Resampler.o
 .comment       0x00000000       0x23 Gym_Emu.o
 .comment       0x00000000       0x23 M3u_Playlist.o
 .comment       0x00000000       0x23 Nsfe_Emu.o
 .comment       0x00000000       0x23 Snes_Spc.o
 .comment       0x00000000       0x23 Spc_Cpu.o
 .comment       0x00000000       0x23 Spc_Dsp.o
 .comment       0x00000000       0x23 Spc_Emu.o
 .comment       0x00000000       0x23 Vgm_Emu.o
 .comment       0x00000000       0x23 Vgm_Emu_Impl.o
 .comment       0x00000000       0x23 Ym2413_Emu.o
 .comment       0x00000000       0x23 Ym2612_Emu.o
 .comment       0x00000000       0x23 _console_font_fixed6x6_packed_bin.o
 .comment       0x00000000       0x23 bootwarn_b8zlib.o
 .comment       0x00000000       0x23 guidxcrcerror_b8zlib.o
 .comment       0x00000000       0x23 versionerror_b8zlib.o
 .comment       0x00000000       0x23 adler32.o
 .comment       0x00000000       0x23 crc32.o
 .comment       0x00000000       0x23 deflate.o
 .comment       0x00000000       0x23 infback.o
 .comment       0x00000000       0x23 inffast.o
 .comment       0x00000000       0x23 inflate.o
 .comment       0x00000000       0x23 inftrees.o
 .comment       0x00000000       0x23 trees.o
 .comment       0x00000000       0x23 zutil.o
 .comment       0x00000000       0x23 floor_lookup.o
 .comment       0x00000022       0x22 /opt/devkitpro/libnds/lib/libnds9.a(system.o)
                                 0x23 (size before relaxing)
 .comment       0x00000000       0x23 /opt/devkitpro/libnds/lib/libnds9.a(video.o)
 .comment       0x00000000       0x23 /opt/devkitpro/libnds/lib/libnds9.a(dldi.o)
 .comment       0x00000000       0x23 /opt/devkitpro/libnds/lib/libnds9.a(initSystem.o)
 .comment       0x00000000       0x23 /opt/devkitpro/libnds/lib/libnds9.a(fifosystem.o)
 .comment       0x00000000       0x23 /opt/devkitpro/libnds/lib/libnds9.a(interrupts.o)
 .comment       0x00000000       0x23 /opt/devkitpro/libnds/lib/libnds9.a(libnds_exit.arm.o)
 .comment       0x00000000       0x23 /opt/devkitpro/devkitARM/lib/gcc/arm-none-eabi/4.7.1/../../../../arm-none-eabi/lib/libstdc++.a(del_op.o)
 .comment       0x00000000       0x23 /opt/devkitpro/devkitARM/lib/gcc/arm-none-eabi/4.7.1/../../../../arm-none-eabi/lib/libstdc++.a(new_op.o)
 .comment       0x00000000       0x23 /opt/devkitpro/devkitARM/lib/gcc/arm-none-eabi/4.7.1/../../../../arm-none-eabi/lib/libstdc++.a(pure.o)
 .comment       0x00000000       0x23 /opt/devkitpro/devkitARM/lib/gcc/arm-none-eabi/4.7.1/../../../../arm-none-eabi/lib/libstdc++.a(bad_alloc.o)
 .comment       0x00000000       0x23 /opt/devkitpro/devkitARM/lib/gcc/arm-none-eabi/4.7.1/../../../../arm-none-eabi/lib/libstdc++.a(eh_alloc.o)
 .comment       0x00000000       0x23 /opt/devkitpro/devkitARM/lib/gcc/arm-none-eabi/4.7.1/../../../../arm-none-eabi/lib/libstdc++.a(eh_arm.o)
 .comment       0x00000000       0x23 /opt/devkitpro/devkitARM/lib/gcc/arm-none-eabi/4.7.1/../../../../arm-none-eabi/lib/libstdc++.a(eh_call.o)
 .comment       0x00000000       0x23 /opt/devkitpro/devkitARM/lib/gcc/arm-none-eabi/4.7.1/../../../../arm-none-eabi/lib/libstdc++.a(eh_catch.o)
 .comment       0x00000000       0x23 /opt/devkitpro/devkitARM/lib/gcc/arm-none-eabi/4.7.1/../../../../arm-none-eabi/lib/libstdc++.a(eh_exception.o)
 .comment       0x00000000       0x23 /opt/devkitpro/devkitARM/lib/gcc/arm-none-eabi/4.7.1/../../../../arm-none-eabi/lib/libstdc++.a(eh_globals.o)
 .comment       0x00000000       0x23 /opt/devkitpro/devkitARM/lib/gcc/arm-none-eabi/4.7.1/../../../../arm-none-eabi/lib/libstdc++.a(eh_personality.o)
 .comment       0x00000000       0x23 /opt/devkitpro/devkitARM/lib/gcc/arm-none-eabi/4.7.1/../../../../arm-none-eabi/lib/libstdc++.a(eh_terminate.o)
 .comment       0x00000000       0x23 /opt/devkitpro/devkitARM/lib/gcc/arm-none-eabi/4.7.1/../../../../arm-none-eabi/lib/libstdc++.a(eh_throw.o)
 .comment       0x00000000       0x23 /opt/devkitpro/devkitARM/lib/gcc/arm-none-eabi/4.7.1/../../../../arm-none-eabi/lib/libstdc++.a(eh_unex_handler.o)
 .comment       0x00000000       0x23 /opt/devkitpro/devkitARM/lib/gcc/arm-none-eabi/4.7.1/../../../../arm-none-eabi/lib/libstdc++.a(new_handler.o)
 .comment       0x00000000       0x23 /opt/devkitpro/devkitARM/lib/gcc/arm-none-eabi/4.7.1/../../../../arm-none-eabi/lib/libstdc++.a(si_class_type_info.o)
 .comment       0x00000000       0x23 /opt/devkitpro/devkitARM/lib/gcc/arm-none-eabi/4.7.1/../../../../arm-none-eabi/lib/libstdc++.a(tinfo.o)
 .comment       0x00000000       0x23 /opt/devkitpro/devkitARM/lib/gcc/arm-none-eabi/4.7.1/../../../../arm-none-eabi/lib/libstdc++.a(class_type_info.o)
 .comment       0x00000000       0x23 /opt/devkitpro/devkitARM/lib/gcc/arm-none-eabi/4.7.1/../../../../arm-none-eabi/lib/libstdc++.a(eh_term_handler.o)
 .comment       0x00000000       0x23 /opt/devkitpro/devkitARM/lib/gcc/arm-none-eabi/4.7.1/../../../../arm-none-eabi/lib/libstdc++.a(vterminate.o)
 .comment       0x00000000       0x23 /opt/devkitpro/devkitARM/lib/gcc/arm-none-eabi/4.7.1/../../../../arm-none-eabi/lib/libstdc++.a(cp-demangle.o)
 .comment       0x00000000       0x23 /opt/devkitpro/devkitARM/lib/gcc/arm-none-eabi/4.7.1/../../../../arm-none-eabi/lib/libstdc++.a(eh_type.o)
 .comment       0x00000000       0x23 /opt/devkitpro/devkitARM/lib/gcc/arm-none-eabi/4.7.1/../../../../arm-none-eabi/lib/libm.a(lib_a-s_cos.o)
 .comment       0x00000000       0x23 /opt/devkitpro/devkitARM/lib/gcc/arm-none-eabi/4.7.1/../../../../arm-none-eabi/lib/libm.a(lib_a-s_fabs.o)
 .comment       0x00000000       0x23 /opt/devkitpro/devkitARM/lib/gcc/arm-none-eabi/4.7.1/../../../../arm-none-eabi/lib/libm.a(lib_a-s_floor.o)
 .comment       0x00000000       0x23 /opt/devkitpro/devkitARM/lib/gcc/arm-none-eabi/4.7.1/../../../../arm-none-eabi/lib/libm.a(lib_a-s_sin.o)
 .comment       0x00000000       0x23 /opt/devkitpro/devkitARM/lib/gcc/arm-none-eabi/4.7.1/../../../../arm-none-eabi/lib/libm.a(lib_a-sf_fabs.o)
 .comment       0x00000000       0x23 /opt/devkitpro/devkitARM/lib/gcc/arm-none-eabi/4.7.1/../../../../arm-none-eabi/lib/libm.a(lib_a-w_fmod.o)
 .comment       0x00000000       0x23 /opt/devkitpro/devkitARM/lib/gcc/arm-none-eabi/4.7.1/../../../../arm-none-eabi/lib/libm.a(lib_a-w_log10.o)
 .comment       0x00000000       0x23 /opt/devkitpro/devkitARM/lib/gcc/arm-none-eabi/4.7.1/../../../../arm-none-eabi/lib/libm.a(lib_a-w_pow.o)
 .comment       0x00000000       0x23 /opt/devkitpro/devkitARM/lib/gcc/arm-none-eabi/4.7.1/../../../../arm-none-eabi/lib/libm.a(lib_a-e_fmod.o)
 .comment       0x00000000       0x23 /opt/devkitpro/devkitARM/lib/gcc/arm-none-eabi/4.7.1/../../../../arm-none-eabi/lib/libm.a(lib_a-e_log10.o)
 .comment       0x00000000       0x23 /opt/devkitpro/devkitARM/lib/gcc/arm-none-eabi/4.7.1/../../../../arm-none-eabi/lib/libm.a(lib_a-e_pow.o)
 .comment       0x00000000       0x23 /opt/devkitpro/devkitARM/lib/gcc/arm-none-eabi/4.7.1/../../../../arm-none-eabi/lib/libm.a(lib_a-e_rem_pio2.o)
 .comment       0x00000000       0x23 /opt/devkitpro/devkitARM/lib/gcc/arm-none-eabi/4.7.1/../../../../arm-none-eabi/lib/libm.a(lib_a-e_sqrt.o)
 .comment       0x00000000       0x23 /opt/devkitpro/devkitARM/lib/gcc/arm-none-eabi/4.7.1/../../../../arm-none-eabi/lib/libm.a(lib_a-k_cos.o)
 .comment       0x00000000       0x23 /opt/devkitpro/devkitARM/lib/gcc/arm-none-eabi/4.7.1/../../../../arm-none-eabi/lib/libm.a(lib_a-k_rem_pio2.o)
 .comment       0x00000000       0x23 /opt/devkitpro/devkitARM/lib/gcc/arm-none-eabi/4.7.1/../../../../arm-none-eabi/lib/libm.a(lib_a-k_sin.o)
 .comment       0x00000000       0x23 /opt/devkitpro/devkitARM/lib/gcc/arm-none-eabi/4.7.1/../../../../arm-none-eabi/lib/libm.a(lib_a-s_finite.o)
 .comment       0x00000000       0x23 /opt/devkitpro/devkitARM/lib/gcc/arm-none-eabi/4.7.1/../../../../arm-none-eabi/lib/libm.a(lib_a-s_fpclassify.o)
 .comment       0x00000000       0x23 /opt/devkitpro/devkitARM/lib/gcc/arm-none-eabi/4.7.1/../../../../arm-none-eabi/lib/libm.a(lib_a-s_lib_ver.o)
 .comment       0x00000000       0x23 /opt/devkitpro/devkitARM/lib/gcc/arm-none-eabi/4.7.1/../../../../arm-none-eabi/lib/libm.a(lib_a-s_matherr.o)
 .comment       0x00000000       0x23 /opt/devkitpro/devkitARM/lib/gcc/arm-none-eabi/4.7.1/../../../../arm-none-eabi/lib/libm.a(lib_a-s_nan.o)
 .comment       0x00000000       0x23 /opt/devkitpro/devkitARM/lib/gcc/arm-none-eabi/4.7.1/../../../../arm-none-eabi/lib/libm.a(lib_a-s_rint.o)
 .comment       0x00000000       0x23 /opt/devkitpro/devkitARM/lib/gcc/arm-none-eabi/4.7.1/../../../../arm-none-eabi/lib/libm.a(lib_a-s_scalbn.o)
 .comment       0x00000000       0x23 /opt/devkitpro/devkitARM/lib/gcc/arm-none-eabi/4.7.1/../../../../arm-none-eabi/lib/libm.a(lib_a-e_log.o)
 .comment       0x00000000       0x23 /opt/devkitpro/devkitARM/lib/gcc/arm-none-eabi/4.7.1/../../../../arm-none-eabi/lib/libm.a(lib_a-s_copysign.o)
 .comment       0x00000000       0x23 /opt/devkitpro/devkitARM/lib/gcc/arm-none-eabi/4.7.1/libgcc.a(bpabi.o)
 .comment       0x00000000       0x23 /opt/devkitpro/devkitARM/lib/gcc/arm-none-eabi/4.7.1/libgcc.a(unwind-arm.o)
 .comment       0x00000000       0x23 /opt/devkitpro/devkitARM/lib/gcc/arm-none-eabi/4.7.1/libgcc.a(pr-support.o)
 .comment       0x00000000       0x23 /opt/devkitpro/devkitARM/lib/gcc/arm-none-eabi/4.7.1/libgcc.a(_divdi3.o)
 .comment       0x00000000       0x23 /opt/devkitpro/devkitARM/lib/gcc/arm-none-eabi/4.7.1/libgcc.a(_udivdi3.o)
 .comment       0x00000000       0x23 /opt/devkitpro/devkitARM/lib/gcc/arm-none-eabi/4.7.1/../../../../arm-none-eabi/lib/libc.a(lib_a-abort.o)
 .comment       0x00000000       0x23 /opt/devkitpro/devkitARM/lib/gcc/arm-none-eabi/4.7.1/../../../../arm-none-eabi/lib/libc.a(lib_a-abs.o)
 .comment       0x00000000       0x23 /opt/devkitpro/devkitARM/lib/gcc/arm-none-eabi/4.7.1/../../../../arm-none-eabi/lib/libc.a(lib_a-assert.o)
 .comment       0x00000000       0x23 /opt/devkitpro/devkitARM/lib/gcc/arm-none-eabi/4.7.1/../../../../arm-none-eabi/lib/libc.a(lib_a-atof.o)
 .comment       0x00000000       0x23 /opt/devkitpro/devkitARM/lib/gcc/arm-none-eabi/4.7.1/../../../../arm-none-eabi/lib/libc.a(lib_a-atoi.o)
 .comment       0x00000000       0x23 /opt/devkitpro/devkitARM/lib/gcc/arm-none-eabi/4.7.1/../../../../arm-none-eabi/lib/libc.a(lib_a-atol.o)
 .comment       0x00000000       0x23 /opt/devkitpro/devkitARM/lib/gcc/arm-none-eabi/4.7.1/../../../../arm-none-eabi/lib/libc.a(lib_a-atoll.o)
 .comment       0x00000000       0x23 /opt/devkitpro/devkitARM/lib/gcc/arm-none-eabi/4.7.1/../../../../arm-none-eabi/lib/libc.a(lib_a-calloc.o)
 .comment       0x00000000       0x23 /opt/devkitpro/devkitARM/lib/gcc/arm-none-eabi/4.7.1/../../../../arm-none-eabi/lib/libc.a(lib_a-callocr.o)
 .comment       0x00000000       0x23 /opt/devkitpro/devkitARM/lib/gcc/arm-none-eabi/4.7.1/../../../../arm-none-eabi/lib/libc.a(lib_a-ctype_.o)
 .comment       0x00000000       0x23 /opt/devkitpro/devkitARM/lib/gcc/arm-none-eabi/4.7.1/../../../../arm-none-eabi/lib/libc.a(lib_a-errno.o)
 .comment       0x00000000       0x23 /opt/devkitpro/devkitARM/lib/gcc/arm-none-eabi/4.7.1/../../../../arm-none-eabi/lib/libc.a(lib_a-fiprintf.o)
 .comment       0x00000000       0x23 /opt/devkitpro/devkitARM/lib/gcc/arm-none-eabi/4.7.1/../../../../arm-none-eabi/lib/libc.a(lib_a-fputc.o)
 .comment       0x00000000       0x23 /opt/devkitpro/devkitARM/lib/gcc/arm-none-eabi/4.7.1/../../../../arm-none-eabi/lib/libc.a(lib_a-fputs.o)
 .comment       0x00000000       0x23 /opt/devkitpro/devkitARM/lib/gcc/arm-none-eabi/4.7.1/../../../../arm-none-eabi/lib/libc.a(lib_a-fvwrite.o)
 .comment       0x00000000       0x23 /opt/devkitpro/devkitARM/lib/gcc/arm-none-eabi/4.7.1/../../../../arm-none-eabi/lib/libc.a(lib_a-fwrite.o)
 .comment       0x00000000       0x23 /opt/devkitpro/devkitARM/lib/gcc/arm-none-eabi/4.7.1/../../../../arm-none-eabi/lib/libc.a(lib_a-impure.o)
 .comment       0x00000000       0x23 /opt/devkitpro/devkitARM/lib/gcc/arm-none-eabi/4.7.1/../../../../arm-none-eabi/lib/libc.a(lib_a-init.o)
 .comment       0x00000000       0x23 /opt/devkitpro/devkitARM/lib/gcc/arm-none-eabi/4.7.1/../../../../arm-none-eabi/lib/libc.a(lib_a-labs.o)
 .comment       0x00000000       0x23 /opt/devkitpro/devkitARM/lib/gcc/arm-none-eabi/4.7.1/../../../../arm-none-eabi/lib/libc.a(lib_a-llabs.o)
 .comment       0x00000000       0x23 /opt/devkitpro/devkitARM/lib/gcc/arm-none-eabi/4.7.1/../../../../arm-none-eabi/lib/libc.a(lib_a-malloc.o)
 .comment       0x00000000       0x23 /opt/devkitpro/devkitARM/lib/gcc/arm-none-eabi/4.7.1/../../../../arm-none-eabi/lib/libc.a(lib_a-mallocr.o)
 .comment       0x00000000       0x23 /opt/devkitpro/devkitARM/lib/gcc/arm-none-eabi/4.7.1/../../../../arm-none-eabi/lib/libc.a(lib_a-memchr-stub.o)
 .comment       0x00000000       0x23 /opt/devkitpro/devkitARM/lib/gcc/arm-none-eabi/4.7.1/../../../../arm-none-eabi/lib/libc.a(lib_a-memcmp.o)
 .comment       0x00000000       0x23 /opt/devkitpro/devkitARM/lib/gcc/arm-none-eabi/4.7.1/../../../../arm-none-eabi/lib/libc.a(lib_a-memcpy-stub.o)
 .comment       0x00000000       0x23 /opt/devkitpro/devkitARM/lib/gcc/arm-none-eabi/4.7.1/../../../../arm-none-eabi/lib/libc.a(lib_a-memmove.o)
 .comment       0x00000000       0x23 /opt/devkitpro/devkitARM/lib/gcc/arm-none-eabi/4.7.1/../../../../arm-none-eabi/lib/libc.a(lib_a-memset.o)
 .comment       0x00000000       0x23 /opt/devkitpro/devkitARM/lib/gcc/arm-none-eabi/4.7.1/../../../../arm-none-eabi/lib/libc.a(lib_a-mlock.o)
 .comment       0x00000000       0x23 /opt/devkitpro/devkitARM/lib/gcc/arm-none-eabi/4.7.1/../../../../arm-none-eabi/lib/libc.a(lib_a-putc.o)
 .comment       0x00000000       0x23 /opt/devkitpro/devkitARM/lib/gcc/arm-none-eabi/4.7.1/../../../../arm-none-eabi/lib/libc.a(lib_a-rand.o)
 .comment       0x00000000       0x23 /opt/devkitpro/devkitARM/lib/gcc/arm-none-eabi/4.7.1/../../../../arm-none-eabi/lib/libc.a(lib_a-realloc.o)
 .comment       0x00000000       0x23 /opt/devkitpro/devkitARM/lib/gcc/arm-none-eabi/4.7.1/../../../../arm-none-eabi/lib/libc.a(lib_a-reallocr.o)
 .comment       0x00000000       0x23 /opt/devkitpro/devkitARM/lib/gcc/arm-none-eabi/4.7.1/../../../../arm-none-eabi/lib/libc.a(lib_a-signal.o)
 .comment       0x00000000       0x23 /opt/devkitpro/devkitARM/lib/gcc/arm-none-eabi/4.7.1/../../../../arm-none-eabi/lib/libc.a(lib_a-snprintf.o)
 .comment       0x00000000       0x23 /opt/devkitpro/devkitARM/lib/gcc/arm-none-eabi/4.7.1/../../../../arm-none-eabi/lib/libc.a(lib_a-sprintf.o)
 .comment       0x00000000       0x23 /opt/devkitpro/devkitARM/lib/gcc/arm-none-eabi/4.7.1/../../../../arm-none-eabi/lib/libc.a(lib_a-sscanf.o)
 .comment       0x00000000       0x23 /opt/devkitpro/devkitARM/lib/gcc/arm-none-eabi/4.7.1/../../../../arm-none-eabi/lib/libc.a(lib_a-stdio.o)
 .comment       0x00000000       0x23 /opt/devkitpro/devkitARM/lib/gcc/arm-none-eabi/4.7.1/../../../../arm-none-eabi/lib/libc.a(lib_a-stpcpy.o)
 .comment       0x00000000       0x23 /opt/devkitpro/devkitARM/lib/gcc/arm-none-eabi/4.7.1/../../../../arm-none-eabi/lib/libc.a(lib_a-strcat.o)
 .comment       0x00000000       0x23 /opt/devkitpro/devkitARM/lib/gcc/arm-none-eabi/4.7.1/../../../../arm-none-eabi/lib/libc.a(lib_a-strchr.o)
 .comment       0x00000000       0x23 /opt/devkitpro/devkitARM/lib/gcc/arm-none-eabi/4.7.1/../../../../arm-none-eabi/lib/libc.a(lib_a-strcmp.o)
 .comment       0x00000000       0x23 /opt/devkitpro/devkitARM/lib/gcc/arm-none-eabi/4.7.1/../../../../arm-none-eabi/lib/libc.a(lib_a-strcoll.o)
 .comment       0x00000000       0x23 /opt/devkitpro/devkitARM/lib/gcc/arm-none-eabi/4.7.1/../../../../arm-none-eabi/lib/libc.a(lib_a-strcpy.o)
 .comment       0x00000000       0x23 /opt/devkitpro/devkitARM/lib/gcc/arm-none-eabi/4.7.1/../../../../arm-none-eabi/lib/libc.a(lib_a-strcspn.o)
 .comment       0x00000000       0x23 /opt/devkitpro/devkitARM/lib/gcc/arm-none-eabi/4.7.1/../../../../arm-none-eabi/lib/libc.a(lib_a-strlen.o)
 .comment       0x00000000       0x23 /opt/devkitpro/devkitARM/lib/gcc/arm-none-eabi/4.7.1/../../../../arm-none-eabi/lib/libc.a(lib_a-strncat.o)
 .comment       0x00000000       0x23 /opt/devkitpro/devkitARM/lib/gcc/arm-none-eabi/4.7.1/../../../../arm-none-eabi/lib/libc.a(lib_a-strncmp.o)
 .comment       0x00000000       0x23 /opt/devkitpro/devkitARM/lib/gcc/arm-none-eabi/4.7.1/../../../../arm-none-eabi/lib/libc.a(lib_a-strncpy.o)
 .comment       0x00000000       0x23 /opt/devkitpro/devkitARM/lib/gcc/arm-none-eabi/4.7.1/../../../../arm-none-eabi/lib/libc.a(lib_a-strpbrk.o)
 .comment       0x00000000       0x23 /opt/devkitpro/devkitARM/lib/gcc/arm-none-eabi/4.7.1/../../../../arm-none-eabi/lib/libc.a(lib_a-strrchr.o)
 .comment       0x00000000       0x23 /opt/devkitpro/devkitARM/lib/gcc/arm-none-eabi/4.7.1/../../../../arm-none-eabi/lib/libc.a(lib_a-strspn.o)
 .comment       0x00000000       0x23 /opt/devkitpro/devkitARM/lib/gcc/arm-none-eabi/4.7.1/../../../../arm-none-eabi/lib/libc.a(lib_a-strstr.o)
 .comment       0x00000000       0x23 /opt/devkitpro/devkitARM/lib/gcc/arm-none-eabi/4.7.1/../../../../arm-none-eabi/lib/libc.a(lib_a-strtod.o)
 .comment       0x00000000       0x23 /opt/devkitpro/devkitARM/lib/gcc/arm-none-eabi/4.7.1/../../../../arm-none-eabi/lib/libc.a(lib_a-strtok.o)
 .comment       0x00000000       0x23 /opt/devkitpro/devkitARM/lib/gcc/arm-none-eabi/4.7.1/../../../../arm-none-eabi/lib/libc.a(lib_a-strtok_r.o)
 .comment       0x00000000       0x23 /opt/devkitpro/devkitARM/lib/gcc/arm-none-eabi/4.7.1/../../../../arm-none-eabi/lib/libc.a(lib_a-strtol.o)
 .comment       0x00000000       0x23 /opt/devkitpro/devkitARM/lib/gcc/arm-none-eabi/4.7.1/../../../../arm-none-eabi/lib/libc.a(lib_a-strtoll.o)
 .comment       0x00000000       0x23 /opt/devkitpro/devkitARM/lib/gcc/arm-none-eabi/4.7.1/../../../../arm-none-eabi/lib/libc.a(lib_a-strtoll_r.o)
 .comment       0x00000000       0x23 /opt/devkitpro/devkitARM/lib/gcc/arm-none-eabi/4.7.1/../../../../arm-none-eabi/lib/libc.a(lib_a-strxfrm.o)
 .comment       0x00000000       0x23 /opt/devkitpro/devkitARM/lib/gcc/arm-none-eabi/4.7.1/../../../../arm-none-eabi/lib/libc.a(lib_a-svfprintf.o)
 .comment       0x00000000       0x23 /opt/devkitpro/devkitARM/lib/gcc/arm-none-eabi/4.7.1/../../../../arm-none-eabi/lib/libc.a(lib_a-svfscanf.o)
 .comment       0x00000000       0x23 /opt/devkitpro/devkitARM/lib/gcc/arm-none-eabi/4.7.1/../../../../arm-none-eabi/lib/libc.a(lib_a-sysclose.o)
 .comment       0x00000000       0x23 /opt/devkitpro/devkitARM/lib/gcc/arm-none-eabi/4.7.1/../../../../arm-none-eabi/lib/libc.a(lib_a-syslseek.o)
 .comment       0x00000000       0x23 /opt/devkitpro/devkitARM/lib/gcc/arm-none-eabi/4.7.1/../../../../arm-none-eabi/lib/libc.a(lib_a-sysopen.o)
 .comment       0x00000000       0x23 /opt/devkitpro/devkitARM/lib/gcc/arm-none-eabi/4.7.1/../../../../arm-none-eabi/lib/libc.a(lib_a-sysread.o)
 .comment       0x00000000       0x23 /opt/devkitpro/devkitARM/lib/gcc/arm-none-eabi/4.7.1/../../../../arm-none-eabi/lib/libc.a(lib_a-syswrite.o)
 .comment       0x00000000       0x23 /opt/devkitpro/devkitARM/lib/gcc/arm-none-eabi/4.7.1/../../../../arm-none-eabi/lib/libc.a(lib_a-toupper.o)
 .comment       0x00000000       0x23 /opt/devkitpro/devkitARM/lib/gcc/arm-none-eabi/4.7.1/../../../../arm-none-eabi/lib/libc.a(lib_a-vfiprintf.o)
 .comment       0x00000000       0x23 /opt/devkitpro/devkitARM/lib/gcc/arm-none-eabi/4.7.1/../../../../arm-none-eabi/lib/libc.a(lib_a-vsnprintf.o)
 .comment       0x00000000       0x23 /opt/devkitpro/devkitARM/lib/gcc/arm-none-eabi/4.7.1/../../../../arm-none-eabi/lib/libc.a(lib_a-wbuf.o)
 .comment       0x00000000       0x23 /opt/devkitpro/devkitARM/lib/gcc/arm-none-eabi/4.7.1/../../../../arm-none-eabi/lib/libc.a(lib_a-wcrtomb.o)
 .comment       0x00000000       0x23 /opt/devkitpro/devkitARM/lib/gcc/arm-none-eabi/4.7.1/../../../../arm-none-eabi/lib/libc.a(lib_a-wcsrtombs.o)
 .comment       0x00000000       0x23 /opt/devkitpro/devkitARM/lib/gcc/arm-none-eabi/4.7.1/../../../../arm-none-eabi/lib/libc.a(lib_a-wctomb_r.o)
 .comment       0x00000000       0x23 /opt/devkitpro/devkitARM/lib/gcc/arm-none-eabi/4.7.1/../../../../arm-none-eabi/lib/libc.a(lib_a-wsetup.o)
 .comment       0x00000000       0x23 /opt/devkitpro/devkitARM/lib/gcc/arm-none-eabi/4.7.1/../../../../arm-none-eabi/lib/libc.a(lib_a-dtoa.o)
 .comment       0x00000000       0x23 /opt/devkitpro/devkitARM/lib/gcc/arm-none-eabi/4.7.1/../../../../arm-none-eabi/lib/libc.a(lib_a-fflush.o)
 .comment       0x00000000       0x23 /opt/devkitpro/devkitARM/lib/gcc/arm-none-eabi/4.7.1/../../../../arm-none-eabi/lib/libc.a(lib_a-findfp.o)
 .comment       0x00000000       0x23 /opt/devkitpro/devkitARM/lib/gcc/arm-none-eabi/4.7.1/../../../../arm-none-eabi/lib/libc.a(lib_a-fputwc.o)
 .comment       0x00000000       0x23 /opt/devkitpro/devkitARM/lib/gcc/arm-none-eabi/4.7.1/../../../../arm-none-eabi/lib/libc.a(lib_a-freer.o)
 .comment       0x00000000       0x23 /opt/devkitpro/devkitARM/lib/gcc/arm-none-eabi/4.7.1/../../../../arm-none-eabi/lib/libc.a(lib_a-fwalk.o)
 .comment       0x00000000       0x23 /opt/devkitpro/devkitARM/lib/gcc/arm-none-eabi/4.7.1/../../../../arm-none-eabi/lib/libc.a(lib_a-gdtoa-gethex.o)
 .comment       0x00000000       0x23 /opt/devkitpro/devkitARM/lib/gcc/arm-none-eabi/4.7.1/../../../../arm-none-eabi/lib/libc.a(lib_a-gdtoa-hexnan.o)
 .comment       0x00000000       0x23 /opt/devkitpro/devkitARM/lib/gcc/arm-none-eabi/4.7.1/../../../../arm-none-eabi/lib/libc.a(lib_a-iswspace.o)
 .comment       0x00000000       0x23 /opt/devkitpro/devkitARM/lib/gcc/arm-none-eabi/4.7.1/../../../../arm-none-eabi/lib/libc.a(lib_a-jp2uc.o)
 .comment       0x00000000       0x23 /opt/devkitpro/devkitARM/lib/gcc/arm-none-eabi/4.7.1/../../../../arm-none-eabi/lib/libc.a(lib_a-locale.o)
 .comment       0x00000000       0x23 /opt/devkitpro/devkitARM/lib/gcc/arm-none-eabi/4.7.1/../../../../arm-none-eabi/lib/libc.a(lib_a-makebuf.o)
 .comment       0x00000000       0x23 /opt/devkitpro/devkitARM/lib/gcc/arm-none-eabi/4.7.1/../../../../arm-none-eabi/lib/libc.a(lib_a-mbrtowc.o)
 .comment       0x00000000       0x23 /opt/devkitpro/devkitARM/lib/gcc/arm-none-eabi/4.7.1/../../../../arm-none-eabi/lib/libc.a(lib_a-mbtowc_r.o)
 .comment       0x00000000       0x23 /opt/devkitpro/devkitARM/lib/gcc/arm-none-eabi/4.7.1/../../../../arm-none-eabi/lib/libc.a(lib_a-mprec.o)
 .comment       0x00000000       0x23 /opt/devkitpro/devkitARM/lib/gcc/arm-none-eabi/4.7.1/../../../../arm-none-eabi/lib/libc.a(lib_a-sccl.o)
 .comment       0x00000000       0x23 /opt/devkitpro/devkitARM/lib/gcc/arm-none-eabi/4.7.1/../../../../arm-none-eabi/lib/libc.a(lib_a-sf_nan.o)
 .comment       0x00000000       0x23 /opt/devkitpro/devkitARM/lib/gcc/arm-none-eabi/4.7.1/../../../../arm-none-eabi/lib/libc.a(lib_a-strcasecmp.o)
 .comment       0x00000000       0x23 /opt/devkitpro/devkitARM/lib/gcc/arm-none-eabi/4.7.1/../../../../arm-none-eabi/lib/libc.a(lib_a-strlcpy.o)
 .comment       0x00000000       0x23 /opt/devkitpro/devkitARM/lib/gcc/arm-none-eabi/4.7.1/../../../../arm-none-eabi/lib/libc.a(lib_a-strncasecmp.o)
 .comment       0x00000000       0x23 /opt/devkitpro/devkitARM/lib/gcc/arm-none-eabi/4.7.1/../../../../arm-none-eabi/lib/libc.a(lib_a-strtoul.o)
 .comment       0x00000000       0x23 /opt/devkitpro/devkitARM/lib/gcc/arm-none-eabi/4.7.1/../../../../arm-none-eabi/lib/libc.a(lib_a-strtoull_r.o)
 .comment       0x00000000       0x23 /opt/devkitpro/devkitARM/lib/gcc/arm-none-eabi/4.7.1/../../../../arm-none-eabi/lib/libc.a(lib_a-svfiprintf.o)
 .comment       0x00000000       0x23 /opt/devkitpro/devkitARM/lib/gcc/arm-none-eabi/4.7.1/../../../../arm-none-eabi/lib/libc.a(lib_a-svfiscanf.o)
 .comment       0x00000000       0x23 /opt/devkitpro/devkitARM/lib/gcc/arm-none-eabi/4.7.1/../../../../arm-none-eabi/lib/libc.a(lib_a-ungetc.o)
 .comment       0x00000000       0x23 /opt/devkitpro/devkitARM/lib/gcc/arm-none-eabi/4.7.1/../../../../arm-none-eabi/lib/libc.a(lib_a-wcsnrtombs.o)
 .comment       0x00000000       0x23 /opt/devkitpro/devkitARM/lib/gcc/arm-none-eabi/4.7.1/../../../../arm-none-eabi/lib/libc.a(lib_a-fclose.o)
 .comment       0x00000000       0x23 /opt/devkitpro/devkitARM/lib/gcc/arm-none-eabi/4.7.1/../../../../arm-none-eabi/lib/libc.a(lib_a-getenv_r.o)
 .comment       0x00000000       0x23 /opt/devkitpro/devkitARM/lib/gcc/arm-none-eabi/4.7.1/../../../../arm-none-eabi/lib/libc.a(lib_a-environ.o)
 .comment       0x00000000       0x23 /opt/devkitpro/devkitARM/lib/gcc/arm-none-eabi/4.7.1/../../../../arm-none-eabi/lib/libc.a(lib_a-envlock.o)
 .comment       0x00000000       0x23 /opt/devkitpro/devkitARM/lib/gcc/arm-none-eabi/4.7.1/../../../../arm-none-eabi/lib/libsysbase.a(close.o)
 .comment       0x00000000       0x23 /opt/devkitpro/devkitARM/lib/gcc/arm-none-eabi/4.7.1/../../../../arm-none-eabi/lib/libsysbase.a(fstat.o)
 .comment       0x00000000       0x23 /opt/devkitpro/devkitARM/lib/gcc/arm-none-eabi/4.7.1/../../../../arm-none-eabi/lib/libsysbase.a(getpid.o)
 .comment       0x00000000       0x23 /opt/devkitpro/devkitARM/lib/gcc/arm-none-eabi/4.7.1/../../../../arm-none-eabi/lib/libsysbase.a(isatty.o)
 .comment       0x00000000       0x23 /opt/devkitpro/devkitARM/lib/gcc/arm-none-eabi/4.7.1/../../../../arm-none-eabi/lib/libsysbase.a(kill.o)
 .comment       0x00000000       0x23 /opt/devkitpro/devkitARM/lib/gcc/arm-none-eabi/4.7.1/../../../../arm-none-eabi/lib/libsysbase.a(lseek.o)
 .comment       0x00000000       0x23 /opt/devkitpro/devkitARM/lib/gcc/arm-none-eabi/4.7.1/../../../../arm-none-eabi/lib/libsysbase.a(open.o)
 .comment       0x00000000       0x23 /opt/devkitpro/devkitARM/lib/gcc/arm-none-eabi/4.7.1/../../../../arm-none-eabi/lib/libsysbase.a(read.o)
 .comment       0x00000000       0x23 /opt/devkitpro/devkitARM/lib/gcc/arm-none-eabi/4.7.1/../../../../arm-none-eabi/lib/libsysbase.a(sbrk.o)
 .comment       0x00000000       0x23 /opt/devkitpro/devkitARM/lib/gcc/arm-none-eabi/4.7.1/../../../../arm-none-eabi/lib/libsysbase.a(times.o)
 .comment       0x00000000       0x23 /opt/devkitpro/devkitARM/lib/gcc/arm-none-eabi/4.7.1/../../../../arm-none-eabi/lib/libsysbase.a(write.o)
 .comment       0x00000000       0x23 /opt/devkitpro/devkitARM/lib/gcc/arm-none-eabi/4.7.1/../../../../arm-none-eabi/lib/libsysbase.a(_exit.o)
 .comment       0x00000000       0x23 /opt/devkitpro/devkitARM/lib/gcc/arm-none-eabi/4.7.1/../../../../arm-none-eabi/lib/libsysbase.a(malloc_vars.o)
 .comment       0x00000000       0x23 /opt/devkitpro/devkitARM/lib/gcc/arm-none-eabi/4.7.1/../../../../arm-none-eabi/lib/libsysbase.a(build_argv.o)
 .comment       0x00000000       0x23 /opt/devkitpro/devkitARM/lib/gcc/arm-none-eabi/4.7.1/../../../../arm-none-eabi/lib/libsysbase.a(syscall_support.o)
 .comment       0x00000000       0x23 /opt/devkitpro/devkitARM/lib/gcc/arm-none-eabi/4.7.1/../../../../arm-none-eabi/lib/libsysbase.a(handle_manager.o)
 .comment       0x00000000       0x23 /opt/devkitpro/devkitARM/lib/gcc/arm-none-eabi/4.7.1/../../../../arm-none-eabi/lib/libsysbase.a(iosupport.o)
 .comment       0x00000000       0x23 /opt/devkitpro/devkitARM/lib/gcc/arm-none-eabi/4.7.1/crtend.o

.ARM.attributes
                0x00000000       0x2b
 .ARM.attributes
                0x00000000       0x29 ProgramID.o
 .ARM.attributes
                0x00000029       0x29 romeo2_ncd.o
 .ARM.attributes
                0x00000052       0x29 cglfont.o
 .ARM.attributes
                0x0000007b       0x29 cglstream.o
 .ARM.attributes
                0x000000a4       0x29 cgltgf.o
 .ARM.attributes
                0x000000cd       0x29 cstream.o
 .ARM.attributes
                0x000000f6       0x29 cstream_fs.o
 .ARM.attributes
                0x0000011f       0x29 shell_SystemAfter.o
 .ARM.attributes
                0x00000148       0x29 dll.o
 .ARM.attributes
                0x00000171       0x29 dllsound.o
 .ARM.attributes
                0x0000019a       0x29 playlist.o
 .ARM.attributes
                0x000001c3       0x29 plug_lyric.o
 .ARM.attributes
                0x000001ec       0x29 fpga_helper.o
 .ARM.attributes
                0x00000215       0x29 BMPReader.o
 .ARM.attributes
                0x0000023e       0x29 cfont.o
 .ARM.attributes
                0x00000267       0x29 component.o
 .ARM.attributes
                0x00000290       0x29 ErrorDialog.o
 .ARM.attributes
                0x000002b9       0x29 msgwin.o
 .ARM.attributes
                0x000002e2       0x29 particle.o
 .ARM.attributes
                0x0000030b       0x29 rect.o
 .ARM.attributes
                0x00000334       0x29 skin.o
 .ARM.attributes
                0x0000035d       0x29 splash.o
 .ARM.attributes
                0x00000386       0x29 VideoResume.o
 .ARM.attributes
                0x000003af       0x1d vramcache.o
 .ARM.attributes
                0x000003cc       0x29 extmem.o
 .ARM.attributes
                0x000003f5       0x29 extmem_DSBM.o
 .ARM.attributes
                0x0000041e       0x29 extmem_EZ3in1.o
 .ARM.attributes
                0x00000447       0x29 extmem_M3ExtPack.o
 .ARM.attributes
                0x00000470       0x29 extmem_RawMem.o
 .ARM.attributes
                0x00000499       0x29 extmem_SuperCard.o
 .ARM.attributes
                0x000004c2       0x29 BootROM.o
 .ARM.attributes
                0x000004eb       0x29 extlink.o
 .ARM.attributes
                0x00000514       0x29 NDSROMIcon.o
 .ARM.attributes
                0x0000053d       0x29 launchstate.o
 .ARM.attributes
                0x00000566       0x29 procstate.o
 .ARM.attributes
                0x0000058f       0x29 resume.o
 .ARM.attributes
                0x000005b8       0x29 sndeff.o
 .ARM.attributes
                0x000005e1       0x29 strpcm.o
 .ARM.attributes
                0x0000060a       0x29 snd_click_long_c_bin.o
 .ARM.attributes
                0x00000633       0x29 snd_click_short_c_bin.o
 .ARM.attributes
                0x0000065c       0x29 datetime.o
 .ARM.attributes
                0x00000685       0x29 md5c.o
 .ARM.attributes
                0x000006ae       0x1d fastlzss16decpalasm_body.o
 .ARM.attributes
                0x000006cb       0x29 fastlzss16decpalasm.o
 .ARM.attributes
                0x000006f4       0x29 euc2unicode.o
 .ARM.attributes
                0x0000071d       0x29 lang.o
 .ARM.attributes
                0x00000746       0x29 inifile.o
 .ARM.attributes
                0x0000076f       0x29 proc_chkdsk.o
 .ARM.attributes
                0x00000798       0x29 proc_setup.o
 .ARM.attributes
                0x000007c1       0x29 proc_FileList.o
 .ARM.attributes
                0x000007ea       0x29 NDSFiles.o
 .ARM.attributes
                0x00000813       0x29 hiddenpaths.o
 .ARM.attributes
                0x0000083c       0x29 ThumbDPG.o
 .ARM.attributes
                0x00000865       0x29 ThumbIPK.o
 .ARM.attributes
                0x0000088e       0x29 cipk_simple.o
 .ARM.attributes
                0x000008b7       0x29 proc_sysmenu.o
 .ARM.attributes
                0x000008e0       0x29 proc_DPGCustom.o
 .ARM.attributes
                0x00000909       0x29 proc_DPGPlay.o
 .ARM.attributes
                0x00000932       0x29 proc_ImageCustom.o
 .ARM.attributes
                0x0000095b       0x29 proc_ImageView.o
 .ARM.attributes
                0x00000984       0x29 proc_TextCustom.o
 .ARM.attributes
                0x000009ad       0x29 proc_TextMenu.o
 .ARM.attributes
                0x000009d6       0x29 proc_TextView.o
 .ARM.attributes
                0x000009ff       0x29 cctf.o
 .ARM.attributes
                0x00000a28       0x29 cctf_dfs.o
 .ARM.attributes
                0x00000a51       0x29 proc_BinView.o
 .ARM.attributes
                0x00000a7a       0x29 proc_Launch.o
 .ARM.attributes
                0x00000aa3       0x29 proc_Custom.o
 .ARM.attributes
                0x00000acc       0x29 proc_BootROM.o
 .ARM.attributes
                0x00000af5       0x29 proc_MemoEdit.o
 .ARM.attributes
                0x00000b1e       0x29 proc_MemoList.o
 .ARM.attributes
                0x00000b47       0x29 proc_AudioCustom.o
 .ARM.attributes
                0x00000b70       0x29 plug_mp3.o
 .ARM.attributes
                0x00000b99       0x29 bit.o
 .ARM.attributes
                0x00000bc2       0x29 decoder.o
 .ARM.attributes
                0x00000beb       0x29 fixed.o
 .ARM.attributes
                0x00000c14       0x29 frame.o
 .ARM.attributes
                0x00000c3d       0x29 huffman.o
 .ARM.attributes
                0x00000c66       0x29 layer12.o
 .ARM.attributes
                0x00000c8f       0x29 layer3.o
 .ARM.attributes
                0x00000cb8       0x29 stream.o
 .ARM.attributes
                0x00000ce1       0x29 synth.o
 .ARM.attributes
                0x00000d0a       0x29 timer.o
 .ARM.attributes
                0x00000d33       0x29 version.o
 .ARM.attributes
                0x00000d5c       0x29 plug_midi.o
 .ARM.attributes
                0x00000d85       0x29 mtrk.o
 .ARM.attributes
                0x00000dae       0x29 pch.o
 .ARM.attributes
                0x00000dd7       0x29 rcplib.o
 .ARM.attributes
                0x00000e00       0x29 smidlib.o
 .ARM.attributes
                0x00000e29       0x29 smidlib_sm.o
 .ARM.attributes
                0x00000e52       0x29 sndfont.o
 .ARM.attributes
                0x00000e7b       0x29 plug_gme.o
 .ARM.attributes
                0x00000ea4       0x29 Ay_Apu.o
 .ARM.attributes
                0x00000ecd       0x29 Ay_Cpu.o
 .ARM.attributes
                0x00000ef6       0x29 Ay_Emu.o
 .ARM.attributes
                0x00000f1f       0x29 Gbs_Emu.o
 .ARM.attributes
                0x00000f48       0x29 Gb_Apu.o
 .ARM.attributes
                0x00000f71       0x29 Gb_Cpu.o
 .ARM.attributes
                0x00000f9a       0x29 Gb_Oscs.o
 .ARM.attributes
                0x00000fc3       0x29 gme.o
 .ARM.attributes
                0x00000fec       0x29 Hes_Apu.o
 .ARM.attributes
                0x00001015       0x29 Hes_Cpu.o
 .ARM.attributes
                0x0000103e       0x29 Hes_Emu.o
 .ARM.attributes
                0x00001067       0x29 Kss_Cpu.o
 .ARM.attributes
                0x00001090       0x29 Kss_Emu.o
 .ARM.attributes
                0x000010b9       0x29 Kss_Scc_Apu.o
 .ARM.attributes
                0x000010e2       0x29 Nes_Apu.o
 .ARM.attributes
                0x0000110b       0x29 Nes_Cpu.o
 .ARM.attributes
                0x00001134       0x29 Nes_Fme7_Apu.o
 .ARM.attributes
                0x0000115d       0x29 Nes_Namco_Apu.o
 .ARM.attributes
                0x00001186       0x29 Nes_Oscs.o
 .ARM.attributes
                0x000011af       0x29 Nes_Vrc6_Apu.o
 .ARM.attributes
                0x000011d8       0x29 Nsf_Emu.o
 .ARM.attributes
                0x00001201       0x29 Sap_Apu.o
 .ARM.attributes
                0x0000122a       0x29 Sap_Cpu.o
 .ARM.attributes
                0x00001253       0x29 Sap_Emu.o
 .ARM.attributes
                0x0000127c       0x29 Sms_Apu.o
 .ARM.attributes
                0x000012a5       0x29 plug_ogg.o
 .ARM.attributes
                0x000012ce       0x29 bitwise.o
 .ARM.attributes
                0x000012f7       0x29 codebook.o
 .ARM.attributes
                0x00001320       0x29 floor0.o
 .ARM.attributes
                0x00001349       0x29 floor1.o
 .ARM.attributes
                0x00001372       0x29 framing.o
 .ARM.attributes
                0x0000139b       0x29 info.o
 .ARM.attributes
                0x000013c4       0x29 mapping0.o
 .ARM.attributes
                0x000013ed       0x29 _libogg_misc.o
 .ARM.attributes
                0x00001416       0x29 res012.o
 .ARM.attributes
                0x0000143f       0x29 vorbisfile.o
 .ARM.attributes
                0x00001468       0x29 _libogg_dsp.o
 .ARM.attributes
                0x00001491       0x29 _libogg_mdct.o
 .ARM.attributes
                0x000014ba       0x29 plug_wav.o
 .ARM.attributes
                0x000014e3       0x29 plug_jpeg.o
 .ARM.attributes
                0x0000150c       0x29 jcomapi.o
 .ARM.attributes
                0x00001535       0x29 jdapimin.o
 .ARM.attributes
                0x0000155e       0x29 jdapistd.o
 .ARM.attributes
                0x00001587       0x29 jdatasrc.o
 .ARM.attributes
                0x000015b0       0x29 jdcoefct.o
 .ARM.attributes
                0x000015d9       0x29 jdcolor.o
 .ARM.attributes
                0x00001602       0x29 jddctmgr.o
 .ARM.attributes
                0x0000162b       0x29 jdhuff.o
 .ARM.attributes
                0x00001654       0x29 jdinput.o
 .ARM.attributes
                0x0000167d       0x29 jdmainct.o
 .ARM.attributes
                0x000016a6       0x29 jdmarker.o
 .ARM.attributes
                0x000016cf       0x29 jdmaster.o
 .ARM.attributes
                0x000016f8       0x29 jdmerge.o
 .ARM.attributes
                0x00001721       0x29 jdphuff.o
 .ARM.attributes
                0x0000174a       0x29 jdpostct.o
 .ARM.attributes
                0x00001773       0x29 jdsample.o
 .ARM.attributes
                0x0000179c       0x29 jerror.o
 .ARM.attributes
                0x000017c5       0x29 jidctfst.o
 .ARM.attributes
                0x000017ee       0x29 jidctred.o
 .ARM.attributes
                0x00001817       0x29 jmemansi.o
 .ARM.attributes
                0x00001840       0x29 jmemmgr.o
 .ARM.attributes
                0x00001869       0x29 jquant1.o
 .ARM.attributes
                0x00001892       0x29 jutils.o
 .ARM.attributes
                0x000018bb       0x29 plug_png.o
 .ARM.attributes
                0x000018e4       0x29 png.o
 .ARM.attributes
                0x0000190d       0x29 pngerror.o
 .ARM.attributes
                0x00001936       0x29 pngget.o
 .ARM.attributes
                0x0000195f       0x29 pngmem.o
 .ARM.attributes
                0x00001988       0x29 pngread.o
 .ARM.attributes
                0x000019b1       0x29 pngrio.o
 .ARM.attributes
                0x000019da       0x29 pngrtran.o
 .ARM.attributes
                0x00001a03       0x29 pngrutil.o
 .ARM.attributes
                0x00001a2c       0x29 pngset.o
 .ARM.attributes
                0x00001a55       0x29 pngtrans.o
 .ARM.attributes
                0x00001a7e       0x29 plug_bmp.o
 .ARM.attributes
                0x00001aa7       0x29 plug_gif.o
 .ARM.attributes
                0x00001ad0       0x29 dgif_lib.o
 .ARM.attributes
                0x00001af9       0x29 gif_err.o
 .ARM.attributes
                0x00001b22       0x29 gifalloc.o
 .ARM.attributes
                0x00001b4b       0x29 plug_psd.o
 .ARM.attributes
                0x00001b74       0x29 alloc.o
 .ARM.attributes
                0x00001b9d       0x29 clibdpg.o
 .ARM.attributes
                0x00001bc6       0x29 clibmpg.o
 .ARM.attributes
                0x00001bef       0x29 decode.o
 .ARM.attributes
                0x00001c18       0x29 header.o
 .ARM.attributes
                0x00001c41       0x29 idct.o
 .ARM.attributes
                0x00001c6a       0x29 motion_comp.o
 .ARM.attributes
                0x00001c93       0x29 motion_comp_arm.o
 .ARM.attributes
                0x00001cbc       0x29 plug_dpg.o
 .ARM.attributes
                0x00001ce5       0x29 plug_mp2.o
 .ARM.attributes
                0x00001d0e       0x29 slice.o
 .ARM.attributes
                0x00001d37       0x29 _dpgfs.o
 .ARM.attributes
                0x00001d60       0x29 plug_srttitle.o
 .ARM.attributes
                0x00001d89       0x29 plug_ndsrom.o
 .ARM.attributes
                0x00001db2       0x29 Blip_Buffer.o
 .ARM.attributes
                0x00001ddb       0x29 Classic_Emu.o
 .ARM.attributes
                0x00001e04       0x29 Data_Reader.o
 .ARM.attributes
                0x00001e2d       0x29 Effects_Buffer.o
 .ARM.attributes
                0x00001e56       0x29 Gme_File.o
 .ARM.attributes
                0x00001e7f       0x29 Multi_Buffer.o
 .ARM.attributes
                0x00001ea8       0x29 Music_Emu.o
 .ARM.attributes
                0x00001ed1       0x23 /opt/devkitpro/devkitARM/lib/gcc/arm-none-eabi/4.7.1/../../../../arm-none-eabi/lib/ds_arm9_crt0.o
 .ARM.attributes
                0x00001ef4       0x18 /opt/devkitpro/devkitARM/lib/gcc/arm-none-eabi/4.7.1/crti.o
 .ARM.attributes
                0x00001f0c       0x32 /opt/devkitpro/devkitARM/lib/gcc/arm-none-eabi/4.7.1/crtbegin.o
 .ARM.attributes
                0x00001f3e       0x29 _console.o
 .ARM.attributes
                0x00001f67       0x29 _consoleWriteLog.o
 .ARM.attributes
                0x00001f90       0x29 main.o
 .ARM.attributes
                0x00001fb9       0x29 cglb15.o
 .ARM.attributes
                0x00001fe2       0x29 cglcanvas.o
 .ARM.attributes
                0x0000200b       0x29 cglscreenmain.o
 .ARM.attributes
                0x00002034       0x29 cglscreenoverlay.o
 .ARM.attributes
                0x0000205d       0x29 cglscreensub.o
 .ARM.attributes
                0x00002086       0x29 glglobal.o
 .ARM.attributes
                0x000020af       0x29 glmemtool.o
 .ARM.attributes
                0x000020d8       0x29 OverlayManager.o
 .ARM.attributes
                0x00002101       0x29 memtool.o
 .ARM.attributes
                0x0000212a       0x29 shell.o
 .ARM.attributes
                0x00002153       0x29 sndeff_dfs.o
 .ARM.attributes
                0x0000217c       0x29 strtool.o
 .ARM.attributes
                0x000021a5       0x29 unicode.o
 .ARM.attributes
                0x000021ce       0x29 zlibhelp.o
 .ARM.attributes
                0x000021f7       0x29 disc_io.o
 .ARM.attributes
                0x00002220       0x29 fat2.o
 .ARM.attributes
                0x00002249       0x29 gba_nds_fat.o
 .ARM.attributes
                0x00002272       0x29 Dual_Resampler.o
 .ARM.attributes
                0x0000229b       0x29 Fir_Resampler.o
 .ARM.attributes
                0x000022c4       0x29 Gym_Emu.o
 .ARM.attributes
                0x000022ed       0x29 M3u_Playlist.o
 .ARM.attributes
                0x00002316       0x29 Nsfe_Emu.o
 .ARM.attributes
                0x0000233f       0x29 Snes_Spc.o
 .ARM.attributes
                0x00002368       0x29 Spc_Cpu.o
 .ARM.attributes
                0x00002391       0x29 Spc_Dsp.o
 .ARM.attributes
                0x000023ba       0x29 Spc_Emu.o
 .ARM.attributes
                0x000023e3       0x29 Vgm_Emu.o
 .ARM.attributes
                0x0000240c       0x29 Vgm_Emu_Impl.o
 .ARM.attributes
                0x00002435       0x29 Ym2413_Emu.o
 .ARM.attributes
                0x0000245e       0x29 Ym2612_Emu.o
 .ARM.attributes
                0x00002487       0x29 _console_font_fixed6x6_packed_bin.o
 .ARM.attributes
                0x000024b0       0x29 bootwarn_b8zlib.o
 .ARM.attributes
                0x000024d9       0x29 guidxcrcerror_b8zlib.o
 .ARM.attributes
                0x00002502       0x29 versionerror_b8zlib.o
 .ARM.attributes
                0x0000252b       0x29 adler32.o
 .ARM.attributes
                0x00002554       0x29 crc32.o
 .ARM.attributes
                0x0000257d       0x29 deflate.o
 .ARM.attributes
                0x000025a6       0x29 infback.o
 .ARM.attributes
                0x000025cf       0x29 inffast.o
 .ARM.attributes
                0x000025f8       0x29 inflate.o
 .ARM.attributes
                0x00002621       0x29 inftrees.o
 .ARM.attributes
                0x0000264a       0x29 trees.o
 .ARM.attributes
                0x00002673       0x29 zutil.o
 .ARM.attributes
                0x0000269c       0x29 floor_lookup.o
 .ARM.attributes
                0x000026c5       0x1d motion_comp_arm_s.o
 .ARM.attributes
                0x000026e2       0x1d jpeg_idct_ifast_clip_asm.o
 .ARM.attributes
                0x000026ff       0x29 /opt/devkitpro/libnds/lib/libnds9.a(system.o)
 .ARM.attributes
                0x00002728       0x29 /opt/devkitpro/libnds/lib/libnds9.a(video.o)
 .ARM.attributes
                0x00002751       0x29 /opt/devkitpro/libnds/lib/libnds9.a(dldi.o)
 .ARM.attributes
                0x0000277a       0x29 /opt/devkitpro/libnds/lib/libnds9.a(initSystem.o)
 .ARM.attributes
                0x000027a3       0x29 /opt/devkitpro/libnds/lib/libnds9.a(fifosystem.o)
 .ARM.attributes
                0x000027cc       0x29 /opt/devkitpro/libnds/lib/libnds9.a(interrupts.o)
 .ARM.attributes
                0x000027f5       0x29 /opt/devkitpro/libnds/lib/libnds9.a(libnds_exit.arm.o)
 .ARM.attributes
                0x0000281e       0x1d /opt/devkitpro/libnds/lib/libnds9.a(dcache.o)
 .ARM.attributes
                0x0000283b       0x1d /opt/devkitpro/libnds/lib/libnds9.a(icache.o)
 .ARM.attributes
                0x00002858       0x1d /opt/devkitpro/libnds/lib/libnds9.a(dldi_stub.o)
 .ARM.attributes
                0x00002875       0x23 /opt/devkitpro/libnds/lib/libnds9.a(mpu_setup.o)
 .ARM.attributes
                0x00002898       0x1d /opt/devkitpro/libnds/lib/libnds9.a(biosCalls.o)
 .ARM.attributes
                0x000028b5       0x1d /opt/devkitpro/libnds/lib/libnds9.a(debugprint.o)
 .ARM.attributes
                0x000028d2       0x1d /opt/devkitpro/libnds/lib/libnds9.a(interruptDispatcher.o)
 .ARM.attributes
                0x000028ef       0x23 /opt/devkitpro/libnds/lib/libnds9.a(swiSoftReset.o)
 .ARM.attributes
                0x00002912       0x32 /opt/devkitpro/devkitARM/lib/gcc/arm-none-eabi/4.7.1/../../../../arm-none-eabi/lib/libstdc++.a(del_op.o)
 .ARM.attributes
                0x00002944       0x32 /opt/devkitpro/devkitARM/lib/gcc/arm-none-eabi/4.7.1/../../../../arm-none-eabi/lib/libstdc++.a(new_op.o)
 .ARM.attributes
                0x00002976       0x32 /opt/devkitpro/devkitARM/lib/gcc/arm-none-eabi/4.7.1/../../../../arm-none-eabi/lib/libstdc++.a(pure.o)
 .ARM.attributes
                0x000029a8       0x32 /opt/devkitpro/devkitARM/lib/gcc/arm-none-eabi/4.7.1/../../../../arm-none-eabi/lib/libstdc++.a(bad_alloc.o)
 .ARM.attributes
                0x000029da       0x32 /opt/devkitpro/devkitARM/lib/gcc/arm-none-eabi/4.7.1/../../../../arm-none-eabi/lib/libstdc++.a(eh_alloc.o)
 .ARM.attributes
                0x00002a0c       0x32 /opt/devkitpro/devkitARM/lib/gcc/arm-none-eabi/4.7.1/../../../../arm-none-eabi/lib/libstdc++.a(eh_arm.o)
 .ARM.attributes
                0x00002a3e       0x32 /opt/devkitpro/devkitARM/lib/gcc/arm-none-eabi/4.7.1/../../../../arm-none-eabi/lib/libstdc++.a(eh_call.o)
 .ARM.attributes
                0x00002a70       0x32 /opt/devkitpro/devkitARM/lib/gcc/arm-none-eabi/4.7.1/../../../../arm-none-eabi/lib/libstdc++.a(eh_catch.o)
 .ARM.attributes
                0x00002aa2       0x32 /opt/devkitpro/devkitARM/lib/gcc/arm-none-eabi/4.7.1/../../../../arm-none-eabi/lib/libstdc++.a(eh_exception.o)
 .ARM.attributes
                0x00002ad4       0x32 /opt/devkitpro/devkitARM/lib/gcc/arm-none-eabi/4.7.1/../../../../arm-none-eabi/lib/libstdc++.a(eh_globals.o)
 .ARM.attributes
                0x00002b06       0x32 /opt/devkitpro/devkitARM/lib/gcc/arm-none-eabi/4.7.1/../../../../arm-none-eabi/lib/libstdc++.a(eh_personality.o)
 .ARM.attributes
                0x00002b38       0x32 /opt/devkitpro/devkitARM/lib/gcc/arm-none-eabi/4.7.1/../../../../arm-none-eabi/lib/libstdc++.a(eh_terminate.o)
 .ARM.attributes
                0x00002b6a       0x32 /opt/devkitpro/devkitARM/lib/gcc/arm-none-eabi/4.7.1/../../../../arm-none-eabi/lib/libstdc++.a(eh_throw.o)
 .ARM.attributes
                0x00002b9c       0x32 /opt/devkitpro/devkitARM/lib/gcc/arm-none-eabi/4.7.1/../../../../arm-none-eabi/lib/libstdc++.a(eh_unex_handler.o)
 .ARM.attributes
                0x00002bce       0x32 /opt/devkitpro/devkitARM/lib/gcc/arm-none-eabi/4.7.1/../../../../arm-none-eabi/lib/libstdc++.a(new_handler.o)
 .ARM.attributes
                0x00002c00       0x32 /opt/devkitpro/devkitARM/lib/gcc/arm-none-eabi/4.7.1/../../../../arm-none-eabi/lib/libstdc++.a(si_class_type_info.o)
 .ARM.attributes
                0x00002c32       0x32 /opt/devkitpro/devkitARM/lib/gcc/arm-none-eabi/4.7.1/../../../../arm-none-eabi/lib/libstdc++.a(tinfo.o)
 .ARM.attributes
                0x00002c64       0x32 /opt/devkitpro/devkitARM/lib/gcc/arm-none-eabi/4.7.1/../../../../arm-none-eabi/lib/libstdc++.a(class_type_info.o)
 .ARM.attributes
                0x00002c96       0x32 /opt/devkitpro/devkitARM/lib/gcc/arm-none-eabi/4.7.1/../../../../arm-none-eabi/lib/libstdc++.a(eh_term_handler.o)
 .ARM.attributes
                0x00002cc8       0x32 /opt/devkitpro/devkitARM/lib/gcc/arm-none-eabi/4.7.1/../../../../arm-none-eabi/lib/libstdc++.a(vterminate.o)
 .ARM.attributes
                0x00002cfa       0x32 /opt/devkitpro/devkitARM/lib/gcc/arm-none-eabi/4.7.1/../../../../arm-none-eabi/lib/libstdc++.a(cp-demangle.o)
 .ARM.attributes
                0x00002d2c       0x32 /opt/devkitpro/devkitARM/lib/gcc/arm-none-eabi/4.7.1/../../../../arm-none-eabi/lib/libstdc++.a(eh_type.o)
 .ARM.attributes
                0x00002d5e       0x32 /opt/devkitpro/devkitARM/lib/gcc/arm-none-eabi/4.7.1/../../../../arm-none-eabi/lib/libm.a(lib_a-s_cos.o)
 .ARM.attributes
                0x00002d90       0x32 /opt/devkitpro/devkitARM/lib/gcc/arm-none-eabi/4.7.1/../../../../arm-none-eabi/lib/libm.a(lib_a-s_fabs.o)
 .ARM.attributes
                0x00002dc2       0x32 /opt/devkitpro/devkitARM/lib/gcc/arm-none-eabi/4.7.1/../../../../arm-none-eabi/lib/libm.a(lib_a-s_floor.o)
 .ARM.attributes
                0x00002df4       0x32 /opt/devkitpro/devkitARM/lib/gcc/arm-none-eabi/4.7.1/../../../../arm-none-eabi/lib/libm.a(lib_a-s_sin.o)
 .ARM.attributes
                0x00002e26       0x32 /opt/devkitpro/devkitARM/lib/gcc/arm-none-eabi/4.7.1/../../../../arm-none-eabi/lib/libm.a(lib_a-sf_fabs.o)
 .ARM.attributes
                0x00002e58       0x32 /opt/devkitpro/devkitARM/lib/gcc/arm-none-eabi/4.7.1/../../../../arm-none-eabi/lib/libm.a(lib_a-w_fmod.o)
 .ARM.attributes
                0x00002e8a       0x32 /opt/devkitpro/devkitARM/lib/gcc/arm-none-eabi/4.7.1/../../../../arm-none-eabi/lib/libm.a(lib_a-w_log10.o)
 .ARM.attributes
                0x00002ebc       0x32 /opt/devkitpro/devkitARM/lib/gcc/arm-none-eabi/4.7.1/../../../../arm-none-eabi/lib/libm.a(lib_a-w_pow.o)
 .ARM.attributes
                0x00002eee       0x32 /opt/devkitpro/devkitARM/lib/gcc/arm-none-eabi/4.7.1/../../../../arm-none-eabi/lib/libm.a(lib_a-e_fmod.o)
 .ARM.attributes
                0x00002f20       0x32 /opt/devkitpro/devkitARM/lib/gcc/arm-none-eabi/4.7.1/../../../../arm-none-eabi/lib/libm.a(lib_a-e_log10.o)
 .ARM.attributes
                0x00002f52       0x32 /opt/devkitpro/devkitARM/lib/gcc/arm-none-eabi/4.7.1/../../../../arm-none-eabi/lib/libm.a(lib_a-e_pow.o)
 .ARM.attributes
                0x00002f84       0x32 /opt/devkitpro/devkitARM/lib/gcc/arm-none-eabi/4.7.1/../../../../arm-none-eabi/lib/libm.a(lib_a-e_rem_pio2.o)
 .ARM.attributes
                0x00002fb6       0x32 /opt/devkitpro/devkitARM/lib/gcc/arm-none-eabi/4.7.1/../../../../arm-none-eabi/lib/libm.a(lib_a-e_sqrt.o)
 .ARM.attributes
                0x00002fe8       0x32 /opt/devkitpro/devkitARM/lib/gcc/arm-none-eabi/4.7.1/../../../../arm-none-eabi/lib/libm.a(lib_a-k_cos.o)
 .ARM.attributes
                0x0000301a       0x32 /opt/devkitpro/devkitARM/lib/gcc/arm-none-eabi/4.7.1/../../../../arm-none-eabi/lib/libm.a(lib_a-k_rem_pio2.o)
 .ARM.attributes
                0x0000304c       0x32 /opt/devkitpro/devkitARM/lib/gcc/arm-none-eabi/4.7.1/../../../../arm-none-eabi/lib/libm.a(lib_a-k_sin.o)
 .ARM.attributes
                0x0000307e       0x32 /opt/devkitpro/devkitARM/lib/gcc/arm-none-eabi/4.7.1/../../../../arm-none-eabi/lib/libm.a(lib_a-s_finite.o)
 .ARM.attributes
                0x000030b0       0x32 /opt/devkitpro/devkitARM/lib/gcc/arm-none-eabi/4.7.1/../../../../arm-none-eabi/lib/libm.a(lib_a-s_fpclassify.o)
 .ARM.attributes
                0x000030e2       0x32 /opt/devkitpro/devkitARM/lib/gcc/arm-none-eabi/4.7.1/../../../../arm-none-eabi/lib/libm.a(lib_a-s_lib_ver.o)
 .ARM.attributes
                0x00003114       0x32 /opt/devkitpro/devkitARM/lib/gcc/arm-none-eabi/4.7.1/../../../../arm-none-eabi/lib/libm.a(lib_a-s_matherr.o)
 .ARM.attributes
                0x00003146       0x32 /opt/devkitpro/devkitARM/lib/gcc/arm-none-eabi/4.7.1/../../../../arm-none-eabi/lib/libm.a(lib_a-s_nan.o)
 .ARM.attributes
                0x00003178       0x32 /opt/devkitpro/devkitARM/lib/gcc/arm-none-eabi/4.7.1/../../../../arm-none-eabi/lib/libm.a(lib_a-s_rint.o)
 .ARM.attributes
                0x000031aa       0x32 /opt/devkitpro/devkitARM/lib/gcc/arm-none-eabi/4.7.1/../../../../arm-none-eabi/lib/libm.a(lib_a-s_scalbn.o)
 .ARM.attributes
                0x000031dc       0x32 /opt/devkitpro/devkitARM/lib/gcc/arm-none-eabi/4.7.1/../../../../arm-none-eabi/lib/libm.a(lib_a-e_log.o)
 .ARM.attributes
                0x0000320e       0x32 /opt/devkitpro/devkitARM/lib/gcc/arm-none-eabi/4.7.1/../../../../arm-none-eabi/lib/libm.a(lib_a-s_copysign.o)
 .ARM.attributes
                0x00003240       0x1a /opt/devkitpro/devkitARM/lib/gcc/arm-none-eabi/4.7.1/libgcc.a(_udivsi3.o)
 .ARM.attributes
                0x0000325a       0x1a /opt/devkitpro/devkitARM/lib/gcc/arm-none-eabi/4.7.1/libgcc.a(_divsi3.o)
 .ARM.attributes
                0x00003274       0x18 /opt/devkitpro/devkitARM/lib/gcc/arm-none-eabi/4.7.1/libgcc.a(_dvmd_tls.o)
 .ARM.attributes
                0x0000328c       0x1a /opt/devkitpro/devkitARM/lib/gcc/arm-none-eabi/4.7.1/libgcc.a(_arm_addsubdf3.o)
 .ARM.attributes
                0x000032a6       0x1a /opt/devkitpro/devkitARM/lib/gcc/arm-none-eabi/4.7.1/libgcc.a(_arm_muldivdf3.o)
 .ARM.attributes
                0x000032c0       0x1a /opt/devkitpro/devkitARM/lib/gcc/arm-none-eabi/4.7.1/libgcc.a(_arm_cmpdf2.o)
 .ARM.attributes
                0x000032da       0x1a /opt/devkitpro/devkitARM/lib/gcc/arm-none-eabi/4.7.1/libgcc.a(_arm_fixdfsi.o)
 .ARM.attributes
                0x000032f4       0x1a /opt/devkitpro/devkitARM/lib/gcc/arm-none-eabi/4.7.1/libgcc.a(_arm_fixunsdfsi.o)
 .ARM.attributes
                0x0000330e       0x1a /opt/devkitpro/devkitARM/lib/gcc/arm-none-eabi/4.7.1/libgcc.a(_arm_truncdfsf2.o)
 .ARM.attributes
                0x00003328       0x1a /opt/devkitpro/devkitARM/lib/gcc/arm-none-eabi/4.7.1/libgcc.a(_arm_addsubsf3.o)
 .ARM.attributes
                0x00003342       0x1a /opt/devkitpro/devkitARM/lib/gcc/arm-none-eabi/4.7.1/libgcc.a(_arm_muldivsf3.o)
 .ARM.attributes
                0x0000335c       0x1a /opt/devkitpro/devkitARM/lib/gcc/arm-none-eabi/4.7.1/libgcc.a(_arm_cmpsf2.o)
 .ARM.attributes
                0x00003376       0x1a /opt/devkitpro/devkitARM/lib/gcc/arm-none-eabi/4.7.1/libgcc.a(_arm_fixsfsi.o)
 .ARM.attributes
                0x00003390       0x1a /opt/devkitpro/devkitARM/lib/gcc/arm-none-eabi/4.7.1/libgcc.a(_arm_fixunssfsi.o)
 .ARM.attributes
                0x000033aa       0x1a /opt/devkitpro/devkitARM/lib/gcc/arm-none-eabi/4.7.1/libgcc.a(_aeabi_ldivmod.o)
 .ARM.attributes
                0x000033c4       0x1a /opt/devkitpro/devkitARM/lib/gcc/arm-none-eabi/4.7.1/libgcc.a(_aeabi_uldivmod.o)
 .ARM.attributes
                0x000033de       0x32 /opt/devkitpro/devkitARM/lib/gcc/arm-none-eabi/4.7.1/libgcc.a(bpabi.o)
 .ARM.attributes
                0x00003410       0x32 /opt/devkitpro/devkitARM/lib/gcc/arm-none-eabi/4.7.1/libgcc.a(unwind-arm.o)
 .ARM.attributes
                0x00003442       0x1e /opt/devkitpro/devkitARM/lib/gcc/arm-none-eabi/4.7.1/libgcc.a(libunwind.o)
 .ARM.attributes
                0x00003460       0x32 /opt/devkitpro/devkitARM/lib/gcc/arm-none-eabi/4.7.1/libgcc.a(pr-support.o)
 .ARM.attributes
                0x00003492       0x32 /opt/devkitpro/devkitARM/lib/gcc/arm-none-eabi/4.7.1/libgcc.a(_divdi3.o)
 .ARM.attributes
                0x000034c4       0x32 /opt/devkitpro/devkitARM/lib/gcc/arm-none-eabi/4.7.1/libgcc.a(_udivdi3.o)
 .ARM.attributes
                0x000034f6       0x1a /opt/devkitpro/devkitARM/lib/gcc/arm-none-eabi/4.7.1/libgcc.a(_clzsi2.o)
 .ARM.attributes
                0x00003510       0x32 /opt/devkitpro/devkitARM/lib/gcc/arm-none-eabi/4.7.1/../../../../arm-none-eabi/lib/libc.a(lib_a-abort.o)
 .ARM.attributes
                0x00003542       0x32 /opt/devkitpro/devkitARM/lib/gcc/arm-none-eabi/4.7.1/../../../../arm-none-eabi/lib/libc.a(lib_a-abs.o)
 .ARM.attributes
                0x00003574       0x32 /opt/devkitpro/devkitARM/lib/gcc/arm-none-eabi/4.7.1/../../../../arm-none-eabi/lib/libc.a(lib_a-assert.o)
 .ARM.attributes
                0x000035a6       0x32 /opt/devkitpro/devkitARM/lib/gcc/arm-none-eabi/4.7.1/../../../../arm-none-eabi/lib/libc.a(lib_a-atof.o)
 .ARM.attributes
                0x000035d8       0x32 /opt/devkitpro/devkitARM/lib/gcc/arm-none-eabi/4.7.1/../../../../arm-none-eabi/lib/libc.a(lib_a-atoi.o)
 .ARM.attributes
                0x0000360a       0x32 /opt/devkitpro/devkitARM/lib/gcc/arm-none-eabi/4.7.1/../../../../arm-none-eabi/lib/libc.a(lib_a-atol.o)
 .ARM.attributes
                0x0000363c       0x32 /opt/devkitpro/devkitARM/lib/gcc/arm-none-eabi/4.7.1/../../../../arm-none-eabi/lib/libc.a(lib_a-atoll.o)
 .ARM.attributes
                0x0000366e       0x32 /opt/devkitpro/devkitARM/lib/gcc/arm-none-eabi/4.7.1/../../../../arm-none-eabi/lib/libc.a(lib_a-calloc.o)
 .ARM.attributes
                0x000036a0       0x32 /opt/devkitpro/devkitARM/lib/gcc/arm-none-eabi/4.7.1/../../../../arm-none-eabi/lib/libc.a(lib_a-callocr.o)
 .ARM.attributes
                0x000036d2       0x32 /opt/devkitpro/devkitARM/lib/gcc/arm-none-eabi/4.7.1/../../../../arm-none-eabi/lib/libc.a(lib_a-ctype_.o)
 .ARM.attributes
                0x00003704       0x32 /opt/devkitpro/devkitARM/lib/gcc/arm-none-eabi/4.7.1/../../../../arm-none-eabi/lib/libc.a(lib_a-errno.o)
 .ARM.attributes
                0x00003736       0x32 /opt/devkitpro/devkitARM/lib/gcc/arm-none-eabi/4.7.1/../../../../arm-none-eabi/lib/libc.a(lib_a-fiprintf.o)
 .ARM.attributes
                0x00003768       0x32 /opt/devkitpro/devkitARM/lib/gcc/arm-none-eabi/4.7.1/../../../../arm-none-eabi/lib/libc.a(lib_a-fputc.o)
 .ARM.attributes
                0x0000379a       0x32 /opt/devkitpro/devkitARM/lib/gcc/arm-none-eabi/4.7.1/../../../../arm-none-eabi/lib/libc.a(lib_a-fputs.o)
 .ARM.attributes
                0x000037cc       0x32 /opt/devkitpro/devkitARM/lib/gcc/arm-none-eabi/4.7.1/../../../../arm-none-eabi/lib/libc.a(lib_a-fvwrite.o)
 .ARM.attributes
                0x000037fe       0x32 /opt/devkitpro/devkitARM/lib/gcc/arm-none-eabi/4.7.1/../../../../arm-none-eabi/lib/libc.a(lib_a-fwrite.o)
 .ARM.attributes
                0x00003830       0x32 /opt/devkitpro/devkitARM/lib/gcc/arm-none-eabi/4.7.1/../../../../arm-none-eabi/lib/libc.a(lib_a-impure.o)
 .ARM.attributes
                0x00003862       0x32 /opt/devkitpro/devkitARM/lib/gcc/arm-none-eabi/4.7.1/../../../../arm-none-eabi/lib/libc.a(lib_a-init.o)
 .ARM.attributes
                0x00003894       0x32 /opt/devkitpro/devkitARM/lib/gcc/arm-none-eabi/4.7.1/../../../../arm-none-eabi/lib/libc.a(lib_a-labs.o)
 .ARM.attributes
                0x000038c6       0x32 /opt/devkitpro/devkitARM/lib/gcc/arm-none-eabi/4.7.1/../../../../arm-none-eabi/lib/libc.a(lib_a-llabs.o)
 .ARM.attributes
                0x000038f8       0x32 /opt/devkitpro/devkitARM/lib/gcc/arm-none-eabi/4.7.1/../../../../arm-none-eabi/lib/libc.a(lib_a-malloc.o)
 .ARM.attributes
                0x0000392a       0x32 /opt/devkitpro/devkitARM/lib/gcc/arm-none-eabi/4.7.1/../../../../arm-none-eabi/lib/libc.a(lib_a-mallocr.o)
 .ARM.attributes
                0x0000395c       0x32 /opt/devkitpro/devkitARM/lib/gcc/arm-none-eabi/4.7.1/../../../../arm-none-eabi/lib/libc.a(lib_a-memchr-stub.o)
 .ARM.attributes
                0x0000398e       0x32 /opt/devkitpro/devkitARM/lib/gcc/arm-none-eabi/4.7.1/../../../../arm-none-eabi/lib/libc.a(lib_a-memcmp.o)
 .ARM.attributes
                0x000039c0       0x32 /opt/devkitpro/devkitARM/lib/gcc/arm-none-eabi/4.7.1/../../../../arm-none-eabi/lib/libc.a(lib_a-memcpy-stub.o)
 .ARM.attributes
                0x000039f2       0x32 /opt/devkitpro/devkitARM/lib/gcc/arm-none-eabi/4.7.1/../../../../arm-none-eabi/lib/libc.a(lib_a-memmove.o)
 .ARM.attributes
                0x00003a24       0x32 /opt/devkitpro/devkitARM/lib/gcc/arm-none-eabi/4.7.1/../../../../arm-none-eabi/lib/libc.a(lib_a-memset.o)
 .ARM.attributes
                0x00003a56       0x32 /opt/devkitpro/devkitARM/lib/gcc/arm-none-eabi/4.7.1/../../../../arm-none-eabi/lib/libc.a(lib_a-mlock.o)
 .ARM.attributes
                0x00003a88       0x32 /opt/devkitpro/devkitARM/lib/gcc/arm-none-eabi/4.7.1/../../../../arm-none-eabi/lib/libc.a(lib_a-putc.o)
 .ARM.attributes
                0x00003aba       0x32 /opt/devkitpro/devkitARM/lib/gcc/arm-none-eabi/4.7.1/../../../../arm-none-eabi/lib/libc.a(lib_a-rand.o)
 .ARM.attributes
                0x00003aec       0x32 /opt/devkitpro/devkitARM/lib/gcc/arm-none-eabi/4.7.1/../../../../arm-none-eabi/lib/libc.a(lib_a-realloc.o)
 .ARM.attributes
                0x00003b1e       0x32 /opt/devkitpro/devkitARM/lib/gcc/arm-none-eabi/4.7.1/../../../../arm-none-eabi/lib/libc.a(lib_a-reallocr.o)
 .ARM.attributes
                0x00003b50       0x32 /opt/devkitpro/devkitARM/lib/gcc/arm-none-eabi/4.7.1/../../../../arm-none-eabi/lib/libc.a(lib_a-signal.o)
 .ARM.attributes
                0x00003b82       0x32 /opt/devkitpro/devkitARM/lib/gcc/arm-none-eabi/4.7.1/../../../../arm-none-eabi/lib/libc.a(lib_a-snprintf.o)
 .ARM.attributes
                0x00003bb4       0x32 /opt/devkitpro/devkitARM/lib/gcc/arm-none-eabi/4.7.1/../../../../arm-none-eabi/lib/libc.a(lib_a-sprintf.o)
 .ARM.attributes
                0x00003be6       0x32 /opt/devkitpro/devkitARM/lib/gcc/arm-none-eabi/4.7.1/../../../../arm-none-eabi/lib/libc.a(lib_a-sscanf.o)
 .ARM.attributes
                0x00003c18       0x32 /opt/devkitpro/devkitARM/lib/gcc/arm-none-eabi/4.7.1/../../../../arm-none-eabi/lib/libc.a(lib_a-stdio.o)
 .ARM.attributes
                0x00003c4a       0x32 /opt/devkitpro/devkitARM/lib/gcc/arm-none-eabi/4.7.1/../../../../arm-none-eabi/lib/libc.a(lib_a-stpcpy.o)
 .ARM.attributes
                0x00003c7c       0x32 /opt/devkitpro/devkitARM/lib/gcc/arm-none-eabi/4.7.1/../../../../arm-none-eabi/lib/libc.a(lib_a-strcat.o)
 .ARM.attributes
                0x00003cae       0x32 /opt/devkitpro/devkitARM/lib/gcc/arm-none-eabi/4.7.1/../../../../arm-none-eabi/lib/libc.a(lib_a-strchr.o)
 .ARM.attributes
                0x00003ce0       0x32 /opt/devkitpro/devkitARM/lib/gcc/arm-none-eabi/4.7.1/../../../../arm-none-eabi/lib/libc.a(lib_a-strcmp.o)
 .ARM.attributes
                0x00003d12       0x32 /opt/devkitpro/devkitARM/lib/gcc/arm-none-eabi/4.7.1/../../../../arm-none-eabi/lib/libc.a(lib_a-strcoll.o)
 .ARM.attributes
                0x00003d44       0x32 /opt/devkitpro/devkitARM/lib/gcc/arm-none-eabi/4.7.1/../../../../arm-none-eabi/lib/libc.a(lib_a-strcpy.o)
 .ARM.attributes
                0x00003d76       0x32 /opt/devkitpro/devkitARM/lib/gcc/arm-none-eabi/4.7.1/../../../../arm-none-eabi/lib/libc.a(lib_a-strcspn.o)
 .ARM.attributes
                0x00003da8       0x32 /opt/devkitpro/devkitARM/lib/gcc/arm-none-eabi/4.7.1/../../../../arm-none-eabi/lib/libc.a(lib_a-strlen.o)
 .ARM.attributes
                0x00003dda       0x32 /opt/devkitpro/devkitARM/lib/gcc/arm-none-eabi/4.7.1/../../../../arm-none-eabi/lib/libc.a(lib_a-strncat.o)
 .ARM.attributes
                0x00003e0c       0x32 /opt/devkitpro/devkitARM/lib/gcc/arm-none-eabi/4.7.1/../../../../arm-none-eabi/lib/libc.a(lib_a-strncmp.o)
 .ARM.attributes
                0x00003e3e       0x32 /opt/devkitpro/devkitARM/lib/gcc/arm-none-eabi/4.7.1/../../../../arm-none-eabi/lib/libc.a(lib_a-strncpy.o)
 .ARM.attributes
                0x00003e70       0x32 /opt/devkitpro/devkitARM/lib/gcc/arm-none-eabi/4.7.1/../../../../arm-none-eabi/lib/libc.a(lib_a-strpbrk.o)
 .ARM.attributes
                0x00003ea2       0x32 /opt/devkitpro/devkitARM/lib/gcc/arm-none-eabi/4.7.1/../../../../arm-none-eabi/lib/libc.a(lib_a-strrchr.o)
 .ARM.attributes
                0x00003ed4       0x32 /opt/devkitpro/devkitARM/lib/gcc/arm-none-eabi/4.7.1/../../../../arm-none-eabi/lib/libc.a(lib_a-strspn.o)
 .ARM.attributes
                0x00003f06       0x32 /opt/devkitpro/devkitARM/lib/gcc/arm-none-eabi/4.7.1/../../../../arm-none-eabi/lib/libc.a(lib_a-strstr.o)
 .ARM.attributes
                0x00003f38       0x32 /opt/devkitpro/devkitARM/lib/gcc/arm-none-eabi/4.7.1/../../../../arm-none-eabi/lib/libc.a(lib_a-strtod.o)
 .ARM.attributes
                0x00003f6a       0x32 /opt/devkitpro/devkitARM/lib/gcc/arm-none-eabi/4.7.1/../../../../arm-none-eabi/lib/libc.a(lib_a-strtok.o)
 .ARM.attributes
                0x00003f9c       0x32 /opt/devkitpro/devkitARM/lib/gcc/arm-none-eabi/4.7.1/../../../../arm-none-eabi/lib/libc.a(lib_a-strtok_r.o)
 .ARM.attributes
                0x00003fce       0x32 /opt/devkitpro/devkitARM/lib/gcc/arm-none-eabi/4.7.1/../../../../arm-none-eabi/lib/libc.a(lib_a-strtol.o)
 .ARM.attributes
                0x00004000       0x32 /opt/devkitpro/devkitARM/lib/gcc/arm-none-eabi/4.7.1/../../../../arm-none-eabi/lib/libc.a(lib_a-strtoll.o)
 .ARM.attributes
                0x00004032       0x32 /opt/devkitpro/devkitARM/lib/gcc/arm-none-eabi/4.7.1/../../../../arm-none-eabi/lib/libc.a(lib_a-strtoll_r.o)
 .ARM.attributes
                0x00004064       0x32 /opt/devkitpro/devkitARM/lib/gcc/arm-none-eabi/4.7.1/../../../../arm-none-eabi/lib/libc.a(lib_a-strxfrm.o)
 .ARM.attributes
                0x00004096       0x32 /opt/devkitpro/devkitARM/lib/gcc/arm-none-eabi/4.7.1/../../../../arm-none-eabi/lib/libc.a(lib_a-svfprintf.o)
 .ARM.attributes
                0x000040c8       0x32 /opt/devkitpro/devkitARM/lib/gcc/arm-none-eabi/4.7.1/../../../../arm-none-eabi/lib/libc.a(lib_a-svfscanf.o)
 .ARM.attributes
                0x000040fa       0x32 /opt/devkitpro/devkitARM/lib/gcc/arm-none-eabi/4.7.1/../../../../arm-none-eabi/lib/libc.a(lib_a-sysclose.o)
 .ARM.attributes
                0x0000412c       0x32 /opt/devkitpro/devkitARM/lib/gcc/arm-none-eabi/4.7.1/../../../../arm-none-eabi/lib/libc.a(lib_a-syslseek.o)
 .ARM.attributes
                0x0000415e       0x32 /opt/devkitpro/devkitARM/lib/gcc/arm-none-eabi/4.7.1/../../../../arm-none-eabi/lib/libc.a(lib_a-sysopen.o)
 .ARM.attributes
                0x00004190       0x32 /opt/devkitpro/devkitARM/lib/gcc/arm-none-eabi/4.7.1/../../../../arm-none-eabi/lib/libc.a(lib_a-sysread.o)
 .ARM.attributes
                0x000041c2       0x32 /opt/devkitpro/devkitARM/lib/gcc/arm-none-eabi/4.7.1/../../../../arm-none-eabi/lib/libc.a(lib_a-syswrite.o)
 .ARM.attributes
                0x000041f4       0x32 /opt/devkitpro/devkitARM/lib/gcc/arm-none-eabi/4.7.1/../../../../arm-none-eabi/lib/libc.a(lib_a-toupper.o)
 .ARM.attributes
                0x00004226       0x32 /opt/devkitpro/devkitARM/lib/gcc/arm-none-eabi/4.7.1/../../../../arm-none-eabi/lib/libc.a(lib_a-vfiprintf.o)
 .ARM.attributes
                0x00004258       0x32 /opt/devkitpro/devkitARM/lib/gcc/arm-none-eabi/4.7.1/../../../../arm-none-eabi/lib/libc.a(lib_a-vsnprintf.o)
 .ARM.attributes
                0x0000428a       0x32 /opt/devkitpro/devkitARM/lib/gcc/arm-none-eabi/4.7.1/../../../../arm-none-eabi/lib/libc.a(lib_a-wbuf.o)
 .ARM.attributes
                0x000042bc       0x32 /opt/devkitpro/devkitARM/lib/gcc/arm-none-eabi/4.7.1/../../../../arm-none-eabi/lib/libc.a(lib_a-wcrtomb.o)
 .ARM.attributes
                0x000042ee       0x32 /opt/devkitpro/devkitARM/lib/gcc/arm-none-eabi/4.7.1/../../../../arm-none-eabi/lib/libc.a(lib_a-wcsrtombs.o)
 .ARM.attributes
                0x00004320       0x32 /opt/devkitpro/devkitARM/lib/gcc/arm-none-eabi/4.7.1/../../../../arm-none-eabi/lib/libc.a(lib_a-wctomb_r.o)
 .ARM.attributes
                0x00004352       0x32 /opt/devkitpro/devkitARM/lib/gcc/arm-none-eabi/4.7.1/../../../../arm-none-eabi/lib/libc.a(lib_a-wsetup.o)
 .ARM.attributes
                0x00004384       0x32 /opt/devkitpro/devkitARM/lib/gcc/arm-none-eabi/4.7.1/../../../../arm-none-eabi/lib/libc.a(lib_a-dtoa.o)
 .ARM.attributes
                0x000043b6       0x32 /opt/devkitpro/devkitARM/lib/gcc/arm-none-eabi/4.7.1/../../../../arm-none-eabi/lib/libc.a(lib_a-fflush.o)
 .ARM.attributes
                0x000043e8       0x32 /opt/devkitpro/devkitARM/lib/gcc/arm-none-eabi/4.7.1/../../../../arm-none-eabi/lib/libc.a(lib_a-findfp.o)
 .ARM.attributes
                0x0000441a       0x32 /opt/devkitpro/devkitARM/lib/gcc/arm-none-eabi/4.7.1/../../../../arm-none-eabi/lib/libc.a(lib_a-fputwc.o)
 .ARM.attributes
                0x0000444c       0x32 /opt/devkitpro/devkitARM/lib/gcc/arm-none-eabi/4.7.1/../../../../arm-none-eabi/lib/libc.a(lib_a-freer.o)
 .ARM.attributes
                0x0000447e       0x32 /opt/devkitpro/devkitARM/lib/gcc/arm-none-eabi/4.7.1/../../../../arm-none-eabi/lib/libc.a(lib_a-fwalk.o)
 .ARM.attributes
                0x000044b0       0x32 /opt/devkitpro/devkitARM/lib/gcc/arm-none-eabi/4.7.1/../../../../arm-none-eabi/lib/libc.a(lib_a-gdtoa-gethex.o)
 .ARM.attributes
                0x000044e2       0x32 /opt/devkitpro/devkitARM/lib/gcc/arm-none-eabi/4.7.1/../../../../arm-none-eabi/lib/libc.a(lib_a-gdtoa-hexnan.o)
 .ARM.attributes
                0x00004514       0x32 /opt/devkitpro/devkitARM/lib/gcc/arm-none-eabi/4.7.1/../../../../arm-none-eabi/lib/libc.a(lib_a-iswspace.o)
 .ARM.attributes
                0x00004546       0x32 /opt/devkitpro/devkitARM/lib/gcc/arm-none-eabi/4.7.1/../../../../arm-none-eabi/lib/libc.a(lib_a-jp2uc.o)
 .ARM.attributes
                0x00004578       0x32 /opt/devkitpro/devkitARM/lib/gcc/arm-none-eabi/4.7.1/../../../../arm-none-eabi/lib/libc.a(lib_a-locale.o)
 .ARM.attributes
                0x000045aa       0x32 /opt/devkitpro/devkitARM/lib/gcc/arm-none-eabi/4.7.1/../../../../arm-none-eabi/lib/libc.a(lib_a-makebuf.o)
 .ARM.attributes
                0x000045dc       0x32 /opt/devkitpro/devkitARM/lib/gcc/arm-none-eabi/4.7.1/../../../../arm-none-eabi/lib/libc.a(lib_a-mbrtowc.o)
 .ARM.attributes
                0x0000460e       0x32 /opt/devkitpro/devkitARM/lib/gcc/arm-none-eabi/4.7.1/../../../../arm-none-eabi/lib/libc.a(lib_a-mbtowc_r.o)
 .ARM.attributes
                0x00004640       0x32 /opt/devkitpro/devkitARM/lib/gcc/arm-none-eabi/4.7.1/../../../../arm-none-eabi/lib/libc.a(lib_a-mprec.o)
 .ARM.attributes
                0x00004672       0x32 /opt/devkitpro/devkitARM/lib/gcc/arm-none-eabi/4.7.1/../../../../arm-none-eabi/lib/libc.a(lib_a-sccl.o)
 .ARM.attributes
                0x000046a4       0x32 /opt/devkitpro/devkitARM/lib/gcc/arm-none-eabi/4.7.1/../../../../arm-none-eabi/lib/libc.a(lib_a-sf_nan.o)
 .ARM.attributes
                0x000046d6       0x32 /opt/devkitpro/devkitARM/lib/gcc/arm-none-eabi/4.7.1/../../../../arm-none-eabi/lib/libc.a(lib_a-strcasecmp.o)
 .ARM.attributes
                0x00004708       0x32 /opt/devkitpro/devkitARM/lib/gcc/arm-none-eabi/4.7.1/../../../../arm-none-eabi/lib/libc.a(lib_a-strlcpy.o)
 .ARM.attributes
                0x0000473a       0x32 /opt/devkitpro/devkitARM/lib/gcc/arm-none-eabi/4.7.1/../../../../arm-none-eabi/lib/libc.a(lib_a-strncasecmp.o)
 .ARM.attributes
                0x0000476c       0x32 /opt/devkitpro/devkitARM/lib/gcc/arm-none-eabi/4.7.1/../../../../arm-none-eabi/lib/libc.a(lib_a-strtoul.o)
 .ARM.attributes
                0x0000479e       0x32 /opt/devkitpro/devkitARM/lib/gcc/arm-none-eabi/4.7.1/../../../../arm-none-eabi/lib/libc.a(lib_a-strtoull_r.o)
 .ARM.attributes
                0x000047d0       0x32 /opt/devkitpro/devkitARM/lib/gcc/arm-none-eabi/4.7.1/../../../../arm-none-eabi/lib/libc.a(lib_a-svfiprintf.o)
 .ARM.attributes
                0x00004802       0x32 /opt/devkitpro/devkitARM/lib/gcc/arm-none-eabi/4.7.1/../../../../arm-none-eabi/lib/libc.a(lib_a-svfiscanf.o)
 .ARM.attributes
                0x00004834       0x32 /opt/devkitpro/devkitARM/lib/gcc/arm-none-eabi/4.7.1/../../../../arm-none-eabi/lib/libc.a(lib_a-ungetc.o)
 .ARM.attributes
                0x00004866       0x32 /opt/devkitpro/devkitARM/lib/gcc/arm-none-eabi/4.7.1/../../../../arm-none-eabi/lib/libc.a(lib_a-wcsnrtombs.o)
 .ARM.attributes
                0x00004898       0x32 /opt/devkitpro/devkitARM/lib/gcc/arm-none-eabi/4.7.1/../../../../arm-none-eabi/lib/libc.a(lib_a-fclose.o)
 .ARM.attributes
                0x000048ca       0x32 /opt/devkitpro/devkitARM/lib/gcc/arm-none-eabi/4.7.1/../../../../arm-none-eabi/lib/libc.a(lib_a-getenv_r.o)
 .ARM.attributes
                0x000048fc       0x32 /opt/devkitpro/devkitARM/lib/gcc/arm-none-eabi/4.7.1/../../../../arm-none-eabi/lib/libc.a(lib_a-environ.o)
 .ARM.attributes
                0x0000492e       0x32 /opt/devkitpro/devkitARM/lib/gcc/arm-none-eabi/4.7.1/../../../../arm-none-eabi/lib/libc.a(lib_a-envlock.o)
 .ARM.attributes
                0x00004960       0x32 /opt/devkitpro/devkitARM/lib/gcc/arm-none-eabi/4.7.1/../../../../arm-none-eabi/lib/libsysbase.a(close.o)
 .ARM.attributes
                0x00004992       0x32 /opt/devkitpro/devkitARM/lib/gcc/arm-none-eabi/4.7.1/../../../../arm-none-eabi/lib/libsysbase.a(fstat.o)
 .ARM.attributes
                0x000049c4       0x32 /opt/devkitpro/devkitARM/lib/gcc/arm-none-eabi/4.7.1/../../../../arm-none-eabi/lib/libsysbase.a(getpid.o)
 .ARM.attributes
                0x000049f6       0x32 /opt/devkitpro/devkitARM/lib/gcc/arm-none-eabi/4.7.1/../../../../arm-none-eabi/lib/libsysbase.a(isatty.o)
 .ARM.attributes
                0x00004a28       0x32 /opt/devkitpro/devkitARM/lib/gcc/arm-none-eabi/4.7.1/../../../../arm-none-eabi/lib/libsysbase.a(kill.o)
 .ARM.attributes
                0x00004a5a       0x32 /opt/devkitpro/devkitARM/lib/gcc/arm-none-eabi/4.7.1/../../../../arm-none-eabi/lib/libsysbase.a(lseek.o)
 .ARM.attributes
                0x00004a8c       0x32 /opt/devkitpro/devkitARM/lib/gcc/arm-none-eabi/4.7.1/../../../../arm-none-eabi/lib/libsysbase.a(open.o)
 .ARM.attributes
                0x00004abe       0x32 /opt/devkitpro/devkitARM/lib/gcc/arm-none-eabi/4.7.1/../../../../arm-none-eabi/lib/libsysbase.a(read.o)
 .ARM.attributes
                0x00004af0       0x32 /opt/devkitpro/devkitARM/lib/gcc/arm-none-eabi/4.7.1/../../../../arm-none-eabi/lib/libsysbase.a(sbrk.o)
 .ARM.attributes
                0x00004b22       0x32 /opt/devkitpro/devkitARM/lib/gcc/arm-none-eabi/4.7.1/../../../../arm-none-eabi/lib/libsysbase.a(times.o)
 .ARM.attributes
                0x00004b54       0x32 /opt/devkitpro/devkitARM/lib/gcc/arm-none-eabi/4.7.1/../../../../arm-none-eabi/lib/libsysbase.a(write.o)
 .ARM.attributes
                0x00004b86       0x32 /opt/devkitpro/devkitARM/lib/gcc/arm-none-eabi/4.7.1/../../../../arm-none-eabi/lib/libsysbase.a(_exit.o)
 .ARM.attributes
                0x00004bb8       0x32 /opt/devkitpro/devkitARM/lib/gcc/arm-none-eabi/4.7.1/../../../../arm-none-eabi/lib/libsysbase.a(malloc_vars.o)
 .ARM.attributes
                0x00004bea       0x32 /opt/devkitpro/devkitARM/lib/gcc/arm-none-eabi/4.7.1/../../../../arm-none-eabi/lib/libsysbase.a(build_argv.o)
 .ARM.attributes
                0x00004c1c       0x32 /opt/devkitpro/devkitARM/lib/gcc/arm-none-eabi/4.7.1/../../../../arm-none-eabi/lib/libsysbase.a(syscall_support.o)
 .ARM.attributes
                0x00004c4e       0x32 /opt/devkitpro/devkitARM/lib/gcc/arm-none-eabi/4.7.1/../../../../arm-none-eabi/lib/libsysbase.a(handle_manager.o)
 .ARM.attributes
                0x00004c80       0x32 /opt/devkitpro/devkitARM/lib/gcc/arm-none-eabi/4.7.1/../../../../arm-none-eabi/lib/libsysbase.a(iosupport.o)
 .ARM.attributes
                0x00004cb2       0x32 /opt/devkitpro/devkitARM/lib/gcc/arm-none-eabi/4.7.1/crtend.o
 .ARM.attributes
                0x00004ce4       0x1a /opt/devkitpro/devkitARM/lib/gcc/arm-none-eabi/4.7.1/crtn.o

.debug
 *(.debug)

.line
 *(.line)

.debug_srcinfo
 *(.debug_srcinfo)

.debug_sfnames
 *(.debug_sfnames)

.debug_aranges  0x00000000      0x1e0
 *(.debug_aranges)
 .debug_aranges
                0x00000000       0x20 /opt/devkitpro/libnds/lib/libnds9.a(system.o)
 .debug_aranges
                0x00000020       0x20 /opt/devkitpro/libnds/lib/libnds9.a(video.o)
 .debug_aranges
                0x00000040       0x20 /opt/devkitpro/libnds/lib/libnds9.a(dldi.o)
 .debug_aranges
                0x00000060       0x20 /opt/devkitpro/libnds/lib/libnds9.a(initSystem.o)
 .debug_aranges
                0x00000080       0x20 /opt/devkitpro/libnds/lib/libnds9.a(fifosystem.o)
 .debug_aranges
                0x000000a0       0x20 /opt/devkitpro/libnds/lib/libnds9.a(interrupts.o)
 .debug_aranges
                0x000000c0       0x20 /opt/devkitpro/libnds/lib/libnds9.a(libnds_exit.arm.o)
 .debug_aranges
                0x000000e0       0x20 /opt/devkitpro/libnds/lib/libnds9.a(dcache.o)
 .debug_aranges
                0x00000100       0x20 /opt/devkitpro/libnds/lib/libnds9.a(icache.o)
 .debug_aranges
                0x00000120       0x20 /opt/devkitpro/libnds/lib/libnds9.a(dldi_stub.o)
 .debug_aranges
                0x00000140       0x20 /opt/devkitpro/libnds/lib/libnds9.a(mpu_setup.o)
 .debug_aranges
                0x00000160       0x20 /opt/devkitpro/libnds/lib/libnds9.a(biosCalls.o)
 .debug_aranges
                0x00000180       0x20 /opt/devkitpro/libnds/lib/libnds9.a(debugprint.o)
 .debug_aranges
                0x000001a0       0x20 /opt/devkitpro/libnds/lib/libnds9.a(interruptDispatcher.o)
 .debug_aranges
                0x000001c0       0x20 /opt/devkitpro/libnds/lib/libnds9.a(swiSoftReset.o)

.debug_pubnames
 *(.debug_pubnames)

.debug_info     0x00000000     0x4c78
 *(.debug_info)
 .debug_info    0x00000000      0x91b /opt/devkitpro/libnds/lib/libnds9.a(system.o)
 .debug_info    0x0000091b      0x71e /opt/devkitpro/libnds/lib/libnds9.a(video.o)
 .debug_info    0x00001039      0x7ee /opt/devkitpro/libnds/lib/libnds9.a(dldi.o)
 .debug_info    0x00001827     0x1030 /opt/devkitpro/libnds/lib/libnds9.a(initSystem.o)
 .debug_info    0x00002857     0x1546 /opt/devkitpro/libnds/lib/libnds9.a(fifosystem.o)
 .debug_info    0x00003d9d      0x5b4 /opt/devkitpro/libnds/lib/libnds9.a(interrupts.o)
 .debug_info    0x00004351      0x323 /opt/devkitpro/libnds/lib/libnds9.a(libnds_exit.arm.o)
 .debug_info    0x00004674       0xba /opt/devkitpro/libnds/lib/libnds9.a(dcache.o)
 .debug_info    0x0000472e       0xba /opt/devkitpro/libnds/lib/libnds9.a(icache.o)
 .debug_info    0x000047e8       0xc2 /opt/devkitpro/libnds/lib/libnds9.a(dldi_stub.o)
 .debug_info    0x000048aa       0xc4 /opt/devkitpro/libnds/lib/libnds9.a(mpu_setup.o)
 .debug_info    0x0000496e       0xbf /opt/devkitpro/libnds/lib/libnds9.a(biosCalls.o)
 .debug_info    0x00004a2d       0xc0 /opt/devkitpro/libnds/lib/libnds9.a(debugprint.o)
 .debug_info    0x00004aed       0xc9 /opt/devkitpro/libnds/lib/libnds9.a(interruptDispatcher.o)
 .debug_info    0x00004bb6       0xc2 /opt/devkitpro/libnds/lib/libnds9.a(swiSoftReset.o)

.debug_abbrev   0x00000000     0x127a
 *(.debug_abbrev)
 .debug_abbrev  0x00000000      0x26a /opt/devkitpro/libnds/lib/libnds9.a(system.o)
 .debug_abbrev  0x0000026a      0x209 /opt/devkitpro/libnds/lib/libnds9.a(video.o)
 .debug_abbrev  0x00000473      0x26d /opt/devkitpro/libnds/lib/libnds9.a(dldi.o)
 .debug_abbrev  0x000006e0      0x2dc /opt/devkitpro/libnds/lib/libnds9.a(initSystem.o)
 .debug_abbrev  0x000009bc      0x470 /opt/devkitpro/libnds/lib/libnds9.a(fifosystem.o)
 .debug_abbrev  0x00000e2c      0x239 /opt/devkitpro/libnds/lib/libnds9.a(interrupts.o)
 .debug_abbrev  0x00001065      0x175 /opt/devkitpro/libnds/lib/libnds9.a(libnds_exit.arm.o)
 .debug_abbrev  0x000011da       0x14 /opt/devkitpro/libnds/lib/libnds9.a(dcache.o)
 .debug_abbrev  0x000011ee       0x14 /opt/devkitpro/libnds/lib/libnds9.a(icache.o)
 .debug_abbrev  0x00001202       0x14 /opt/devkitpro/libnds/lib/libnds9.a(dldi_stub.o)
 .debug_abbrev  0x00001216       0x14 /opt/devkitpro/libnds/lib/libnds9.a(mpu_setup.o)
 .debug_abbrev  0x0000122a       0x14 /opt/devkitpro/libnds/lib/libnds9.a(biosCalls.o)
 .debug_abbrev  0x0000123e       0x14 /opt/devkitpro/libnds/lib/libnds9.a(debugprint.o)
 .debug_abbrev  0x00001252       0x14 /opt/devkitpro/libnds/lib/libnds9.a(interruptDispatcher.o)
 .debug_abbrev  0x00001266       0x14 /opt/devkitpro/libnds/lib/libnds9.a(swiSoftReset.o)

.debug_line     0x00000000     0x1c6a
 *(.debug_line)
 .debug_line    0x00000000      0x286 /opt/devkitpro/libnds/lib/libnds9.a(system.o)
 .debug_line    0x00000286      0x241 /opt/devkitpro/libnds/lib/libnds9.a(video.o)
 .debug_line    0x000004c7      0x3a8 /opt/devkitpro/libnds/lib/libnds9.a(dldi.o)
 .debug_line    0x0000086f      0x37e /opt/devkitpro/libnds/lib/libnds9.a(initSystem.o)
 .debug_line    0x00000bed      0x6c9 /opt/devkitpro/libnds/lib/libnds9.a(fifosystem.o)
 .debug_line    0x000012b6      0x26e /opt/devkitpro/libnds/lib/libnds9.a(interrupts.o)
 .debug_line    0x00001524      0x1cc /opt/devkitpro/libnds/lib/libnds9.a(libnds_exit.arm.o)
 .debug_line    0x000016f0       0xa2 /opt/devkitpro/libnds/lib/libnds9.a(dcache.o)
 .debug_line    0x00001792       0x8c /opt/devkitpro/libnds/lib/libnds9.a(icache.o)
 .debug_line    0x0000181e       0x8b /opt/devkitpro/libnds/lib/libnds9.a(dldi_stub.o)
 .debug_line    0x000018a9      0x101 /opt/devkitpro/libnds/lib/libnds9.a(mpu_setup.o)
 .debug_line    0x000019aa       0xc3 /opt/devkitpro/libnds/lib/libnds9.a(biosCalls.o)
 .debug_line    0x00001a6d       0x9f /opt/devkitpro/libnds/lib/libnds9.a(debugprint.o)
 .debug_line    0x00001b0c       0xc7 /opt/devkitpro/libnds/lib/libnds9.a(interruptDispatcher.o)
 .debug_line    0x00001bd3       0x97 /opt/devkitpro/libnds/lib/libnds9.a(swiSoftReset.o)

.debug_frame    0x00000000      0x5f0
 *(.debug_frame)
 .debug_frame   0x00000000       0xc8 /opt/devkitpro/libnds/lib/libnds9.a(system.o)
 .debug_frame   0x000000c8       0xc4 /opt/devkitpro/libnds/lib/libnds9.a(video.o)
 .debug_frame   0x0000018c       0x94 /opt/devkitpro/libnds/lib/libnds9.a(dldi.o)
 .debug_frame   0x00000220       0x2c /opt/devkitpro/libnds/lib/libnds9.a(initSystem.o)
 .debug_frame   0x0000024c      0x2b8 /opt/devkitpro/libnds/lib/libnds9.a(fifosystem.o)
 .debug_frame   0x00000504       0xb4 /opt/devkitpro/libnds/lib/libnds9.a(interrupts.o)
 .debug_frame   0x000005b8       0x38 /opt/devkitpro/libnds/lib/libnds9.a(libnds_exit.arm.o)

.debug_str      0x00000000     0x20e0
 *(.debug_str)
 .debug_str     0x00000000      0x55b /opt/devkitpro/libnds/lib/libnds9.a(system.o)
                                0x5dd (size before relaxing)
 .debug_str     0x0000055b      0xa7d /opt/devkitpro/libnds/lib/libnds9.a(video.o)
                                0xb3e (size before relaxing)
 .debug_str     0x00000fd8      0x321 /opt/devkitpro/libnds/lib/libnds9.a(dldi.o)
                                0x415 (size before relaxing)
 .debug_str     0x000012f9      0x6e2 /opt/devkitpro/libnds/lib/libnds9.a(initSystem.o)
                                0xa02 (size before relaxing)
 .debug_str     0x000019db      0x4bd /opt/devkitpro/libnds/lib/libnds9.a(fifosystem.o)
                                0x793 (size before relaxing)
 .debug_str     0x00001e98      0x10e /opt/devkitpro/libnds/lib/libnds9.a(interrupts.o)
                                0x382 (size before relaxing)
 .debug_str     0x00001fa6      0x13a /opt/devkitpro/libnds/lib/libnds9.a(libnds_exit.arm.o)
                                0x2c6 (size before relaxing)

.debug_loc      0x00000000     0x1fcd
 *(.debug_loc)
 .debug_loc     0x00000000      0x2cf /opt/devkitpro/libnds/lib/libnds9.a(system.o)
 .debug_loc     0x000002cf      0x2a1 /opt/devkitpro/libnds/lib/libnds9.a(video.o)
 .debug_loc     0x00000570      0x2e0 /opt/devkitpro/libnds/lib/libnds9.a(dldi.o)
 .debug_loc     0x00000850       0x3f /opt/devkitpro/libnds/lib/libnds9.a(initSystem.o)
 .debug_loc     0x0000088f     0x149c /opt/devkitpro/libnds/lib/libnds9.a(fifosystem.o)
 .debug_loc     0x00001d2b      0x22a /opt/devkitpro/libnds/lib/libnds9.a(interrupts.o)
 .debug_loc     0x00001f55       0x78 /opt/devkitpro/libnds/lib/libnds9.a(libnds_exit.arm.o)

.debug_macinfo
 *(.debug_macinfo)

.debug_weaknames
 *(.debug_weaknames)

.debug_funcnames
 *(.debug_funcnames)

.debug_typenames
 *(.debug_typenames)

.debug_varnames
 *(.debug_varnames)

.stack          0x00080000        0x0
                0x00080000                _stack = .
 *(.stack)
LOAD /opt/devkitpro/devkitARM/lib/gcc/arm-none-eabi/4.7.1/../../../../arm-none-eabi/lib/ds_arm9_crt0.o
LOAD /opt/devkitpro/devkitARM/lib/gcc/arm-none-eabi/4.7.1/crti.o
LOAD /opt/devkitpro/devkitARM/lib/gcc/arm-none-eabi/4.7.1/crtbegin.o
LOAD BootROM.o
LOAD NDSROMIcon.o
LOAD ProgramID.o
LOAD _console.o
LOAD _consoleWriteLog.o
LOAD component.o
LOAD dll.o
LOAD dllsound.o
LOAD euc2unicode.o
LOAD extlink.o
LOAD fpga_helper.o
LOAD main.o
LOAD msgwin.o
LOAD particle.o
LOAD playlist.o
LOAD cglb15.o
LOAD cglcanvas.o
LOAD cglfont.o
LOAD cglscreenmain.o
LOAD cglscreenoverlay.o
LOAD cglscreensub.o
LOAD cglstream.o
LOAD cgltgf.o
LOAD glglobal.o
LOAD glmemtool.o
LOAD BMPReader.o
LOAD ErrorDialog.o
LOAD OverlayManager.o
LOAD VideoResume.o
LOAD cfont.o
LOAD cstream.o
LOAD cstream_fs.o
LOAD datetime.o
LOAD extmem.o
LOAD extmem_DSBM.o
LOAD extmem_EZ3in1.o
LOAD extmem_M3ExtPack.o
LOAD extmem_RawMem.o
LOAD extmem_SuperCard.o
LOAD fastlzss16decpalasm.o
LOAD inifile.o
LOAD lang.o
LOAD launchstate.o
LOAD md5c.o
LOAD memtool.o
LOAD procstate.o
LOAD rect.o
LOAD resume.o
LOAD shell.o
LOAD shell_SystemAfter.o
LOAD skin.o
LOAD sndeff.o
LOAD sndeff_dfs.o
LOAD splash.o
LOAD strpcm.o
LOAD strtool.o
LOAD unicode.o
LOAD zlibhelp.o
LOAD disc_io.o
LOAD fat2.o
LOAD gba_nds_fat.o
LOAD plug_ndsrom.o
LOAD plug_bmp.o
LOAD plug_gif.o
LOAD plug_jpeg.o
LOAD plug_png.o
LOAD plug_psd.o
LOAD plug_gme.o
LOAD plug_lyric.o
LOAD plug_midi.o
LOAD plug_mp3.o
LOAD plug_ogg.o
LOAD plug_wav.o
LOAD _dpgfs.o
LOAD clibdpg.o
LOAD clibmpg.o
LOAD plug_dpg.o
LOAD plug_mp2.o
LOAD plug_srttitle.o
LOAD dgif_lib.o
LOAD jcomapi.o
LOAD jdapimin.o
LOAD jdapistd.o
LOAD jdatasrc.o
LOAD jdcoefct.o
LOAD jdcolor.o
LOAD jddctmgr.o
LOAD jdhuff.o
LOAD jdinput.o
LOAD jdmainct.o
LOAD jdmarker.o
LOAD jdmaster.o
LOAD jdmerge.o
LOAD jdphuff.o
LOAD jdpostct.o
LOAD jdsample.o
LOAD jerror.o
LOAD jidctfst.o
LOAD jidctred.o
LOAD jmemansi.o
LOAD jmemmgr.o
LOAD jquant1.o
LOAD jutils.o
LOAD png.o
LOAD pngerror.o
LOAD pngget.o
LOAD pngmem.o
LOAD pngread.o
LOAD pngrio.o
LOAD pngrtran.o
LOAD pngrutil.o
LOAD pngset.o
LOAD pngtrans.o
LOAD Blip_Buffer.o
LOAD Classic_Emu.o
LOAD Data_Reader.o
LOAD Effects_Buffer.o
LOAD Gme_File.o
LOAD Multi_Buffer.o
LOAD Music_Emu.o
LOAD Nsf_Emu.o
LOAD gme.o
LOAD mtrk.o
LOAD pch.o
LOAD rcplib.o
LOAD smidlib.o
LOAD smidlib_sm.o
LOAD sndfont.o
LOAD proc_Custom.o
LOAD proc_Launch.o
LOAD proc_chkdsk.o
LOAD proc_setup.o
LOAD proc_sysmenu.o
LOAD proc_AudioCustom.o
LOAD proc_BinView.o
LOAD proc_DPGCustom.o
LOAD proc_DPGPlay.o
LOAD proc_BootROM.o
LOAD NDSFiles.o
LOAD ThumbDPG.o
LOAD ThumbIPK.o
LOAD cipk_simple.o
LOAD hiddenpaths.o
LOAD proc_FileList.o
LOAD proc_ImageCustom.o
LOAD proc_ImageView.o
LOAD proc_MemoEdit.o
LOAD proc_MemoList.o
LOAD cctf.o
LOAD cctf_dfs.o
LOAD proc_TextCustom.o
LOAD proc_TextMenu.o
LOAD proc_TextView.o
LOAD Dual_Resampler.o
LOAD Fir_Resampler.o
LOAD Gym_Emu.o
LOAD M3u_Playlist.o
LOAD Nsfe_Emu.o
LOAD Snes_Spc.o
LOAD Spc_Cpu.o
LOAD Spc_Dsp.o
LOAD Spc_Emu.o
LOAD Vgm_Emu.o
LOAD Vgm_Emu_Impl.o
LOAD Ym2413_Emu.o
LOAD Ym2612_Emu.o
LOAD Ay_Apu.o
LOAD Ay_Cpu.o
LOAD Ay_Emu.o
LOAD Gb_Apu.o
LOAD Gb_Cpu.o
LOAD Gb_Oscs.o
LOAD Gbs_Emu.o
LOAD Hes_Apu.o
LOAD Hes_Cpu.o
LOAD Hes_Emu.o
LOAD Kss_Cpu.o
LOAD Kss_Emu.o
LOAD Kss_Scc_Apu.o
LOAD Nes_Apu.o
LOAD Nes_Cpu.o
LOAD Nes_Fme7_Apu.o
LOAD Nes_Namco_Apu.o
LOAD Nes_Oscs.o
LOAD Nes_Vrc6_Apu.o
LOAD Sap_Apu.o
LOAD Sap_Cpu.o
LOAD Sap_Emu.o
LOAD Sms_Apu.o
LOAD _console_font_fixed6x6_packed_bin.o
LOAD bootwarn_b8zlib.o
LOAD guidxcrcerror_b8zlib.o
LOAD romeo2_ncd.o
LOAD snd_click_long_c_bin.o
LOAD snd_click_short_c_bin.o
LOAD versionerror_b8zlib.o
LOAD adler32.o
LOAD crc32.o
LOAD deflate.o
LOAD infback.o
LOAD inffast.o
LOAD inflate.o
LOAD inftrees.o
LOAD trees.o
LOAD zutil.o
LOAD alloc.o
LOAD decode.o
LOAD header.o
LOAD idct.o
LOAD motion_comp.o
LOAD motion_comp_arm.o
LOAD slice.o
LOAD gif_err.o
LOAD gifalloc.o
LOAD bit.o
LOAD decoder.o
LOAD fixed.o
LOAD frame.o
LOAD huffman.o
LOAD layer12.o
LOAD layer3.o
LOAD stream.o
LOAD synth.o
LOAD timer.o
LOAD version.o
LOAD _libogg_dsp.o
LOAD _libogg_mdct.o
LOAD _libogg_misc.o
LOAD bitwise.o
LOAD codebook.o
LOAD floor0.o
LOAD floor1.o
LOAD floor_lookup.o
LOAD framing.o
LOAD info.o
LOAD mapping0.o
LOAD res012.o
LOAD vorbisfile.o
LOAD vramcache.o
LOAD fastlzss16decpalasm_body.o
LOAD motion_comp_arm_s.o
LOAD jpeg_idct_ifast_clip_asm.o
LOAD /opt/devkitpro/libnds/lib/libnds9.a
LOAD /opt/devkitpro/devkitARM/lib/gcc/arm-none-eabi/4.7.1/../../../../arm-none-eabi/lib/libstdc++.a
LOAD /opt/devkitpro/devkitARM/lib/gcc/arm-none-eabi/4.7.1/../../../../arm-none-eabi/lib/libm.a
START GROUP
LOAD /opt/devkitpro/devkitARM/lib/gcc/arm-none-eabi/4.7.1/libgcc.a
LOAD /opt/devkitpro/devkitARM/lib/gcc/arm-none-eabi/4.7.1/../../../../arm-none-eabi/lib/libc.a
LOAD /opt/devkitpro/devkitARM/lib/gcc/arm-none-eabi/4.7.1/../../../../arm-none-eabi/lib/libsysbase.a
END GROUP
LOAD /opt/devkitpro/devkitARM/lib/gcc/arm-none-eabi/4.7.1/crtend.o
LOAD /opt/devkitpro/devkitARM/lib/gcc/arm-none-eabi/4.7.1/crtn.o
OUTPUT(/fishshell2gcc-code/source/arm9/fishell2.elf elf32-littlearm)

.debug_ranges   0x00000000      0x658
 .debug_ranges  0x00000000       0x78 /opt/devkitpro/libnds/lib/libnds9.a(video.o)
 .debug_ranges  0x00000078       0x30 /opt/devkitpro/libnds/lib/libnds9.a(dldi.o)
 .debug_ranges  0x000000a8      0x490 /opt/devkitpro/libnds/lib/libnds9.a(fifosystem.o)
 .debug_ranges  0x00000538      0x120 /opt/devkitpro/libnds/lib/libnds9.a(interrupts.o)
